	.section	__TEXT,__text,regular,pure_instructions
	.build_version macos, 14, 0	sdk_version 14, 4
	.file	1 "/Library/Developer/CommandLineTools/SDKs/MacOSX.sdk/usr/include/_types" "_uint64_t.h"
	.file	2 "/Library/Developer/CommandLineTools/SDKs/MacOSX.sdk/usr/include/_types" "_uint32_t.h"
	.file	3 "/Library/Developer/CommandLineTools/SDKs/MacOSX.sdk/usr/include/_types" "_uint8_t.h"
	.globl	_emulate_AMX_EXTRX              ; -- Begin function emulate_AMX_EXTRX
	.p2align	2
_emulate_AMX_EXTRX:                     ; @emulate_AMX_EXTRX
Lfunc_begin0:
	.file	4 "/Users/tarindujayatilaka/Documents/superopt/apple-amx" "extr.c"
	.loc	4 53 0                          ; extr.c:53:0
	.cfi_startproc
; %bb.0:
	;DEBUG_VALUE: emulate_AMX_EXTRX:state <- $x0
	;DEBUG_VALUE: emulate_AMX_EXTRX:operand <- $x1
	sub	sp, sp, #288
	.cfi_def_cfa_offset 288
	stp	x28, x27, [sp, #192]            ; 16-byte Folded Spill
	stp	x26, x25, [sp, #208]            ; 16-byte Folded Spill
	stp	x24, x23, [sp, #224]            ; 16-byte Folded Spill
	stp	x22, x21, [sp, #240]            ; 16-byte Folded Spill
	stp	x20, x19, [sp, #256]            ; 16-byte Folded Spill
	stp	x29, x30, [sp, #272]            ; 16-byte Folded Spill
	add	x29, sp, #272
	.cfi_def_cfa w29, 16
	.cfi_offset w30, -8
	.cfi_offset w29, -16
	.cfi_offset w19, -24
	.cfi_offset w20, -32
	.cfi_offset w21, -40
	.cfi_offset w22, -48
	.cfi_offset w23, -56
	.cfi_offset w24, -64
	.cfi_offset w25, -72
	.cfi_offset w26, -80
	.cfi_offset w27, -88
	.cfi_offset w28, -96
Lloh0:
	adrp	x8, ___stack_chk_guard@GOTPAGE
Lloh1:
	ldr	x8, [x8, ___stack_chk_guard@GOTPAGEOFF]
Lloh2:
	ldr	x8, [x8]
	stur	x8, [x29, #-96]
Ltmp0:
	;DEBUG_VALUE: emulate_AMX_EXTRX:stride <- 0
	;DEBUG_VALUE: emulate_AMX_EXTRX:store_enable <- -1
	;DEBUG_VALUE: emulate_AMX_EXTRX:z_step <- 64
	;DEBUG_VALUE: emulate_AMX_EXTRX:z_row <- undef
	.loc	4 63 9 prologue_end             ; extr.c:63:9
	tbnz	w1, #26, LBB0_7
Ltmp1:
; %bb.1:
	;DEBUG_VALUE: emulate_AMX_EXTRX:z_step <- 64
	;DEBUG_VALUE: emulate_AMX_EXTRX:store_enable <- -1
	;DEBUG_VALUE: emulate_AMX_EXTRX:stride <- 0
	;DEBUG_VALUE: emulate_AMX_EXTRX:operand <- $x1
	;DEBUG_VALUE: emulate_AMX_EXTRX:state <- $x0
	.loc	4 84 16                         ; extr.c:84:16
	tbnz	w1, #27, LBB0_10
Ltmp2:
; %bb.2:
	;DEBUG_VALUE: emulate_AMX_EXTRX:z_step <- 64
	;DEBUG_VALUE: emulate_AMX_EXTRX:store_enable <- -1
	;DEBUG_VALUE: emulate_AMX_EXTRX:stride <- 0
	;DEBUG_VALUE: emulate_AMX_EXTRX:operand <- $x1
	;DEBUG_VALUE: emulate_AMX_EXTRX:state <- $x0
	;DEBUG_VALUE: emulate_AMX_EXTRX:dst <- $x0
	.loc	4 90 30                         ; extr.c:90:30
	lsr	x17, x1, #10
Ltmp3:
	;DEBUG_VALUE: emulate_AMX_EXTRX:dst_offset <- $x17
	.loc	4 91 21                         ; extr.c:91:21
	ubfx	w8, w1, #28, #2
	mov	w9, #8
	lsr	w9, w9, w8
Ltmp4:
	;DEBUG_VALUE: emulate_AMX_EXTRX:xybytes <- $w9
	.loc	4 0 21 is_stmt 0                ; extr.c:0:21
	mov	x10, #6148914691236517205
	mov	w11, #2
	.loc	4 92 13 is_stmt 1               ; extr.c:92:13
	cmp	w8, #3
	csel	w8, w11, w9, eq
Ltmp5:
	;DEBUG_VALUE: emulate_AMX_EXTRX:xybytes <- $w8
	;DEBUG_VALUE: emulate_AMX_EXTRX:store_enable <- undef
	csinv	x9, x10, xzr, eq
	.loc	4 96 49                         ; extr.c:96:49
	lsr	x10, x1, #41
	mov	w11, #3
Ltmp6:
	;DEBUG_VALUE: parse_writemask:maskbits <- 7
	;DEBUG_VALUE: parse_writemask:val <- $w10
	;DEBUG_VALUE: parse_writemask:g <- $w8
	.file	5 "/Users/tarindujayatilaka/Documents/superopt/apple-amx" "./emulate.h"
	.loc	5 67 9                          ; ./emulate.h:67:9
	ands	w11, w11, w10, lsr #5
Ltmp7:
	;DEBUG_VALUE: parse_writemask:mode <- $w11
	csinc	w12, w8, wzr, ne
	mul	w12, w12, w10
Ltmp8:
	;DEBUG_VALUE: parse_writemask:val <- $w12
	.loc	5 68 9                          ; ./emulate.h:68:9
	and	w10, w12, #0x3f
Ltmp9:
	;DEBUG_VALUE: parse_writemask:all <- -1
	;DEBUG_VALUE: parse_writemask:val <- $w10
	.loc	5 0 9 is_stmt 0                 ; ./emulate.h:0:9
Lloh3:
	adrp	x13, lJTI0_2@PAGE
Lloh4:
	add	x13, x13, lJTI0_2@PAGEOFF
Ltmp10:
	adr	x14, Ltmp10
	ldrsw	x15, [x13, x11, lsl #2]
	add	x14, x14, x15
	br	x14
Ltmp11:
LBB0_3:
	;DEBUG_VALUE: parse_writemask:all <- -1
	;DEBUG_VALUE: parse_writemask:mode <- $w11
	;DEBUG_VALUE: parse_writemask:g <- $w8
	;DEBUG_VALUE: parse_writemask:val <- $w10
	;DEBUG_VALUE: parse_writemask:maskbits <- 7
	;DEBUG_VALUE: emulate_AMX_EXTRX:xybytes <- $w8
	;DEBUG_VALUE: emulate_AMX_EXTRX:dst_offset <- $x17
	;DEBUG_VALUE: emulate_AMX_EXTRX:dst <- $x0
	;DEBUG_VALUE: emulate_AMX_EXTRX:z_step <- 64
	;DEBUG_VALUE: emulate_AMX_EXTRX:stride <- 0
	;DEBUG_VALUE: emulate_AMX_EXTRX:operand <- $x1
	;DEBUG_VALUE: emulate_AMX_EXTRX:state <- $x0
	.loc	5 72 22 is_stmt 1               ; ./emulate.h:72:22
	sub	w13, w10, #1
	mov	x11, #-1
Ltmp12:
	cmp	w13, #1
	b.hi	LBB0_6
Ltmp13:
; %bb.4:
	;DEBUG_VALUE: parse_writemask:all <- -1
	;DEBUG_VALUE: parse_writemask:g <- $w8
	;DEBUG_VALUE: parse_writemask:val <- $w10
	;DEBUG_VALUE: parse_writemask:maskbits <- 7
	;DEBUG_VALUE: emulate_AMX_EXTRX:xybytes <- $w8
	;DEBUG_VALUE: emulate_AMX_EXTRX:dst_offset <- $x17
	;DEBUG_VALUE: emulate_AMX_EXTRX:dst <- $x0
	;DEBUG_VALUE: emulate_AMX_EXTRX:z_step <- 64
	;DEBUG_VALUE: emulate_AMX_EXTRX:stride <- 0
	;DEBUG_VALUE: emulate_AMX_EXTRX:operand <- $x1
	;DEBUG_VALUE: emulate_AMX_EXTRX:state <- $x0
	.loc	5 74 25                         ; ./emulate.h:74:25
	lsl	x11, x11, x8
	.loc	5 74 19 is_stmt 0               ; ./emulate.h:74:19
	mvn	x11, x11
	.loc	5 74 45                         ; ./emulate.h:74:45
	sbfx	w12, w12, #0, #1
	.loc	5 74 37                         ; ./emulate.h:74:37
	and	w12, w12, w8
	.loc	5 74 31                         ; ./emulate.h:74:31
	lsl	x11, x11, x12
Ltmp14:
	;DEBUG_VALUE: parse_writemask:all <- $x11
	;DEBUG_VALUE: parse_writemask:g <- [DW_OP_constu 1, DW_OP_shl, DW_OP_stack_value] $w8
	.loc	5 0 31                          ; ./emulate.h:0:31
	mov	x12, x8
Ltmp15:
LBB0_5:                                 ; =>This Inner Loop Header: Depth=1
	;DEBUG_VALUE: parse_writemask:all <- $x11
	;DEBUG_VALUE: parse_writemask:val <- $w10
	;DEBUG_VALUE: parse_writemask:maskbits <- 7
	;DEBUG_VALUE: emulate_AMX_EXTRX:xybytes <- $w8
	;DEBUG_VALUE: emulate_AMX_EXTRX:dst_offset <- $x17
	;DEBUG_VALUE: emulate_AMX_EXTRX:dst <- $x0
	;DEBUG_VALUE: emulate_AMX_EXTRX:z_step <- 64
	;DEBUG_VALUE: emulate_AMX_EXTRX:stride <- 0
	;DEBUG_VALUE: emulate_AMX_EXTRX:operand <- $x1
	;DEBUG_VALUE: emulate_AMX_EXTRX:state <- $x0
	.loc	5 75 23 is_stmt 1               ; ./emulate.h:75:23
	lsl	w13, w12, #1
	;DEBUG_VALUE: parse_writemask:all <- $x11
Ltmp16:
	.loc	5 76 28                         ; ./emulate.h:76:28
	lsl	x14, x11, x13
	.loc	5 76 21 is_stmt 0               ; ./emulate.h:76:21
	orr	x11, x14, x11
Ltmp17:
	;DEBUG_VALUE: parse_writemask:all <- $x11
	;DEBUG_VALUE: parse_writemask:g <- [DW_OP_constu 1, DW_OP_shl, DW_OP_stack_value] $w13
	.loc	5 75 13 is_stmt 1               ; ./emulate.h:75:13
	cmp	w12, #16
	mov	x12, x13
	b.lo	LBB0_5
Ltmp18:
LBB0_6:
	;DEBUG_VALUE: parse_writemask:val <- $w10
	;DEBUG_VALUE: parse_writemask:maskbits <- 7
	;DEBUG_VALUE: emulate_AMX_EXTRX:xybytes <- $w8
	;DEBUG_VALUE: emulate_AMX_EXTRX:dst_offset <- $x17
	;DEBUG_VALUE: emulate_AMX_EXTRX:dst <- $x0
	;DEBUG_VALUE: emulate_AMX_EXTRX:z_step <- 64
	;DEBUG_VALUE: emulate_AMX_EXTRX:stride <- 0
	;DEBUG_VALUE: emulate_AMX_EXTRX:operand <- $x1
	;DEBUG_VALUE: emulate_AMX_EXTRX:state <- $x0
	;DEBUG_VALUE: parse_writemask:all <- $x11
	.loc	5 83 16                         ; ./emulate.h:83:16
	cmp	w10, #3
	csel	x11, x11, xzr, lo
Ltmp19:
	.loc	5 0 16 is_stmt 0                ; ./emulate.h:0:16
	b	LBB0_19
Ltmp20:
LBB0_7:
	;DEBUG_VALUE: emulate_AMX_EXTRX:z_step <- 64
	;DEBUG_VALUE: emulate_AMX_EXTRX:store_enable <- -1
	;DEBUG_VALUE: emulate_AMX_EXTRX:stride <- 0
	;DEBUG_VALUE: emulate_AMX_EXTRX:operand <- $x1
	;DEBUG_VALUE: emulate_AMX_EXTRX:state <- $x0
	.loc	4 64 15 is_stmt 1               ; extr.c:64:15
	add	x8, x0, #512
	tst	x1, #0x400
	csel	x16, x0, x8, eq
Ltmp21:
	;DEBUG_VALUE: emulate_AMX_EXTRX:dst_offset <- $x1
	;DEBUG_VALUE: emulate_AMX_EXTRX:dst <- $x16
	.loc	4 66 34                         ; extr.c:66:34
	lsr	x8, x1, #59
	and	x9, x8, #0x10
	.loc	4 66 40 is_stmt 0               ; extr.c:66:40
	bfxil	x9, x1, #11, #4
Lloh5:
	adrp	x10, _AMX_VER@GOTPAGE
Lloh6:
	ldr	x10, [x10, _AMX_VER@GOTPAGEOFF]
	.loc	4 66 9                          ; extr.c:66:9
	cmp	x9, #26
	b.hi	LBB0_20
Ltmp22:
; %bb.8:
	;DEBUG_VALUE: emulate_AMX_EXTRX:dst <- $x16
	;DEBUG_VALUE: emulate_AMX_EXTRX:dst_offset <- $x1
	;DEBUG_VALUE: emulate_AMX_EXTRX:z_step <- 64
	;DEBUG_VALUE: emulate_AMX_EXTRX:store_enable <- -1
	;DEBUG_VALUE: emulate_AMX_EXTRX:stride <- 0
	;DEBUG_VALUE: emulate_AMX_EXTRX:operand <- $x1
	;DEBUG_VALUE: emulate_AMX_EXTRX:state <- $x0
	.loc	4 0 9                           ; extr.c:0:9
	str	wzr, [sp, #100]                 ; 4-byte Folded Spill
	mov	w8, #1
Lloh7:
	adrp	x11, lJTI0_0@PAGE
Lloh8:
	add	x11, x11, lJTI0_0@PAGEOFF
Ltmp23:
	adr	x12, Ltmp23
	ldrsw	x13, [x11, x9, lsl #2]
	add	x12, x12, x13
	mov	x9, x8
	br	x12
Ltmp24:
LBB0_9:
	;DEBUG_VALUE: emulate_AMX_EXTRX:dst <- $x16
	;DEBUG_VALUE: emulate_AMX_EXTRX:dst_offset <- $x1
	;DEBUG_VALUE: emulate_AMX_EXTRX:z_step <- 64
	;DEBUG_VALUE: emulate_AMX_EXTRX:store_enable <- -1
	;DEBUG_VALUE: emulate_AMX_EXTRX:stride <- 0
	;DEBUG_VALUE: emulate_AMX_EXTRX:operand <- $x1
	;DEBUG_VALUE: emulate_AMX_EXTRX:state <- $x0
	str	wzr, [sp, #100]                 ; 4-byte Folded Spill
	mov	w8, #4
Ltmp25:
	;DEBUG_VALUE: emulate_AMX_EXTRX:zbytes <- 4
	;DEBUG_VALUE: emulate_AMX_EXTRX:xybytes <- 4
	b	LBB0_27
Ltmp26:
LBB0_10:
	;DEBUG_VALUE: emulate_AMX_EXTRX:z_step <- 64
	;DEBUG_VALUE: emulate_AMX_EXTRX:store_enable <- -1
	;DEBUG_VALUE: emulate_AMX_EXTRX:stride <- 0
	;DEBUG_VALUE: emulate_AMX_EXTRX:operand <- $x1
	;DEBUG_VALUE: emulate_AMX_EXTRX:state <- $x0
	.loc	4 85 9 is_stmt 1                ; extr.c:85:9
	ubfx	x8, x1, #16, #3
	add	x8, x0, x8, lsl #6
	ubfx	x9, x1, #20, #3
	add	x9, x0, x9, lsl #6
	ldp	q0, q1, [x9, #512]
	stp	q0, q1, [x8]
	ldp	q0, q1, [x9, #544]
	stp	q0, q1, [x8, #32]
Ltmp27:
LBB0_11:
	.loc	4 0 9 is_stmt 0                 ; extr.c:0:9
	ldur	x8, [x29, #-96]
Lloh9:
	adrp	x9, ___stack_chk_guard@GOTPAGE
Lloh10:
	ldr	x9, [x9, ___stack_chk_guard@GOTPAGEOFF]
Lloh11:
	ldr	x9, [x9]
	cmp	x9, x8
	b.ne	LBB0_64
; %bb.12:
	.loc	4 114 1 is_stmt 1               ; extr.c:114:1
	ldp	x29, x30, [sp, #272]            ; 16-byte Folded Reload
	ldp	x20, x19, [sp, #256]            ; 16-byte Folded Reload
	ldp	x22, x21, [sp, #240]            ; 16-byte Folded Reload
	ldp	x24, x23, [sp, #224]            ; 16-byte Folded Reload
	ldp	x26, x25, [sp, #208]            ; 16-byte Folded Reload
	ldp	x28, x27, [sp, #192]            ; 16-byte Folded Reload
	add	sp, sp, #288
	ret
LBB0_13:
Ltmp28:
	;DEBUG_VALUE: parse_writemask:all <- -1
	;DEBUG_VALUE: parse_writemask:mode <- $w11
	;DEBUG_VALUE: parse_writemask:g <- $w8
	;DEBUG_VALUE: parse_writemask:val <- $w10
	;DEBUG_VALUE: parse_writemask:maskbits <- 7
	;DEBUG_VALUE: emulate_AMX_EXTRX:xybytes <- $w8
	;DEBUG_VALUE: emulate_AMX_EXTRX:dst_offset <- $x17
	;DEBUG_VALUE: emulate_AMX_EXTRX:dst <- $x0
	;DEBUG_VALUE: emulate_AMX_EXTRX:z_step <- 64
	;DEBUG_VALUE: emulate_AMX_EXTRX:stride <- 0
	;DEBUG_VALUE: emulate_AMX_EXTRX:operand <- $x1
	;DEBUG_VALUE: emulate_AMX_EXTRX:state <- $x0
	.loc	4 0 1 is_stmt 0                 ; extr.c:0:1
	mov	x11, #-1
Ltmp29:
	.loc	5 88 13 is_stmt 1               ; ./emulate.h:88:13
	cbz	w10, LBB0_19
Ltmp30:
; %bb.14:
	;DEBUG_VALUE: parse_writemask:all <- -1
	;DEBUG_VALUE: parse_writemask:g <- $w8
	;DEBUG_VALUE: parse_writemask:val <- $w10
	;DEBUG_VALUE: parse_writemask:maskbits <- 7
	;DEBUG_VALUE: emulate_AMX_EXTRX:xybytes <- $w8
	;DEBUG_VALUE: emulate_AMX_EXTRX:dst_offset <- $x17
	;DEBUG_VALUE: emulate_AMX_EXTRX:dst <- $x0
	;DEBUG_VALUE: emulate_AMX_EXTRX:z_step <- 64
	;DEBUG_VALUE: emulate_AMX_EXTRX:stride <- 0
	;DEBUG_VALUE: emulate_AMX_EXTRX:operand <- $x1
	;DEBUG_VALUE: emulate_AMX_EXTRX:state <- $x0
	.loc	5 91 22                         ; ./emulate.h:91:22
	lsl	x10, x11, x10
Ltmp31:
	.loc	5 0 22 is_stmt 0                ; ./emulate.h:0:22
	b	LBB0_17
Ltmp32:
LBB0_15:
	;DEBUG_VALUE: parse_writemask:all <- -1
	;DEBUG_VALUE: parse_writemask:mode <- $w11
	;DEBUG_VALUE: parse_writemask:g <- $w8
	;DEBUG_VALUE: parse_writemask:val <- $w10
	;DEBUG_VALUE: parse_writemask:maskbits <- 7
	;DEBUG_VALUE: emulate_AMX_EXTRX:xybytes <- $w8
	;DEBUG_VALUE: emulate_AMX_EXTRX:dst_offset <- $x17
	;DEBUG_VALUE: emulate_AMX_EXTRX:dst <- $x0
	;DEBUG_VALUE: emulate_AMX_EXTRX:z_step <- 64
	;DEBUG_VALUE: emulate_AMX_EXTRX:stride <- 0
	;DEBUG_VALUE: emulate_AMX_EXTRX:operand <- $x1
	;DEBUG_VALUE: emulate_AMX_EXTRX:state <- $x0
	mov	x11, #-1
Ltmp33:
	.loc	5 93 13 is_stmt 1               ; ./emulate.h:93:13
	cbz	w10, LBB0_19
Ltmp34:
; %bb.16:
	;DEBUG_VALUE: parse_writemask:all <- -1
	;DEBUG_VALUE: parse_writemask:g <- $w8
	;DEBUG_VALUE: parse_writemask:val <- $w10
	;DEBUG_VALUE: parse_writemask:maskbits <- 7
	;DEBUG_VALUE: emulate_AMX_EXTRX:xybytes <- $w8
	;DEBUG_VALUE: emulate_AMX_EXTRX:dst_offset <- $x17
	;DEBUG_VALUE: emulate_AMX_EXTRX:dst <- $x0
	;DEBUG_VALUE: emulate_AMX_EXTRX:z_step <- 64
	;DEBUG_VALUE: emulate_AMX_EXTRX:stride <- 0
	;DEBUG_VALUE: emulate_AMX_EXTRX:operand <- $x1
	;DEBUG_VALUE: emulate_AMX_EXTRX:state <- $x0
	.loc	5 96 22                         ; ./emulate.h:96:22
	lsr	x10, x11, x10
Ltmp35:
LBB0_17:
	;DEBUG_VALUE: parse_writemask:all <- -1
	;DEBUG_VALUE: parse_writemask:g <- $w8
	;DEBUG_VALUE: parse_writemask:maskbits <- 7
	;DEBUG_VALUE: emulate_AMX_EXTRX:xybytes <- $w8
	;DEBUG_VALUE: emulate_AMX_EXTRX:dst_offset <- $x17
	;DEBUG_VALUE: emulate_AMX_EXTRX:dst <- $x0
	;DEBUG_VALUE: emulate_AMX_EXTRX:z_step <- 64
	;DEBUG_VALUE: emulate_AMX_EXTRX:stride <- 0
	;DEBUG_VALUE: emulate_AMX_EXTRX:operand <- $x1
	;DEBUG_VALUE: emulate_AMX_EXTRX:state <- $x0
	.loc	5 0 0 is_stmt 0                 ; ./emulate.h:0:0
	mvn	x11, x10
	b	LBB0_19
Ltmp36:
LBB0_18:
	;DEBUG_VALUE: parse_writemask:all <- -1
	;DEBUG_VALUE: parse_writemask:mode <- $w11
	;DEBUG_VALUE: parse_writemask:g <- $w8
	;DEBUG_VALUE: parse_writemask:val <- $w10
	;DEBUG_VALUE: parse_writemask:maskbits <- 7
	;DEBUG_VALUE: emulate_AMX_EXTRX:xybytes <- $w8
	;DEBUG_VALUE: emulate_AMX_EXTRX:dst_offset <- $x17
	;DEBUG_VALUE: emulate_AMX_EXTRX:dst <- $x0
	;DEBUG_VALUE: emulate_AMX_EXTRX:z_step <- 64
	;DEBUG_VALUE: emulate_AMX_EXTRX:stride <- 0
	;DEBUG_VALUE: emulate_AMX_EXTRX:operand <- $x1
	;DEBUG_VALUE: emulate_AMX_EXTRX:state <- $x0
	mov	x11, #-1
Ltmp37:
	.loc	5 86 23 is_stmt 1               ; ./emulate.h:86:23
	lsl	x11, x11, x8
	.loc	5 86 17 is_stmt 0               ; ./emulate.h:86:17
	mvn	x11, x11
	.loc	5 86 30                         ; ./emulate.h:86:30
	lsl	x11, x11, x10
Ltmp38:
LBB0_19:
	;DEBUG_VALUE: emulate_AMX_EXTRX:xybytes <- $w8
	;DEBUG_VALUE: emulate_AMX_EXTRX:dst_offset <- $x17
	;DEBUG_VALUE: emulate_AMX_EXTRX:dst <- $x0
	;DEBUG_VALUE: emulate_AMX_EXTRX:z_step <- 64
	;DEBUG_VALUE: emulate_AMX_EXTRX:stride <- 0
	;DEBUG_VALUE: emulate_AMX_EXTRX:operand <- $x1
	;DEBUG_VALUE: emulate_AMX_EXTRX:state <- $x0
	.loc	5 0 30                          ; ./emulate.h:0:30
	str	wzr, [sp, #100]                 ; 4-byte Folded Spill
	.loc	4 96 22 is_stmt 1               ; extr.c:96:22
	and	x2, x11, x9
Ltmp39:
	;DEBUG_VALUE: emulate_AMX_EXTRX:store_enable <- $x2
	.loc	4 0 22 is_stmt 0                ; extr.c:0:22
	mov	w9, #64
Ltmp40:
	;DEBUG_VALUE: emulate_AMX_EXTRX:zbytes <- $w8
	str	x9, [sp, #32]                   ; 8-byte Folded Spill
	mov	x9, x8
	mov	x16, x0
	str	x1, [sp, #88]                   ; 8-byte Folded Spill
	b	LBB0_42
Ltmp41:
LBB0_20:
	;DEBUG_VALUE: emulate_AMX_EXTRX:dst <- $x16
	;DEBUG_VALUE: emulate_AMX_EXTRX:dst_offset <- $x1
	;DEBUG_VALUE: emulate_AMX_EXTRX:z_step <- 64
	;DEBUG_VALUE: emulate_AMX_EXTRX:store_enable <- -1
	;DEBUG_VALUE: emulate_AMX_EXTRX:stride <- 0
	;DEBUG_VALUE: emulate_AMX_EXTRX:operand <- $x1
	;DEBUG_VALUE: emulate_AMX_EXTRX:state <- $x0
	str	wzr, [sp, #100]                 ; 4-byte Folded Spill
	mov	w8, #2
Ltmp42:
	;DEBUG_VALUE: emulate_AMX_EXTRX:zbytes <- 2
	;DEBUG_VALUE: emulate_AMX_EXTRX:xybytes <- 2
	b	LBB0_27
Ltmp43:
LBB0_21:
	;DEBUG_VALUE: emulate_AMX_EXTRX:dst <- $x16
	;DEBUG_VALUE: emulate_AMX_EXTRX:dst_offset <- $x1
	;DEBUG_VALUE: emulate_AMX_EXTRX:z_step <- 64
	;DEBUG_VALUE: emulate_AMX_EXTRX:store_enable <- -1
	;DEBUG_VALUE: emulate_AMX_EXTRX:stride <- 0
	;DEBUG_VALUE: emulate_AMX_EXTRX:operand <- $x1
	;DEBUG_VALUE: emulate_AMX_EXTRX:state <- $x0
	mov	w9, #2
	mov	w8, #4
	mov	w11, #1
Ltmp44:
	;DEBUG_VALUE: emulate_AMX_EXTRX:zbytes <- 4
	;DEBUG_VALUE: emulate_AMX_EXTRX:xybytes <- 2
	;DEBUG_VALUE: emulate_AMX_EXTRX:stride <- 1
	str	w11, [sp, #100]                 ; 4-byte Folded Spill
	b	LBB0_28
Ltmp45:
LBB0_22:
	;DEBUG_VALUE: emulate_AMX_EXTRX:dst <- $x16
	;DEBUG_VALUE: emulate_AMX_EXTRX:dst_offset <- $x1
	;DEBUG_VALUE: emulate_AMX_EXTRX:z_step <- 64
	;DEBUG_VALUE: emulate_AMX_EXTRX:store_enable <- -1
	;DEBUG_VALUE: emulate_AMX_EXTRX:stride <- 0
	;DEBUG_VALUE: emulate_AMX_EXTRX:operand <- $x1
	;DEBUG_VALUE: emulate_AMX_EXTRX:state <- $x0
	mov	w8, #4
	mov	w9, #2
Ltmp46:
	;DEBUG_VALUE: emulate_AMX_EXTRX:zbytes <- 4
	;DEBUG_VALUE: emulate_AMX_EXTRX:xybytes <- 2
	;DEBUG_VALUE: emulate_AMX_EXTRX:stride <- 2
	str	w9, [sp, #100]                  ; 4-byte Folded Spill
	mov	w9, #2
	b	LBB0_28
Ltmp47:
LBB0_23:
	;DEBUG_VALUE: emulate_AMX_EXTRX:dst <- $x16
	;DEBUG_VALUE: emulate_AMX_EXTRX:dst_offset <- $x1
	;DEBUG_VALUE: emulate_AMX_EXTRX:z_step <- 64
	;DEBUG_VALUE: emulate_AMX_EXTRX:store_enable <- -1
	;DEBUG_VALUE: emulate_AMX_EXTRX:stride <- 0
	;DEBUG_VALUE: emulate_AMX_EXTRX:operand <- $x1
	;DEBUG_VALUE: emulate_AMX_EXTRX:state <- $x0
	mov	w8, #4
	b	LBB0_25
Ltmp48:
LBB0_24:
	;DEBUG_VALUE: emulate_AMX_EXTRX:dst <- $x16
	;DEBUG_VALUE: emulate_AMX_EXTRX:dst_offset <- $x1
	;DEBUG_VALUE: emulate_AMX_EXTRX:z_step <- 64
	;DEBUG_VALUE: emulate_AMX_EXTRX:store_enable <- -1
	;DEBUG_VALUE: emulate_AMX_EXTRX:stride <- 0
	;DEBUG_VALUE: emulate_AMX_EXTRX:operand <- $x1
	;DEBUG_VALUE: emulate_AMX_EXTRX:state <- $x0
	mov	w8, #2
Ltmp49:
LBB0_25:
	;DEBUG_VALUE: emulate_AMX_EXTRX:dst <- $x16
	;DEBUG_VALUE: emulate_AMX_EXTRX:dst_offset <- $x1
	;DEBUG_VALUE: emulate_AMX_EXTRX:z_step <- 64
	;DEBUG_VALUE: emulate_AMX_EXTRX:store_enable <- -1
	;DEBUG_VALUE: emulate_AMX_EXTRX:stride <- 0
	;DEBUG_VALUE: emulate_AMX_EXTRX:operand <- $x1
	;DEBUG_VALUE: emulate_AMX_EXTRX:state <- $x0
	mov	w9, #1
Ltmp50:
	;DEBUG_VALUE: emulate_AMX_EXTRX:zbytes <- 4
	;DEBUG_VALUE: emulate_AMX_EXTRX:xybytes <- 1
	;DEBUG_VALUE: emulate_AMX_EXTRX:stride <- 1
	str	w9, [sp, #100]                  ; 4-byte Folded Spill
	mov	w9, #1
	b	LBB0_28
Ltmp51:
LBB0_26:
	;DEBUG_VALUE: emulate_AMX_EXTRX:dst <- $x16
	;DEBUG_VALUE: emulate_AMX_EXTRX:dst_offset <- $x1
	;DEBUG_VALUE: emulate_AMX_EXTRX:z_step <- 64
	;DEBUG_VALUE: emulate_AMX_EXTRX:store_enable <- -1
	;DEBUG_VALUE: emulate_AMX_EXTRX:stride <- 0
	;DEBUG_VALUE: emulate_AMX_EXTRX:operand <- $x1
	;DEBUG_VALUE: emulate_AMX_EXTRX:state <- $x0
	str	wzr, [sp, #100]                 ; 4-byte Folded Spill
	mov	w8, #8
Ltmp52:
	;DEBUG_VALUE: emulate_AMX_EXTRX:zbytes <- 8
	;DEBUG_VALUE: emulate_AMX_EXTRX:xybytes <- 8
LBB0_27:
	;DEBUG_VALUE: emulate_AMX_EXTRX:dst <- $x16
	;DEBUG_VALUE: emulate_AMX_EXTRX:dst_offset <- $x1
	;DEBUG_VALUE: emulate_AMX_EXTRX:z_step <- 64
	;DEBUG_VALUE: emulate_AMX_EXTRX:store_enable <- -1
	;DEBUG_VALUE: emulate_AMX_EXTRX:stride <- 0
	;DEBUG_VALUE: emulate_AMX_EXTRX:operand <- $x1
	;DEBUG_VALUE: emulate_AMX_EXTRX:state <- $x0
	mov	x9, x8
Ltmp53:
LBB0_28:
	;DEBUG_VALUE: emulate_AMX_EXTRX:dst <- $x16
	;DEBUG_VALUE: emulate_AMX_EXTRX:dst_offset <- $x1
	;DEBUG_VALUE: emulate_AMX_EXTRX:z_step <- 64
	;DEBUG_VALUE: emulate_AMX_EXTRX:store_enable <- -1
	;DEBUG_VALUE: emulate_AMX_EXTRX:operand <- $x1
	;DEBUG_VALUE: emulate_AMX_EXTRX:state <- $x0
	;DEBUG_VALUE: emulate_AMX_EXTRX:stride <- [DW_OP_plus_uconst 100] [$sp+0]
	;DEBUG_VALUE: emulate_AMX_EXTRX:xybytes <- $w9
	;DEBUG_VALUE: emulate_AMX_EXTRX:zbytes <- $w8
	.loc	4 79 14 is_stmt 1               ; extr.c:79:14
	ldr	w10, [x10]
	tst	x1, #0x80000000
	.loc	4 79 37 is_stmt 0               ; extr.c:79:37
	ccmp	w10, #2, #0, ne
	cset	w10, lo
	and	x11, x1, #0xfffffe00ffffffff
	tst	x1, #0x2000000
	mov	w12, #16
	mov	w13, #32
	csel	x12, x13, x12, eq
	cmp	w10, #0
	mov	w10, #64
	csel	x10, x10, x12, ne
Ltmp54:
	;DEBUG_VALUE: emulate_AMX_EXTRX:z_step <- $x10
	.loc	4 0 37                          ; extr.c:0:37
	str	x10, [sp, #32]                  ; 8-byte Folded Spill
Ltmp55:
	;DEBUG_VALUE: emulate_AMX_EXTRX:z_step <- [DW_OP_plus_uconst 32] [$sp+0]
	;DEBUG_VALUE: emulate_AMX_EXTRX:z_step <- [DW_OP_plus_uconst 32] [$sp+0]
	.loc	4 79 37                         ; extr.c:79:37
	csel	x12, x1, x11, ne
Ltmp56:
	;DEBUG_VALUE: parse_writemask:maskbits <- 9
	;DEBUG_VALUE: parse_writemask:g <- $w9
	;DEBUG_VALUE: parse_writemask:val <- undef
	;DEBUG_VALUE: emulate_AMX_EXTRX:operand <- $x12
	.loc	5 66 21 is_stmt 1               ; ./emulate.h:66:21
	lsr	x10, x12, #38
	.loc	5 67 9                          ; ./emulate.h:67:9
	ands	w11, w10, #0x7
Ltmp57:
	;DEBUG_VALUE: parse_writemask:mode <- $w11
	csinc	w10, w9, wzr, ne
Ltmp58:
	;DEBUG_VALUE: parse_writemask:all <- -1
	.loc	5 70 5                          ; ./emulate.h:70:5
	cmp	w11, #5
	str	x12, [sp, #88]                  ; 8-byte Folded Spill
	b.hi	LBB0_34
Ltmp59:
; %bb.29:
	;DEBUG_VALUE: parse_writemask:all <- -1
	;DEBUG_VALUE: parse_writemask:mode <- $w11
	;DEBUG_VALUE: emulate_AMX_EXTRX:operand <- $x12
	;DEBUG_VALUE: parse_writemask:g <- $w9
	;DEBUG_VALUE: parse_writemask:maskbits <- 9
	;DEBUG_VALUE: emulate_AMX_EXTRX:z_step <- [DW_OP_plus_uconst 32] [$sp+0]
	;DEBUG_VALUE: emulate_AMX_EXTRX:zbytes <- $w8
	;DEBUG_VALUE: emulate_AMX_EXTRX:xybytes <- $w9
	;DEBUG_VALUE: emulate_AMX_EXTRX:stride <- [DW_OP_plus_uconst 100] [$sp+0]
	;DEBUG_VALUE: emulate_AMX_EXTRX:dst <- $x16
	;DEBUG_VALUE: emulate_AMX_EXTRX:dst_offset <- $x1
	;DEBUG_VALUE: emulate_AMX_EXTRX:store_enable <- -1
	;DEBUG_VALUE: emulate_AMX_EXTRX:state <- $x0
	.loc	5 0 5 is_stmt 0                 ; ./emulate.h:0:5
	lsr	x12, x12, #32
Ltmp60:
	mul	w12, w10, w12
	and	w10, w12, #0x3f
Ltmp61:
	;DEBUG_VALUE: parse_writemask:val <- $w10
Lloh12:
	adrp	x13, lJTI0_1@PAGE
Lloh13:
	add	x13, x13, lJTI0_1@PAGEOFF
Ltmp62:
	adr	x14, Ltmp62
	ldrsw	x15, [x13, x11, lsl #2]
	add	x14, x14, x15
	br	x14
Ltmp63:
LBB0_30:
	;DEBUG_VALUE: parse_writemask:val <- $w10
	;DEBUG_VALUE: parse_writemask:all <- -1
	;DEBUG_VALUE: parse_writemask:mode <- $w11
	;DEBUG_VALUE: parse_writemask:g <- $w9
	;DEBUG_VALUE: parse_writemask:maskbits <- 9
	;DEBUG_VALUE: emulate_AMX_EXTRX:z_step <- [DW_OP_plus_uconst 32] [$sp+0]
	;DEBUG_VALUE: emulate_AMX_EXTRX:zbytes <- $w8
	;DEBUG_VALUE: emulate_AMX_EXTRX:xybytes <- $w9
	;DEBUG_VALUE: emulate_AMX_EXTRX:stride <- [DW_OP_plus_uconst 100] [$sp+0]
	;DEBUG_VALUE: emulate_AMX_EXTRX:dst <- $x16
	;DEBUG_VALUE: emulate_AMX_EXTRX:dst_offset <- $x1
	;DEBUG_VALUE: emulate_AMX_EXTRX:store_enable <- -1
	;DEBUG_VALUE: emulate_AMX_EXTRX:state <- $x0
	.loc	5 72 22 is_stmt 1               ; ./emulate.h:72:22
	sub	w13, w10, #1
	mov	x11, #-1
Ltmp64:
	cmp	w13, #1
	b.hi	LBB0_33
Ltmp65:
; %bb.31:
	;DEBUG_VALUE: parse_writemask:val <- $w10
	;DEBUG_VALUE: parse_writemask:all <- -1
	;DEBUG_VALUE: parse_writemask:g <- $w9
	;DEBUG_VALUE: parse_writemask:maskbits <- 9
	;DEBUG_VALUE: emulate_AMX_EXTRX:z_step <- [DW_OP_plus_uconst 32] [$sp+0]
	;DEBUG_VALUE: emulate_AMX_EXTRX:zbytes <- $w8
	;DEBUG_VALUE: emulate_AMX_EXTRX:xybytes <- $w9
	;DEBUG_VALUE: emulate_AMX_EXTRX:stride <- [DW_OP_plus_uconst 100] [$sp+0]
	;DEBUG_VALUE: emulate_AMX_EXTRX:dst <- $x16
	;DEBUG_VALUE: emulate_AMX_EXTRX:dst_offset <- $x1
	;DEBUG_VALUE: emulate_AMX_EXTRX:store_enable <- -1
	;DEBUG_VALUE: emulate_AMX_EXTRX:state <- $x0
	.loc	5 74 25                         ; ./emulate.h:74:25
	lsl	x11, x11, x9
	.loc	5 74 19 is_stmt 0               ; ./emulate.h:74:19
	mvn	x11, x11
	.loc	5 74 45                         ; ./emulate.h:74:45
	sbfx	w12, w12, #0, #1
	.loc	5 74 37                         ; ./emulate.h:74:37
	and	w12, w12, w9
	.loc	5 74 31                         ; ./emulate.h:74:31
	lsl	x11, x11, x12
Ltmp66:
	;DEBUG_VALUE: parse_writemask:all <- $x11
	;DEBUG_VALUE: parse_writemask:g <- [DW_OP_constu 1, DW_OP_shl, DW_OP_stack_value] $w9
	.loc	5 0 31                          ; ./emulate.h:0:31
	mov	x12, x9
Ltmp67:
LBB0_32:                                ; =>This Inner Loop Header: Depth=1
	;DEBUG_VALUE: parse_writemask:all <- $x11
	;DEBUG_VALUE: parse_writemask:val <- $w10
	;DEBUG_VALUE: parse_writemask:maskbits <- 9
	;DEBUG_VALUE: emulate_AMX_EXTRX:z_step <- [DW_OP_plus_uconst 32] [$sp+0]
	;DEBUG_VALUE: emulate_AMX_EXTRX:zbytes <- $w8
	;DEBUG_VALUE: emulate_AMX_EXTRX:xybytes <- $w9
	;DEBUG_VALUE: emulate_AMX_EXTRX:stride <- [DW_OP_plus_uconst 100] [$sp+0]
	;DEBUG_VALUE: emulate_AMX_EXTRX:dst <- $x16
	;DEBUG_VALUE: emulate_AMX_EXTRX:dst_offset <- $x1
	;DEBUG_VALUE: emulate_AMX_EXTRX:store_enable <- -1
	;DEBUG_VALUE: emulate_AMX_EXTRX:state <- $x0
	.loc	5 75 23 is_stmt 1               ; ./emulate.h:75:23
	lsl	w13, w12, #1
	;DEBUG_VALUE: parse_writemask:all <- $x11
Ltmp68:
	.loc	5 76 28                         ; ./emulate.h:76:28
	lsl	x14, x11, x13
	.loc	5 76 21 is_stmt 0               ; ./emulate.h:76:21
	orr	x11, x14, x11
Ltmp69:
	;DEBUG_VALUE: parse_writemask:all <- $x11
	;DEBUG_VALUE: parse_writemask:g <- [DW_OP_constu 1, DW_OP_shl, DW_OP_stack_value] $w13
	.loc	5 75 13 is_stmt 1               ; ./emulate.h:75:13
	cmp	w12, #16
	mov	x12, x13
	b.lo	LBB0_32
Ltmp70:
LBB0_33:
	;DEBUG_VALUE: parse_writemask:val <- $w10
	;DEBUG_VALUE: parse_writemask:maskbits <- 9
	;DEBUG_VALUE: emulate_AMX_EXTRX:z_step <- [DW_OP_plus_uconst 32] [$sp+0]
	;DEBUG_VALUE: emulate_AMX_EXTRX:zbytes <- $w8
	;DEBUG_VALUE: emulate_AMX_EXTRX:xybytes <- $w9
	;DEBUG_VALUE: emulate_AMX_EXTRX:stride <- [DW_OP_plus_uconst 100] [$sp+0]
	;DEBUG_VALUE: emulate_AMX_EXTRX:dst <- $x16
	;DEBUG_VALUE: emulate_AMX_EXTRX:dst_offset <- $x1
	;DEBUG_VALUE: emulate_AMX_EXTRX:store_enable <- -1
	;DEBUG_VALUE: emulate_AMX_EXTRX:state <- $x0
	;DEBUG_VALUE: parse_writemask:all <- $x11
	.loc	5 83 16                         ; ./emulate.h:83:16
	cmp	w10, #6
	csel	x2, x11, xzr, lo
	b	LBB0_41
Ltmp71:
LBB0_34:
	;DEBUG_VALUE: parse_writemask:all <- -1
	;DEBUG_VALUE: parse_writemask:mode <- $w11
	;DEBUG_VALUE: emulate_AMX_EXTRX:operand <- $x12
	;DEBUG_VALUE: parse_writemask:g <- $w9
	;DEBUG_VALUE: parse_writemask:maskbits <- 9
	;DEBUG_VALUE: emulate_AMX_EXTRX:z_step <- [DW_OP_plus_uconst 32] [$sp+0]
	;DEBUG_VALUE: emulate_AMX_EXTRX:zbytes <- $w8
	;DEBUG_VALUE: emulate_AMX_EXTRX:xybytes <- $w9
	;DEBUG_VALUE: emulate_AMX_EXTRX:stride <- [DW_OP_plus_uconst 100] [$sp+0]
	;DEBUG_VALUE: emulate_AMX_EXTRX:dst <- $x16
	;DEBUG_VALUE: emulate_AMX_EXTRX:dst_offset <- $x1
	;DEBUG_VALUE: emulate_AMX_EXTRX:store_enable <- -1
	;DEBUG_VALUE: emulate_AMX_EXTRX:state <- $x0
	.loc	5 0 16 is_stmt 0                ; ./emulate.h:0:16
	mov	x2, #0
	b	LBB0_41
Ltmp72:
LBB0_35:
	;DEBUG_VALUE: parse_writemask:val <- $w10
	;DEBUG_VALUE: parse_writemask:all <- -1
	;DEBUG_VALUE: parse_writemask:mode <- $w11
	;DEBUG_VALUE: parse_writemask:g <- $w9
	;DEBUG_VALUE: parse_writemask:maskbits <- 9
	;DEBUG_VALUE: emulate_AMX_EXTRX:z_step <- [DW_OP_plus_uconst 32] [$sp+0]
	;DEBUG_VALUE: emulate_AMX_EXTRX:zbytes <- $w8
	;DEBUG_VALUE: emulate_AMX_EXTRX:xybytes <- $w9
	;DEBUG_VALUE: emulate_AMX_EXTRX:stride <- [DW_OP_plus_uconst 100] [$sp+0]
	;DEBUG_VALUE: emulate_AMX_EXTRX:dst <- $x16
	;DEBUG_VALUE: emulate_AMX_EXTRX:dst_offset <- $x1
	;DEBUG_VALUE: emulate_AMX_EXTRX:store_enable <- -1
	;DEBUG_VALUE: emulate_AMX_EXTRX:state <- $x0
	mov	x11, #-1
Ltmp73:
	.loc	5 86 23 is_stmt 1               ; ./emulate.h:86:23
	lsl	x11, x11, x9
	.loc	5 86 17 is_stmt 0               ; ./emulate.h:86:17
	mvn	x11, x11
	.loc	5 86 30                         ; ./emulate.h:86:30
	lsl	x2, x11, x10
	b	LBB0_41
Ltmp74:
LBB0_36:
	;DEBUG_VALUE: parse_writemask:val <- $w10
	;DEBUG_VALUE: parse_writemask:all <- -1
	;DEBUG_VALUE: parse_writemask:mode <- $w11
	;DEBUG_VALUE: parse_writemask:g <- $w9
	;DEBUG_VALUE: parse_writemask:maskbits <- 9
	;DEBUG_VALUE: emulate_AMX_EXTRX:z_step <- [DW_OP_plus_uconst 32] [$sp+0]
	;DEBUG_VALUE: emulate_AMX_EXTRX:zbytes <- $w8
	;DEBUG_VALUE: emulate_AMX_EXTRX:xybytes <- $w9
	;DEBUG_VALUE: emulate_AMX_EXTRX:stride <- [DW_OP_plus_uconst 100] [$sp+0]
	;DEBUG_VALUE: emulate_AMX_EXTRX:dst <- $x16
	;DEBUG_VALUE: emulate_AMX_EXTRX:dst_offset <- $x1
	;DEBUG_VALUE: emulate_AMX_EXTRX:store_enable <- -1
	;DEBUG_VALUE: emulate_AMX_EXTRX:state <- $x0
	.loc	5 88 13 is_stmt 1               ; ./emulate.h:88:13
	cbz	w10, LBB0_61
Ltmp75:
LBB0_37:
	;DEBUG_VALUE: parse_writemask:val <- $w10
	;DEBUG_VALUE: parse_writemask:all <- -1
	;DEBUG_VALUE: parse_writemask:mode <- $w11
	;DEBUG_VALUE: parse_writemask:g <- $w9
	;DEBUG_VALUE: parse_writemask:maskbits <- 9
	;DEBUG_VALUE: emulate_AMX_EXTRX:z_step <- [DW_OP_plus_uconst 32] [$sp+0]
	;DEBUG_VALUE: emulate_AMX_EXTRX:zbytes <- $w8
	;DEBUG_VALUE: emulate_AMX_EXTRX:xybytes <- $w9
	;DEBUG_VALUE: emulate_AMX_EXTRX:stride <- [DW_OP_plus_uconst 100] [$sp+0]
	;DEBUG_VALUE: emulate_AMX_EXTRX:dst <- $x16
	;DEBUG_VALUE: emulate_AMX_EXTRX:dst_offset <- $x1
	;DEBUG_VALUE: emulate_AMX_EXTRX:store_enable <- -1
	;DEBUG_VALUE: emulate_AMX_EXTRX:state <- $x0
	.loc	5 0 13 is_stmt 0                ; ./emulate.h:0:13
	mov	x11, #-1
Ltmp76:
	.loc	5 91 22 is_stmt 1               ; ./emulate.h:91:22
	lsl	x10, x11, x10
Ltmp77:
	.loc	5 0 22 is_stmt 0                ; ./emulate.h:0:22
	b	LBB0_40
Ltmp78:
LBB0_38:
	;DEBUG_VALUE: parse_writemask:val <- $w10
	;DEBUG_VALUE: parse_writemask:all <- -1
	;DEBUG_VALUE: parse_writemask:mode <- $w11
	;DEBUG_VALUE: parse_writemask:g <- $w9
	;DEBUG_VALUE: parse_writemask:maskbits <- 9
	;DEBUG_VALUE: emulate_AMX_EXTRX:z_step <- [DW_OP_plus_uconst 32] [$sp+0]
	;DEBUG_VALUE: emulate_AMX_EXTRX:zbytes <- $w8
	;DEBUG_VALUE: emulate_AMX_EXTRX:xybytes <- $w9
	;DEBUG_VALUE: emulate_AMX_EXTRX:stride <- [DW_OP_plus_uconst 100] [$sp+0]
	;DEBUG_VALUE: emulate_AMX_EXTRX:dst <- $x16
	;DEBUG_VALUE: emulate_AMX_EXTRX:dst_offset <- $x1
	;DEBUG_VALUE: emulate_AMX_EXTRX:store_enable <- -1
	;DEBUG_VALUE: emulate_AMX_EXTRX:state <- $x0
	.loc	5 93 13 is_stmt 1               ; ./emulate.h:93:13
	cbz	w10, LBB0_61
Ltmp79:
LBB0_39:
	;DEBUG_VALUE: parse_writemask:val <- $w10
	;DEBUG_VALUE: parse_writemask:all <- -1
	;DEBUG_VALUE: parse_writemask:mode <- $w11
	;DEBUG_VALUE: parse_writemask:g <- $w9
	;DEBUG_VALUE: parse_writemask:maskbits <- 9
	;DEBUG_VALUE: emulate_AMX_EXTRX:z_step <- [DW_OP_plus_uconst 32] [$sp+0]
	;DEBUG_VALUE: emulate_AMX_EXTRX:zbytes <- $w8
	;DEBUG_VALUE: emulate_AMX_EXTRX:xybytes <- $w9
	;DEBUG_VALUE: emulate_AMX_EXTRX:stride <- [DW_OP_plus_uconst 100] [$sp+0]
	;DEBUG_VALUE: emulate_AMX_EXTRX:dst <- $x16
	;DEBUG_VALUE: emulate_AMX_EXTRX:dst_offset <- $x1
	;DEBUG_VALUE: emulate_AMX_EXTRX:store_enable <- -1
	;DEBUG_VALUE: emulate_AMX_EXTRX:state <- $x0
	.loc	5 0 13 is_stmt 0                ; ./emulate.h:0:13
	mov	x11, #-1
Ltmp80:
	.loc	5 96 22 is_stmt 1               ; ./emulate.h:96:22
	lsr	x10, x11, x10
Ltmp81:
LBB0_40:
	;DEBUG_VALUE: parse_writemask:all <- -1
	;DEBUG_VALUE: parse_writemask:g <- $w9
	;DEBUG_VALUE: parse_writemask:maskbits <- 9
	;DEBUG_VALUE: emulate_AMX_EXTRX:z_step <- [DW_OP_plus_uconst 32] [$sp+0]
	;DEBUG_VALUE: emulate_AMX_EXTRX:zbytes <- $w8
	;DEBUG_VALUE: emulate_AMX_EXTRX:xybytes <- $w9
	;DEBUG_VALUE: emulate_AMX_EXTRX:stride <- [DW_OP_plus_uconst 100] [$sp+0]
	;DEBUG_VALUE: emulate_AMX_EXTRX:dst <- $x16
	;DEBUG_VALUE: emulate_AMX_EXTRX:dst_offset <- $x1
	;DEBUG_VALUE: emulate_AMX_EXTRX:store_enable <- -1
	;DEBUG_VALUE: emulate_AMX_EXTRX:state <- $x0
	.loc	5 0 0 is_stmt 0                 ; ./emulate.h:0:0
	mvn	x2, x10
Ltmp82:
LBB0_41:
	;DEBUG_VALUE: parse_writemask:maskbits <- 9
	;DEBUG_VALUE: emulate_AMX_EXTRX:z_step <- [DW_OP_plus_uconst 32] [$sp+0]
	;DEBUG_VALUE: emulate_AMX_EXTRX:zbytes <- $w8
	;DEBUG_VALUE: emulate_AMX_EXTRX:xybytes <- $w9
	;DEBUG_VALUE: emulate_AMX_EXTRX:stride <- [DW_OP_plus_uconst 100] [$sp+0]
	;DEBUG_VALUE: emulate_AMX_EXTRX:dst <- $x16
	;DEBUG_VALUE: emulate_AMX_EXTRX:dst_offset <- $x1
	;DEBUG_VALUE: emulate_AMX_EXTRX:store_enable <- -1
	;DEBUG_VALUE: emulate_AMX_EXTRX:state <- $x0
	mov	x17, x1
Ltmp83:
LBB0_42:
	;DEBUG_VALUE: emulate_AMX_EXTRX:zbytes <- $w8
	;DEBUG_VALUE: emulate_AMX_EXTRX:state <- $x0
	lsr	x10, x1, #20
	;DEBUG_VALUE: emulate_AMX_EXTRX:zbytes <- $w8
Ltmp84:
	;DEBUG_VALUE: emulate_AMX_EXTRX:xybytes <- $w9
	;DEBUG_VALUE: emulate_AMX_EXTRX:dst_offset <- $x17
	;DEBUG_VALUE: emulate_AMX_EXTRX:dst <- $x16
	;DEBUG_VALUE: emulate_AMX_EXTRX:stride <- [DW_OP_plus_uconst 100] [$sp+0]
	;DEBUG_VALUE: emulate_AMX_EXTRX:store_enable <- $x2
	;DEBUG_VALUE: emulate_AMX_EXTRX:z_step <- [DW_OP_plus_uconst 32] [$sp+0]
	;DEBUG_VALUE: emulate_AMX_EXTRX:z_row <- $x10
	;DEBUG_VALUE: emulate_AMX_EXTRX:operand <- [DW_OP_plus_uconst 88] [$sp+0]
	ldr	x15, [sp, #88]                  ; 8-byte Folded Reload
	lsr	x11, x15, #58
	ands	w12, w11, #0x1f
	sub	w12, w12, #1
	ands	w11, w11, #0x1f
	str	x11, [sp, #80]                  ; 8-byte Folded Spill
	.loc	4 100 33 is_stmt 1              ; extr.c:100:33
	lsl	x11, x15, #6
	and	x13, x15, #0x40000000000000
	ccmp	x13, #0, #4, ne
	mov	w13, #1
	lsl	w12, w13, w12
	csel	x12, xzr, x12, eq
Ltmp85:
	;DEBUG_VALUE: emulate_AMX_EXTRX:signext <- undef
	;DEBUG_VALUE: emulate_AMX_EXTRX:z_row <- [DW_OP_LLVM_arg 0, DW_OP_plus_uconst 32, DW_OP_deref, DW_OP_plus_uconst 17592186044415, DW_OP_LLVM_arg 1, DW_OP_and, DW_OP_stack_value] $sp, $x10
	.loc	4 0 33 is_stmt 0                ; extr.c:0:33
	str	x12, [sp, #72]                  ; 8-byte Folded Spill
	mov	w12, #64
	.loc	4 100 24                        ; extr.c:100:24
	sub	w12, w12, w8, lsl #3
	ldr	x14, [sp, #32]                  ; 8-byte Folded Reload
Ltmp86:
	;DEBUG_VALUE: emulate_AMX_EXTRX:z_step <- $x14
	;DEBUG_VALUE: emulate_AMX_EXTRX:z_row <- [DW_OP_LLVM_arg 0, DW_OP_plus_uconst 17592186044415, DW_OP_LLVM_arg 1, DW_OP_and, DW_OP_stack_value] $x14, $x10
	.loc	4 101 26 is_stmt 1              ; extr.c:101:26
	sub	x14, x14, #1
Ltmp87:
	;DEBUG_VALUE: emulate_AMX_EXTRX:z_step <- [DW_OP_plus_uconst 32] [$sp+0]
	;DEBUG_VALUE: emulate_AMX_EXTRX:z_row <- [DW_OP_LLVM_arg 0, DW_OP_LLVM_arg 1, DW_OP_and, DW_OP_stack_value] $x14, $x10
	.loc	4 101 16 is_stmt 0              ; extr.c:101:16
	and	x22, x14, x10
Ltmp88:
	;DEBUG_VALUE: emulate_AMX_EXTRX:z_row <- $x22
	.loc	4 0 16                          ; extr.c:0:16
	sub	w19, w8, #1
	neg	w25, w8
	and	x24, x12, x11, asr #63
	lsl	w10, w9, #3
	lsl	x11, x15, #7
	ubfx	x12, x15, #56, #1
	sub	w10, w10, w12
	lsl	x12, x13, x10
	neg	x10, x12
	and	x10, x10, x11, asr #63
	str	x10, [sp, #48]                  ; 8-byte Folded Spill
	sub	x10, x12, #1
	stp	x10, x12, [sp, #56]             ; 16-byte Folded Spill
	and	x10, x15, #0x1fffc000000
	and	x10, x10, #0xffffffff07ffffff
	stp	x10, x2, [sp, #8]               ; 16-byte Folded Spill
	mov	w20, w8
	mov	w21, w9
	str	x16, [sp, #24]                  ; 8-byte Folded Spill
Ltmp89:
	;DEBUG_VALUE: emulate_AMX_EXTRX:dst <- [DW_OP_plus_uconst 24] [$sp+0]
	ldr	w28, [sp, #100]                 ; 4-byte Folded Reload
	b	LBB0_44
Ltmp90:
LBB0_43:                                ;   in Loop: Header=BB0_44 Depth=1
	;DEBUG_VALUE: emulate_AMX_EXTRX:dst_offset <- [DW_OP_plus_uconst 40] [$sp+0]
	;DEBUG_VALUE: emulate_AMX_EXTRX:dst <- [DW_OP_plus_uconst 24] [$sp+0]
	;DEBUG_VALUE: emulate_AMX_EXTRX:z_row <- $x22
	;DEBUG_VALUE: emulate_AMX_EXTRX:operand <- [DW_OP_plus_uconst 88] [$sp+0]
	;DEBUG_VALUE: emulate_AMX_EXTRX:z_step <- [DW_OP_plus_uconst 32] [$sp+0]
	;DEBUG_VALUE: emulate_AMX_EXTRX:stride <- [DW_OP_plus_uconst 100] [$sp+0]
	.loc	4 112 20 is_stmt 1              ; extr.c:112:20
	add	x17, x17, #64
Ltmp91:
	;DEBUG_VALUE: emulate_AMX_EXTRX:dst_offset <- $x17
	.loc	4 0 20 is_stmt 0                ; extr.c:0:20
	ldr	x8, [sp, #32]                   ; 8-byte Folded Reload
Ltmp92:
	.loc	4 101 50 is_stmt 1              ; extr.c:101:50
	add	x22, x22, x8
Ltmp93:
	;DEBUG_VALUE: emulate_AMX_EXTRX:z_row <- $x22
	.loc	4 101 5 is_stmt 0               ; extr.c:101:5
	cmp	x22, #64
	b.hs	LBB0_11
Ltmp94:
LBB0_44:                                ; =>This Loop Header: Depth=1
                                        ;     Child Loop BB0_47 Depth 2
                                        ;     Child Loop BB0_59 Depth 2
	;DEBUG_VALUE: emulate_AMX_EXTRX:dst <- [DW_OP_plus_uconst 24] [$sp+0]
	;DEBUG_VALUE: emulate_AMX_EXTRX:z_row <- $x22
	;DEBUG_VALUE: emulate_AMX_EXTRX:operand <- [DW_OP_plus_uconst 88] [$sp+0]
	;DEBUG_VALUE: emulate_AMX_EXTRX:dst_offset <- $x17
	;DEBUG_VALUE: emulate_AMX_EXTRX:z_step <- [DW_OP_plus_uconst 32] [$sp+0]
	;DEBUG_VALUE: emulate_AMX_EXTRX:stride <- [DW_OP_plus_uconst 100] [$sp+0]
	;DEBUG_VALUE: emulate_AMX_EXTRX:z_row <- $x22
	;DEBUG_VALUE: emulate_AMX_EXTRX:dst_offset <- $x17
	.loc	4 0 5                           ; extr.c:0:5
	str	x17, [sp, #40]                  ; 8-byte Folded Spill
Ltmp95:
	;DEBUG_VALUE: emulate_AMX_EXTRX:dst_offset <- [DW_OP_plus_uconst 40] [$sp+0]
	;DEBUG_VALUE: emulate_AMX_EXTRX:dst_offset <- [DW_OP_plus_uconst 40] [$sp+0]
	;DEBUG_VALUE: emulate_AMX_EXTRX:dst_offset <- [DW_OP_plus_uconst 40] [$sp+0]
	mov	w27, #0
	and	x26, x22, x25
	;DEBUG_VALUE: i <- 0
	b	LBB0_47
Ltmp96:
LBB0_45:                                ;   in Loop: Header=BB0_47 Depth=2
	;DEBUG_VALUE: extr_alu:shift <- [DW_OP_plus_uconst 88, DW_OP_deref_size 8, DW_OP_constu 58, DW_OP_shr, DW_OP_LLVM_convert 64 7, DW_OP_LLVM_convert 32 7, DW_OP_constu 31, DW_OP_and, DW_OP_stack_value] $sp
	;DEBUG_VALUE: extr_alu:operand <- [DW_OP_plus_uconst 88] [$sp+0]
	;DEBUG_VALUE: extr_alu:val <- $x8
	;DEBUG_VALUE: val <- $x8
	;DEBUG_VALUE: i <- $w27
	;DEBUG_VALUE: emulate_AMX_EXTRX:dst_offset <- [DW_OP_plus_uconst 40] [$sp+0]
	;DEBUG_VALUE: emulate_AMX_EXTRX:dst <- [DW_OP_plus_uconst 24] [$sp+0]
	;DEBUG_VALUE: emulate_AMX_EXTRX:z_row <- $x22
	;DEBUG_VALUE: emulate_AMX_EXTRX:operand <- [DW_OP_plus_uconst 88] [$sp+0]
	;DEBUG_VALUE: emulate_AMX_EXTRX:z_step <- [DW_OP_plus_uconst 32] [$sp+0]
	;DEBUG_VALUE: emulate_AMX_EXTRX:stride <- [DW_OP_plus_uconst 100] [$sp+0]
	.loc	4 24 13 is_stmt 1               ; extr.c:24:13
	fmov	d0, x8
	; InlineAsm Start
	fcvt	h0, s0
	; InlineAsm End
	fmov	x8, d0
Ltmp97:
	;DEBUG_VALUE: extr_alu:val <- $x8
LBB0_46:                                ;   in Loop: Header=BB0_47 Depth=2
	;DEBUG_VALUE: i <- $w27
	;DEBUG_VALUE: emulate_AMX_EXTRX:dst_offset <- [DW_OP_plus_uconst 40] [$sp+0]
	;DEBUG_VALUE: emulate_AMX_EXTRX:dst <- [DW_OP_plus_uconst 24] [$sp+0]
	;DEBUG_VALUE: emulate_AMX_EXTRX:z_row <- $x22
	;DEBUG_VALUE: emulate_AMX_EXTRX:operand <- [DW_OP_plus_uconst 88] [$sp+0]
	;DEBUG_VALUE: emulate_AMX_EXTRX:z_step <- [DW_OP_plus_uconst 32] [$sp+0]
	;DEBUG_VALUE: emulate_AMX_EXTRX:stride <- [DW_OP_plus_uconst 100] [$sp+0]
	;DEBUG_VALUE: val <- $x8
	.loc	4 106 30                        ; extr.c:106:30
	add	x9, sp, #112
	add	x0, x9, w27, uxtw
	;DEBUG_VALUE: store_int:val <- $x8
Ltmp98:
	;DEBUG_VALUE: store_int:nbytes <- undef
	.loc	4 0 30 is_stmt 0                ; extr.c:0:30
	str	x8, [sp, #104]
Ltmp99:
	;DEBUG_VALUE: store_int:val <- [DW_OP_plus_uconst 104, DW_OP_deref] $sp
	;DEBUG_VALUE: store_int:dst <- $x0
	.loc	5 38 5 is_stmt 1                ; ./emulate.h:38:5
	add	x1, sp, #104
	mov	x2, x21
	bl	_memcpy
Ltmp100:
	.loc	4 102 40                        ; extr.c:102:40
	add	w27, w27, w21
Ltmp101:
	;DEBUG_VALUE: i <- $w27
	.loc	4 102 9 is_stmt 0               ; extr.c:102:9
	cmp	w27, #64
	mov	x0, x23
	b.hs	LBB0_55
Ltmp102:
LBB0_47:                                ;   Parent Loop BB0_44 Depth=1
                                        ; =>  This Inner Loop Header: Depth=2
	;DEBUG_VALUE: emulate_AMX_EXTRX:dst_offset <- [DW_OP_plus_uconst 40] [$sp+0]
	;DEBUG_VALUE: emulate_AMX_EXTRX:dst <- [DW_OP_plus_uconst 24] [$sp+0]
	;DEBUG_VALUE: emulate_AMX_EXTRX:z_row <- $x22
	;DEBUG_VALUE: emulate_AMX_EXTRX:operand <- [DW_OP_plus_uconst 88] [$sp+0]
	;DEBUG_VALUE: emulate_AMX_EXTRX:z_step <- [DW_OP_plus_uconst 32] [$sp+0]
	;DEBUG_VALUE: emulate_AMX_EXTRX:stride <- [DW_OP_plus_uconst 100] [$sp+0]
	;DEBUG_VALUE: i <- $w27
	.loc	4 103 32 is_stmt 1              ; extr.c:103:32
	and	w8, w27, w19
	.loc	4 103 48 is_stmt 0              ; extr.c:103:48
	udiv	w8, w8, w21
Ltmp103:
	;DEBUG_VALUE: zoff <- undef
	.loc	4 104 46 is_stmt 1              ; extr.c:104:46
	madd	w8, w8, w28, w22
	and	x8, x8, x19
	orr	x8, x8, x26
	mov	x23, x0
	.loc	4 104 37 is_stmt 0              ; extr.c:104:37
	add	x8, x0, x8, lsl #6
	.loc	4 104 96                        ; extr.c:104:96
	and	w9, w27, w25
	.loc	4 104 37                        ; extr.c:104:37
	add	x8, x8, x9
	add	x1, x8, #1024
Ltmp104:
	;DEBUG_VALUE: load_int:val <- 0
	;DEBUG_VALUE: load_int:signext <- undef
	;DEBUG_VALUE: load_int:nbytes <- undef
	;DEBUG_VALUE: load_int:src <- $x1
	.loc	5 32 13 is_stmt 1               ; ./emulate.h:32:13
	str	xzr, [sp, #104]
Ltmp105:
	;DEBUG_VALUE: load_int:val <- [DW_OP_plus_uconst 104, DW_OP_deref] $sp
	.loc	5 33 5                          ; ./emulate.h:33:5
	add	x0, sp, #104
Ltmp106:
	;DEBUG_VALUE: emulate_AMX_EXTRX:state <- [DW_OP_LLVM_entry_value 1] $x0
	mov	x2, x20
	mov	w3, #8
	bl	___memcpy_chk
Ltmp107:
	.loc	5 34 13                         ; ./emulate.h:34:13
	ldr	x8, [sp, #104]
Ltmp108:
	;DEBUG_VALUE: load_int:val <- $x8
	.loc	5 34 17 is_stmt 0               ; ./emulate.h:34:17
	lsl	x8, x8, x24
Ltmp109:
	.loc	5 34 29                         ; ./emulate.h:34:29
	asr	x8, x8, x24
Ltmp110:
	;DEBUG_VALUE: val <- $x8
	.loc	4 105 17 is_stmt 1              ; extr.c:105:17
	cbz	w28, LBB0_46
Ltmp111:
; %bb.48:                               ;   in Loop: Header=BB0_47 Depth=2
	;DEBUG_VALUE: val <- $x8
	;DEBUG_VALUE: i <- $w27
	;DEBUG_VALUE: emulate_AMX_EXTRX:dst_offset <- [DW_OP_plus_uconst 40] [$sp+0]
	;DEBUG_VALUE: emulate_AMX_EXTRX:dst <- [DW_OP_plus_uconst 24] [$sp+0]
	;DEBUG_VALUE: emulate_AMX_EXTRX:z_row <- $x22
	;DEBUG_VALUE: emulate_AMX_EXTRX:operand <- [DW_OP_plus_uconst 88] [$sp+0]
	;DEBUG_VALUE: emulate_AMX_EXTRX:z_step <- [DW_OP_plus_uconst 32] [$sp+0]
	;DEBUG_VALUE: emulate_AMX_EXTRX:stride <- [DW_OP_plus_uconst 100] [$sp+0]
	;DEBUG_VALUE: extr_alu:val <- $x8
	;DEBUG_VALUE: extr_alu:operand <- [DW_OP_plus_uconst 88] [$sp+0]
	;DEBUG_VALUE: extr_alu:outbits <- [DW_OP_constu 3, DW_OP_shl, DW_OP_stack_value] undef
	;DEBUG_VALUE: extr_alu:shift <- [DW_OP_plus_uconst 88, DW_OP_deref_size 8, DW_OP_constu 58, DW_OP_shr, DW_OP_LLVM_convert 64 7, DW_OP_LLVM_convert 32 7, DW_OP_constu 31, DW_OP_and, DW_OP_stack_value] $sp
	.loc	4 0 17 is_stmt 0                ; extr.c:0:17
	ldr	x9, [sp, #88]                   ; 8-byte Folded Reload
Ltmp112:
	.loc	4 20 9 is_stmt 1                ; extr.c:20:9
	tbnz	x9, #63, LBB0_52
Ltmp113:
; %bb.49:                               ;   in Loop: Header=BB0_47 Depth=2
	;DEBUG_VALUE: extr_alu:shift <- [DW_OP_plus_uconst 88, DW_OP_deref_size 8, DW_OP_constu 58, DW_OP_shr, DW_OP_LLVM_convert 64 7, DW_OP_LLVM_convert 32 7, DW_OP_constu 31, DW_OP_and, DW_OP_stack_value] $sp
	;DEBUG_VALUE: extr_alu:operand <- [DW_OP_plus_uconst 88] [$sp+0]
	;DEBUG_VALUE: extr_alu:val <- $x8
	;DEBUG_VALUE: val <- $x8
	;DEBUG_VALUE: i <- $w27
	;DEBUG_VALUE: emulate_AMX_EXTRX:dst_offset <- [DW_OP_plus_uconst 40] [$sp+0]
	;DEBUG_VALUE: emulate_AMX_EXTRX:dst <- [DW_OP_plus_uconst 24] [$sp+0]
	;DEBUG_VALUE: emulate_AMX_EXTRX:z_row <- $x22
	;DEBUG_VALUE: emulate_AMX_EXTRX:operand <- [DW_OP_plus_uconst 88] [$sp+0]
	;DEBUG_VALUE: emulate_AMX_EXTRX:z_step <- [DW_OP_plus_uconst 32] [$sp+0]
	;DEBUG_VALUE: emulate_AMX_EXTRX:stride <- [DW_OP_plus_uconst 100] [$sp+0]
	.loc	4 0 9 is_stmt 0                 ; extr.c:0:9
	ldr	x10, [sp, #72]                  ; 8-byte Folded Reload
Ltmp114:
	.loc	4 28 15 is_stmt 1               ; extr.c:28:15
	add	x8, x8, x10
Ltmp115:
	;DEBUG_VALUE: extr_alu:val <- $x8
	.loc	4 0 15 is_stmt 0                ; extr.c:0:15
	ldr	x10, [sp, #80]                  ; 8-byte Folded Reload
Ltmp116:
	.loc	4 31 9 is_stmt 1                ; extr.c:31:9
	asr	x8, x8, x10
Ltmp117:
	;DEBUG_VALUE: extr_alu:val <- $x8
	.loc	4 32 9                          ; extr.c:32:9
	tbz	x9, #55, LBB0_46
Ltmp118:
; %bb.50:                               ;   in Loop: Header=BB0_47 Depth=2
	;DEBUG_VALUE: extr_alu:shift <- [DW_OP_plus_uconst 88, DW_OP_deref_size 8, DW_OP_constu 58, DW_OP_shr, DW_OP_LLVM_convert 64 7, DW_OP_LLVM_convert 32 7, DW_OP_constu 31, DW_OP_and, DW_OP_stack_value] $sp
	;DEBUG_VALUE: extr_alu:operand <- [DW_OP_plus_uconst 88] [$sp+0]
	;DEBUG_VALUE: extr_alu:val <- $x8
	;DEBUG_VALUE: i <- $w27
	;DEBUG_VALUE: emulate_AMX_EXTRX:dst_offset <- [DW_OP_plus_uconst 40] [$sp+0]
	;DEBUG_VALUE: emulate_AMX_EXTRX:dst <- [DW_OP_plus_uconst 24] [$sp+0]
	;DEBUG_VALUE: emulate_AMX_EXTRX:z_row <- $x22
	;DEBUG_VALUE: emulate_AMX_EXTRX:operand <- [DW_OP_plus_uconst 88] [$sp+0]
	;DEBUG_VALUE: emulate_AMX_EXTRX:z_step <- [DW_OP_plus_uconst 32] [$sp+0]
	;DEBUG_VALUE: emulate_AMX_EXTRX:stride <- [DW_OP_plus_uconst 100] [$sp+0]
	;DEBUG_VALUE: extr_alu:outbits <- undef
	;DEBUG_VALUE: hi <- [DW_OP_plus_uconst 64] [$sp+0]
	.loc	4 0 9 is_stmt 0                 ; extr.c:0:9
	ldr	x9, [sp, #88]                   ; 8-byte Folded Reload
Ltmp119:
	.loc	4 35 13 is_stmt 1               ; extr.c:35:13
	tbnz	x9, #57, LBB0_54
Ltmp120:
; %bb.51:                               ;   in Loop: Header=BB0_47 Depth=2
	;DEBUG_VALUE: hi <- [DW_OP_plus_uconst 64] [$sp+0]
	;DEBUG_VALUE: extr_alu:shift <- [DW_OP_plus_uconst 88, DW_OP_deref_size 8, DW_OP_constu 58, DW_OP_shr, DW_OP_LLVM_convert 64 7, DW_OP_LLVM_convert 32 7, DW_OP_constu 31, DW_OP_and, DW_OP_stack_value] $sp
	;DEBUG_VALUE: extr_alu:operand <- [DW_OP_plus_uconst 88] [$sp+0]
	;DEBUG_VALUE: extr_alu:val <- $x8
	;DEBUG_VALUE: i <- $w27
	;DEBUG_VALUE: emulate_AMX_EXTRX:dst_offset <- [DW_OP_plus_uconst 40] [$sp+0]
	;DEBUG_VALUE: emulate_AMX_EXTRX:dst <- [DW_OP_plus_uconst 24] [$sp+0]
	;DEBUG_VALUE: emulate_AMX_EXTRX:z_row <- $x22
	;DEBUG_VALUE: emulate_AMX_EXTRX:operand <- [DW_OP_plus_uconst 88] [$sp+0]
	;DEBUG_VALUE: emulate_AMX_EXTRX:z_step <- [DW_OP_plus_uconst 32] [$sp+0]
	;DEBUG_VALUE: emulate_AMX_EXTRX:stride <- [DW_OP_plus_uconst 100] [$sp+0]
	.loc	4 0 13 is_stmt 0                ; extr.c:0:13
	ldr	x9, [sp, #64]                   ; 8-byte Folded Reload
Ltmp121:
	.loc	4 40 17 is_stmt 1               ; extr.c:40:17
	cmp	x8, x9
	ldr	x9, [sp, #56]                   ; 8-byte Folded Reload
	csel	x8, x8, x9, lo
Ltmp122:
	.loc	4 0 17 is_stmt 0                ; extr.c:0:17
	b	LBB0_46
Ltmp123:
LBB0_52:                                ;   in Loop: Header=BB0_47 Depth=2
	;DEBUG_VALUE: extr_alu:shift <- [DW_OP_plus_uconst 88, DW_OP_deref_size 8, DW_OP_constu 58, DW_OP_shr, DW_OP_LLVM_convert 64 7, DW_OP_LLVM_convert 32 7, DW_OP_constu 31, DW_OP_and, DW_OP_stack_value] $sp
	;DEBUG_VALUE: extr_alu:operand <- [DW_OP_plus_uconst 88] [$sp+0]
	;DEBUG_VALUE: extr_alu:val <- $x8
	;DEBUG_VALUE: val <- $x8
	;DEBUG_VALUE: i <- $w27
	;DEBUG_VALUE: emulate_AMX_EXTRX:dst_offset <- [DW_OP_plus_uconst 40] [$sp+0]
	;DEBUG_VALUE: emulate_AMX_EXTRX:dst <- [DW_OP_plus_uconst 24] [$sp+0]
	;DEBUG_VALUE: emulate_AMX_EXTRX:z_row <- $x22
	;DEBUG_VALUE: emulate_AMX_EXTRX:operand <- [DW_OP_plus_uconst 88] [$sp+0]
	;DEBUG_VALUE: emulate_AMX_EXTRX:z_step <- [DW_OP_plus_uconst 32] [$sp+0]
	;DEBUG_VALUE: emulate_AMX_EXTRX:stride <- [DW_OP_plus_uconst 100] [$sp+0]
	ldr	x9, [sp, #80]                   ; 8-byte Folded Reload
Ltmp124:
	.loc	4 21 13 is_stmt 1               ; extr.c:21:13
	cmp	w9, #16
	b.lo	LBB0_45
Ltmp125:
; %bb.53:                               ;   in Loop: Header=BB0_47 Depth=2
	;DEBUG_VALUE: extr_alu:shift <- [DW_OP_plus_uconst 88, DW_OP_deref_size 8, DW_OP_constu 58, DW_OP_shr, DW_OP_LLVM_convert 64 7, DW_OP_LLVM_convert 32 7, DW_OP_constu 31, DW_OP_and, DW_OP_stack_value] $sp
	;DEBUG_VALUE: extr_alu:operand <- [DW_OP_plus_uconst 88] [$sp+0]
	;DEBUG_VALUE: extr_alu:val <- $x8
	;DEBUG_VALUE: val <- $x8
	;DEBUG_VALUE: i <- $w27
	;DEBUG_VALUE: emulate_AMX_EXTRX:dst_offset <- [DW_OP_plus_uconst 40] [$sp+0]
	;DEBUG_VALUE: emulate_AMX_EXTRX:dst <- [DW_OP_plus_uconst 24] [$sp+0]
	;DEBUG_VALUE: emulate_AMX_EXTRX:z_row <- $x22
	;DEBUG_VALUE: emulate_AMX_EXTRX:operand <- [DW_OP_plus_uconst 88] [$sp+0]
	;DEBUG_VALUE: emulate_AMX_EXTRX:z_step <- [DW_OP_plus_uconst 32] [$sp+0]
	;DEBUG_VALUE: emulate_AMX_EXTRX:stride <- [DW_OP_plus_uconst 100] [$sp+0]
	;DEBUG_VALUE: bf16_from_f32:f <- $w8
	.loc	4 12 12                         ; extr.c:12:12
	and	w9, w8, #0x7fffffff
Ltmp126:
	;DEBUG_VALUE: bf16_from_f32:low <- undef
	.loc	4 14 7                          ; extr.c:14:7
	lsr	w10, w8, #16
Ltmp127:
	;DEBUG_VALUE: bf16_from_f32:f <- $w10
	.loc	4 15 26                         ; extr.c:15:26
	ubfx	w11, w8, #16, #1
	.loc	4 15 21 is_stmt 0               ; extr.c:15:21
	add	w8, w11, w8, uxth
Ltmp128:
	.loc	4 15 31                         ; extr.c:15:31
	cmp	w8, #8, lsl #12                 ; =32768
	.loc	4 15 14                         ; extr.c:15:14
	cinc	w8, w10, hi
	.loc	4 12 9 is_stmt 1                ; extr.c:12:9
	mov	w10, #2139095040
Ltmp129:
	cmp	w9, w10
	mov	w9, #32704
	csel	x8, x9, x8, hi
	b	LBB0_46
Ltmp130:
LBB0_54:                                ;   in Loop: Header=BB0_47 Depth=2
	;DEBUG_VALUE: hi <- [DW_OP_plus_uconst 64] [$sp+0]
	;DEBUG_VALUE: extr_alu:shift <- [DW_OP_plus_uconst 88, DW_OP_deref_size 8, DW_OP_constu 58, DW_OP_shr, DW_OP_LLVM_convert 64 7, DW_OP_LLVM_convert 32 7, DW_OP_constu 31, DW_OP_and, DW_OP_stack_value] $sp
	;DEBUG_VALUE: extr_alu:operand <- [DW_OP_plus_uconst 88] [$sp+0]
	;DEBUG_VALUE: extr_alu:val <- $x8
	;DEBUG_VALUE: i <- $w27
	;DEBUG_VALUE: emulate_AMX_EXTRX:dst_offset <- [DW_OP_plus_uconst 40] [$sp+0]
	;DEBUG_VALUE: emulate_AMX_EXTRX:dst <- [DW_OP_plus_uconst 24] [$sp+0]
	;DEBUG_VALUE: emulate_AMX_EXTRX:z_row <- $x22
	;DEBUG_VALUE: emulate_AMX_EXTRX:operand <- [DW_OP_plus_uconst 88] [$sp+0]
	;DEBUG_VALUE: emulate_AMX_EXTRX:z_step <- [DW_OP_plus_uconst 32] [$sp+0]
	;DEBUG_VALUE: emulate_AMX_EXTRX:stride <- [DW_OP_plus_uconst 100] [$sp+0]
	;DEBUG_VALUE: lo <- [DW_OP_plus_uconst 48] [$sp+0]
	.loc	4 0 9 is_stmt 0                 ; extr.c:0:9
	ldr	x9, [sp, #48]                   ; 8-byte Folded Reload
Ltmp131:
	.loc	4 37 17 is_stmt 1               ; extr.c:37:17
	cmp	x8, x9
	csel	x8, x8, x9, gt
Ltmp132:
	;DEBUG_VALUE: extr_alu:val <- $x8
	.loc	4 0 17 is_stmt 0                ; extr.c:0:17
	ldr	x9, [sp, #64]                   ; 8-byte Folded Reload
	.loc	4 38 17 is_stmt 1               ; extr.c:38:17
	cmp	x8, x9
	ldr	x9, [sp, #56]                   ; 8-byte Folded Reload
	csel	x8, x8, x9, lt
Ltmp133:
	;DEBUG_VALUE: extr_alu:val <- $x8
	.loc	4 0 17 is_stmt 0                ; extr.c:0:17
	b	LBB0_46
Ltmp134:
LBB0_55:                                ;   in Loop: Header=BB0_44 Depth=1
	;DEBUG_VALUE: emulate_AMX_EXTRX:dst_offset <- [DW_OP_plus_uconst 40] [$sp+0]
	;DEBUG_VALUE: emulate_AMX_EXTRX:dst <- [DW_OP_plus_uconst 24] [$sp+0]
	;DEBUG_VALUE: emulate_AMX_EXTRX:z_row <- $x22
	;DEBUG_VALUE: emulate_AMX_EXTRX:operand <- [DW_OP_plus_uconst 88] [$sp+0]
	;DEBUG_VALUE: emulate_AMX_EXTRX:z_step <- [DW_OP_plus_uconst 32] [$sp+0]
	;DEBUG_VALUE: emulate_AMX_EXTRX:stride <- [DW_OP_plus_uconst 100] [$sp+0]
	ldr	x8, [sp, #8]                    ; 8-byte Folded Reload
Ltmp135:
	.loc	4 108 33 is_stmt 1              ; extr.c:108:33
	mov	x9, #67108864
	movk	x9, #3, lsl #32
	cmp	x8, x9
	b.ne	LBB0_57
Ltmp136:
; %bb.56:                               ;   in Loop: Header=BB0_44 Depth=1
	;DEBUG_VALUE: emulate_AMX_EXTRX:dst_offset <- [DW_OP_plus_uconst 40] [$sp+0]
	;DEBUG_VALUE: emulate_AMX_EXTRX:dst <- [DW_OP_plus_uconst 24] [$sp+0]
	;DEBUG_VALUE: emulate_AMX_EXTRX:z_row <- $x22
	;DEBUG_VALUE: emulate_AMX_EXTRX:operand <- [DW_OP_plus_uconst 88] [$sp+0]
	;DEBUG_VALUE: emulate_AMX_EXTRX:z_step <- [DW_OP_plus_uconst 32] [$sp+0]
	;DEBUG_VALUE: emulate_AMX_EXTRX:stride <- [DW_OP_plus_uconst 100] [$sp+0]
	.loc	4 0 33 is_stmt 0                ; extr.c:0:33
	movi.2d	v0, #0000000000000000
Ltmp137:
	.loc	4 109 13 is_stmt 1              ; extr.c:109:13
	stp	q0, q0, [sp, #144]
	stp	q0, q0, [sp, #112]
Ltmp138:
LBB0_57:                                ;   in Loop: Header=BB0_44 Depth=1
	;DEBUG_VALUE: emulate_AMX_EXTRX:dst_offset <- [DW_OP_plus_uconst 40] [$sp+0]
	;DEBUG_VALUE: emulate_AMX_EXTRX:dst <- [DW_OP_plus_uconst 24] [$sp+0]
	;DEBUG_VALUE: emulate_AMX_EXTRX:z_row <- $x22
	;DEBUG_VALUE: emulate_AMX_EXTRX:operand <- [DW_OP_plus_uconst 88] [$sp+0]
	;DEBUG_VALUE: emulate_AMX_EXTRX:z_step <- [DW_OP_plus_uconst 32] [$sp+0]
	;DEBUG_VALUE: emulate_AMX_EXTRX:stride <- [DW_OP_plus_uconst 100] [$sp+0]
	.loc	4 0 13 is_stmt 0                ; extr.c:0:13
	mov	x8, #0
	ldp	x2, x16, [sp, #16]              ; 16-byte Folded Reload
	ldr	x17, [sp, #40]                  ; 8-byte Folded Reload
	b	LBB0_59
Ltmp139:
LBB0_58:                                ;   in Loop: Header=BB0_59 Depth=2
	;DEBUG_VALUE: i <- $x8
	;DEBUG_VALUE: emulate_AMX_EXTRX:dst_offset <- [DW_OP_plus_uconst 40] [$sp+0]
	;DEBUG_VALUE: emulate_AMX_EXTRX:dst <- [DW_OP_plus_uconst 24] [$sp+0]
	;DEBUG_VALUE: emulate_AMX_EXTRX:z_row <- $x22
	;DEBUG_VALUE: emulate_AMX_EXTRX:operand <- [DW_OP_plus_uconst 88] [$sp+0]
	;DEBUG_VALUE: emulate_AMX_EXTRX:z_step <- [DW_OP_plus_uconst 32] [$sp+0]
	;DEBUG_VALUE: emulate_AMX_EXTRX:stride <- [DW_OP_plus_uconst 100] [$sp+0]
	.loc	4 47 34 is_stmt 1               ; extr.c:47:34
	add	x8, x8, #1
Ltmp140:
	;DEBUG_VALUE: i <- $x8
	.loc	4 47 5 is_stmt 0                ; extr.c:47:5
	cmp	x8, #64
	b.eq	LBB0_43
Ltmp141:
LBB0_59:                                ;   Parent Loop BB0_44 Depth=1
                                        ; =>  This Inner Loop Header: Depth=2
	;DEBUG_VALUE: emulate_AMX_EXTRX:dst_offset <- [DW_OP_plus_uconst 40] [$sp+0]
	;DEBUG_VALUE: emulate_AMX_EXTRX:dst <- [DW_OP_plus_uconst 24] [$sp+0]
	;DEBUG_VALUE: emulate_AMX_EXTRX:z_row <- $x22
	;DEBUG_VALUE: emulate_AMX_EXTRX:operand <- [DW_OP_plus_uconst 88] [$sp+0]
	;DEBUG_VALUE: emulate_AMX_EXTRX:z_step <- [DW_OP_plus_uconst 32] [$sp+0]
	;DEBUG_VALUE: emulate_AMX_EXTRX:stride <- [DW_OP_plus_uconst 100] [$sp+0]
	;DEBUG_VALUE: i <- $x8
	.loc	4 48 13 is_stmt 1               ; extr.c:48:13
	lsr	x9, x2, x8
	tbz	w9, #0, LBB0_58
Ltmp142:
; %bb.60:                               ;   in Loop: Header=BB0_59 Depth=2
	;DEBUG_VALUE: i <- $x8
	;DEBUG_VALUE: emulate_AMX_EXTRX:dst_offset <- [DW_OP_plus_uconst 40] [$sp+0]
	;DEBUG_VALUE: emulate_AMX_EXTRX:dst <- [DW_OP_plus_uconst 24] [$sp+0]
	;DEBUG_VALUE: emulate_AMX_EXTRX:z_row <- $x22
	;DEBUG_VALUE: emulate_AMX_EXTRX:operand <- [DW_OP_plus_uconst 88] [$sp+0]
	;DEBUG_VALUE: emulate_AMX_EXTRX:z_step <- [DW_OP_plus_uconst 32] [$sp+0]
	;DEBUG_VALUE: emulate_AMX_EXTRX:stride <- [DW_OP_plus_uconst 100] [$sp+0]
	.loc	4 49 49                         ; extr.c:49:49
	add	x9, sp, #112
	ldrb	w9, [x9, x8]
	.loc	4 49 38 is_stmt 0               ; extr.c:49:38
	add	w10, w17, w8
	and	x10, x10, #0x1ff
	.loc	4 49 47                         ; extr.c:49:47
	strb	w9, [x16, x10]
	b	LBB0_58
Ltmp143:
LBB0_61:
	;DEBUG_VALUE: parse_writemask:val <- $w10
	;DEBUG_VALUE: parse_writemask:all <- -1
	;DEBUG_VALUE: parse_writemask:mode <- $w11
	;DEBUG_VALUE: parse_writemask:g <- $w9
	;DEBUG_VALUE: parse_writemask:maskbits <- 9
	;DEBUG_VALUE: emulate_AMX_EXTRX:z_step <- [DW_OP_plus_uconst 32] [$sp+0]
	;DEBUG_VALUE: emulate_AMX_EXTRX:zbytes <- $w8
	;DEBUG_VALUE: emulate_AMX_EXTRX:xybytes <- $w9
	;DEBUG_VALUE: emulate_AMX_EXTRX:stride <- [DW_OP_plus_uconst 100] [$sp+0]
	;DEBUG_VALUE: emulate_AMX_EXTRX:dst <- $x16
	;DEBUG_VALUE: emulate_AMX_EXTRX:dst_offset <- $x1
	;DEBUG_VALUE: emulate_AMX_EXTRX:store_enable <- -1
	;DEBUG_VALUE: emulate_AMX_EXTRX:state <- $x0
	.loc	4 0 47                          ; extr.c:0:47
	mov	x2, #-1
	b	LBB0_41
Ltmp144:
LBB0_62:
	;DEBUG_VALUE: emulate_AMX_EXTRX:dst <- $x16
	;DEBUG_VALUE: emulate_AMX_EXTRX:dst_offset <- $x1
	;DEBUG_VALUE: emulate_AMX_EXTRX:z_step <- 64
	;DEBUG_VALUE: emulate_AMX_EXTRX:store_enable <- -1
	;DEBUG_VALUE: emulate_AMX_EXTRX:stride <- 0
	;DEBUG_VALUE: emulate_AMX_EXTRX:operand <- $x1
	;DEBUG_VALUE: emulate_AMX_EXTRX:state <- $x0
	;DEBUG_VALUE: emulate_AMX_EXTRX:xybytes <- 2
	.loc	4 75 35 is_stmt 1               ; extr.c:75:35
	ldr	w8, [x10]
	mov	w9, #2
	mov	w11, #4
	.loc	4 75 43 is_stmt 0               ; extr.c:75:43
	cmp	w8, #1
	csel	w8, w11, w9, hi
	cset	w11, hi
	str	w11, [sp, #100]                 ; 4-byte Folded Spill
	b	LBB0_28
Ltmp145:
LBB0_63:
	;DEBUG_VALUE: emulate_AMX_EXTRX:dst <- $x16
	;DEBUG_VALUE: emulate_AMX_EXTRX:dst_offset <- $x1
	;DEBUG_VALUE: emulate_AMX_EXTRX:z_step <- 64
	;DEBUG_VALUE: emulate_AMX_EXTRX:store_enable <- -1
	;DEBUG_VALUE: emulate_AMX_EXTRX:stride <- 0
	;DEBUG_VALUE: emulate_AMX_EXTRX:operand <- $x1
	;DEBUG_VALUE: emulate_AMX_EXTRX:state <- $x0
	;DEBUG_VALUE: emulate_AMX_EXTRX:xybytes <- 2
	.loc	4 76 35 is_stmt 1               ; extr.c:76:35
	ldr	w8, [x10]
	mov	w9, #2
	mov	w11, #4
	cmp	w8, #1
	csel	w8, w11, w9, hi
	cset	w11, hi
	lsl	w11, w11, #1
	str	w11, [sp, #100]                 ; 4-byte Folded Spill
	b	LBB0_28
Ltmp146:
LBB0_64:
	.loc	4 0 35 is_stmt 0                ; extr.c:0:35
	bl	___stack_chk_fail
Ltmp147:
	.loh AdrpLdrGotLdr	Lloh0, Lloh1, Lloh2
	.loh AdrpAdd	Lloh3, Lloh4
	.loh AdrpLdrGot	Lloh5, Lloh6
	.loh AdrpAdd	Lloh7, Lloh8
	.loh AdrpLdrGotLdr	Lloh9, Lloh10, Lloh11
	.loh AdrpAdd	Lloh12, Lloh13
Lfunc_end0:
	.cfi_endproc
	.p2align	2
lJTI0_0:
	.long	LBB0_28-Ltmp23
	.long	LBB0_20-Ltmp23
	.long	LBB0_20-Ltmp23
	.long	LBB0_20-Ltmp23
	.long	LBB0_20-Ltmp23
	.long	LBB0_20-Ltmp23
	.long	LBB0_20-Ltmp23
	.long	LBB0_20-Ltmp23
	.long	LBB0_9-Ltmp23
	.long	LBB0_21-Ltmp23
	.long	LBB0_22-Ltmp23
	.long	LBB0_23-Ltmp23
	.long	LBB0_20-Ltmp23
	.long	LBB0_24-Ltmp23
	.long	LBB0_20-Ltmp23
	.long	LBB0_20-Ltmp23
	.long	LBB0_20-Ltmp23
	.long	LBB0_26-Ltmp23
	.long	LBB0_20-Ltmp23
	.long	LBB0_20-Ltmp23
	.long	LBB0_20-Ltmp23
	.long	LBB0_20-Ltmp23
	.long	LBB0_20-Ltmp23
	.long	LBB0_20-Ltmp23
	.long	LBB0_9-Ltmp23
	.long	LBB0_62-Ltmp23
	.long	LBB0_63-Ltmp23
	.p2align	2
lJTI0_1:
	.long	LBB0_30-Ltmp62
	.long	LBB0_35-Ltmp62
	.long	LBB0_36-Ltmp62
	.long	LBB0_38-Ltmp62
	.long	LBB0_37-Ltmp62
	.long	LBB0_39-Ltmp62
	.p2align	2
lJTI0_2:
	.long	LBB0_3-Ltmp10
	.long	LBB0_18-Ltmp10
	.long	LBB0_13-Ltmp10
	.long	LBB0_15-Ltmp10
	.file	6 "/Library/Developer/CommandLineTools/SDKs/MacOSX.sdk/usr/include/sys/_types" "_int64_t.h"
                                        ; -- End function
	.globl	_emulate_AMX_EXTRY              ; -- Begin function emulate_AMX_EXTRY
	.p2align	2
_emulate_AMX_EXTRY:                     ; @emulate_AMX_EXTRY
Lfunc_begin1:
	.loc	4 116 0 is_stmt 1               ; extr.c:116:0
	.cfi_startproc
; %bb.0:
	;DEBUG_VALUE: emulate_AMX_EXTRY:state <- $x0
	;DEBUG_VALUE: emulate_AMX_EXTRY:operand <- $x1
	sub	sp, sp, #288
	.cfi_def_cfa_offset 288
	stp	x28, x27, [sp, #192]            ; 16-byte Folded Spill
	stp	x26, x25, [sp, #208]            ; 16-byte Folded Spill
	stp	x24, x23, [sp, #224]            ; 16-byte Folded Spill
	stp	x22, x21, [sp, #240]            ; 16-byte Folded Spill
	stp	x20, x19, [sp, #256]            ; 16-byte Folded Spill
	stp	x29, x30, [sp, #272]            ; 16-byte Folded Spill
	add	x29, sp, #272
	.cfi_def_cfa w29, 16
	.cfi_offset w30, -8
	.cfi_offset w29, -16
	.cfi_offset w19, -24
	.cfi_offset w20, -32
	.cfi_offset w21, -40
	.cfi_offset w22, -48
	.cfi_offset w23, -56
	.cfi_offset w24, -64
	.cfi_offset w25, -72
	.cfi_offset w26, -80
	.cfi_offset w27, -88
	.cfi_offset w28, -96
Lloh14:
	adrp	x8, ___stack_chk_guard@GOTPAGE
Lloh15:
	ldr	x8, [x8, ___stack_chk_guard@GOTPAGEOFF]
Lloh16:
	ldr	x8, [x8]
	stur	x8, [x29, #-96]
Ltmp148:
	;DEBUG_VALUE: emulate_AMX_EXTRY:stride <- 0
	;DEBUG_VALUE: emulate_AMX_EXTRY:store_enable <- -1
	;DEBUG_VALUE: emulate_AMX_EXTRY:z_step <- 64
	;DEBUG_VALUE: emulate_AMX_EXTRY:z_col <- undef
	;DEBUG_VALUE: emulate_AMX_EXTRY:dst_offset <- $x1
	.loc	4 0 0 is_stmt 0                 ; extr.c:0:0
	add	x16, x0, #512
Ltmp149:
	.loc	4 126 9 prologue_end is_stmt 1  ; extr.c:126:9
	tbnz	w1, #26, LBB1_7
Ltmp150:
; %bb.1:
	;DEBUG_VALUE: emulate_AMX_EXTRY:dst_offset <- $x1
	;DEBUG_VALUE: emulate_AMX_EXTRY:z_step <- 64
	;DEBUG_VALUE: emulate_AMX_EXTRY:store_enable <- -1
	;DEBUG_VALUE: emulate_AMX_EXTRY:stride <- 0
	;DEBUG_VALUE: emulate_AMX_EXTRY:operand <- $x1
	;DEBUG_VALUE: emulate_AMX_EXTRY:state <- $x0
	.loc	4 146 16                        ; extr.c:146:16
	tbnz	w1, #27, LBB1_10
Ltmp151:
; %bb.2:
	;DEBUG_VALUE: emulate_AMX_EXTRY:dst_offset <- $x1
	;DEBUG_VALUE: emulate_AMX_EXTRY:z_step <- 64
	;DEBUG_VALUE: emulate_AMX_EXTRY:store_enable <- -1
	;DEBUG_VALUE: emulate_AMX_EXTRY:stride <- 0
	;DEBUG_VALUE: emulate_AMX_EXTRY:operand <- $x1
	;DEBUG_VALUE: emulate_AMX_EXTRY:state <- $x0
	;DEBUG_VALUE: emulate_AMX_EXTRY:dst <- $x16
	.loc	4 152 21                        ; extr.c:152:21
	ubfx	w8, w1, #28, #2
	mov	w9, #8
	lsr	w9, w9, w8
Ltmp152:
	;DEBUG_VALUE: emulate_AMX_EXTRY:xybytes <- $w9
	.loc	4 0 21 is_stmt 0                ; extr.c:0:21
	mov	x10, #6148914691236517205
	mov	w11, #2
	.loc	4 153 13 is_stmt 1              ; extr.c:153:13
	cmp	w8, #3
	csel	w8, w11, w9, eq
Ltmp153:
	;DEBUG_VALUE: emulate_AMX_EXTRY:xybytes <- $w8
	;DEBUG_VALUE: emulate_AMX_EXTRY:store_enable <- undef
	csinv	x9, x10, xzr, eq
	.loc	4 157 49                        ; extr.c:157:49
	lsr	x10, x1, #32
Ltmp154:
	;DEBUG_VALUE: parse_writemask:maskbits <- 7
	;DEBUG_VALUE: parse_writemask:val <- $w10
	;DEBUG_VALUE: parse_writemask:g <- $w8
	.loc	5 66 21                         ; ./emulate.h:66:21
	lsr	x11, x1, #37
	.loc	5 67 9                          ; ./emulate.h:67:9
	ands	w11, w11, #0x3
Ltmp155:
	;DEBUG_VALUE: parse_writemask:mode <- $w11
	csinc	w12, w8, wzr, ne
	mul	w12, w12, w10
Ltmp156:
	;DEBUG_VALUE: parse_writemask:val <- $w12
	.loc	5 68 9                          ; ./emulate.h:68:9
	and	w10, w12, #0x3f
Ltmp157:
	;DEBUG_VALUE: parse_writemask:all <- -1
	;DEBUG_VALUE: parse_writemask:val <- $w10
	.loc	5 0 9 is_stmt 0                 ; ./emulate.h:0:9
Lloh17:
	adrp	x13, lJTI1_2@PAGE
Lloh18:
	add	x13, x13, lJTI1_2@PAGEOFF
Ltmp158:
	adr	x14, Ltmp158
	ldrsw	x15, [x13, x11, lsl #2]
	add	x14, x14, x15
	br	x14
Ltmp159:
LBB1_3:
	;DEBUG_VALUE: parse_writemask:all <- -1
	;DEBUG_VALUE: parse_writemask:mode <- $w11
	;DEBUG_VALUE: parse_writemask:g <- $w8
	;DEBUG_VALUE: parse_writemask:val <- $w10
	;DEBUG_VALUE: parse_writemask:maskbits <- 7
	;DEBUG_VALUE: emulate_AMX_EXTRY:xybytes <- $w8
	;DEBUG_VALUE: emulate_AMX_EXTRY:dst <- $x16
	;DEBUG_VALUE: emulate_AMX_EXTRY:dst_offset <- $x1
	;DEBUG_VALUE: emulate_AMX_EXTRY:z_step <- 64
	;DEBUG_VALUE: emulate_AMX_EXTRY:stride <- 0
	;DEBUG_VALUE: emulate_AMX_EXTRY:operand <- $x1
	;DEBUG_VALUE: emulate_AMX_EXTRY:state <- $x0
	.loc	5 72 22 is_stmt 1               ; ./emulate.h:72:22
	sub	w13, w10, #1
	mov	x11, #-1
Ltmp160:
	cmp	w13, #1
	b.hi	LBB1_6
Ltmp161:
; %bb.4:
	;DEBUG_VALUE: parse_writemask:all <- -1
	;DEBUG_VALUE: parse_writemask:g <- $w8
	;DEBUG_VALUE: parse_writemask:val <- $w10
	;DEBUG_VALUE: parse_writemask:maskbits <- 7
	;DEBUG_VALUE: emulate_AMX_EXTRY:xybytes <- $w8
	;DEBUG_VALUE: emulate_AMX_EXTRY:dst <- $x16
	;DEBUG_VALUE: emulate_AMX_EXTRY:dst_offset <- $x1
	;DEBUG_VALUE: emulate_AMX_EXTRY:z_step <- 64
	;DEBUG_VALUE: emulate_AMX_EXTRY:stride <- 0
	;DEBUG_VALUE: emulate_AMX_EXTRY:operand <- $x1
	;DEBUG_VALUE: emulate_AMX_EXTRY:state <- $x0
	.loc	5 74 25                         ; ./emulate.h:74:25
	lsl	x11, x11, x8
	.loc	5 74 19 is_stmt 0               ; ./emulate.h:74:19
	mvn	x11, x11
	.loc	5 74 45                         ; ./emulate.h:74:45
	sbfx	w12, w12, #0, #1
	.loc	5 74 37                         ; ./emulate.h:74:37
	and	w12, w12, w8
	.loc	5 74 31                         ; ./emulate.h:74:31
	lsl	x11, x11, x12
Ltmp162:
	;DEBUG_VALUE: parse_writemask:all <- $x11
	;DEBUG_VALUE: parse_writemask:g <- [DW_OP_constu 1, DW_OP_shl, DW_OP_stack_value] $w8
	.loc	5 0 31                          ; ./emulate.h:0:31
	mov	x12, x8
Ltmp163:
LBB1_5:                                 ; =>This Inner Loop Header: Depth=1
	;DEBUG_VALUE: parse_writemask:all <- $x11
	;DEBUG_VALUE: parse_writemask:val <- $w10
	;DEBUG_VALUE: parse_writemask:maskbits <- 7
	;DEBUG_VALUE: emulate_AMX_EXTRY:xybytes <- $w8
	;DEBUG_VALUE: emulate_AMX_EXTRY:dst <- $x16
	;DEBUG_VALUE: emulate_AMX_EXTRY:dst_offset <- $x1
	;DEBUG_VALUE: emulate_AMX_EXTRY:z_step <- 64
	;DEBUG_VALUE: emulate_AMX_EXTRY:stride <- 0
	;DEBUG_VALUE: emulate_AMX_EXTRY:operand <- $x1
	;DEBUG_VALUE: emulate_AMX_EXTRY:state <- $x0
	.loc	5 75 23 is_stmt 1               ; ./emulate.h:75:23
	lsl	w13, w12, #1
	;DEBUG_VALUE: parse_writemask:all <- $x11
Ltmp164:
	.loc	5 76 28                         ; ./emulate.h:76:28
	lsl	x14, x11, x13
	.loc	5 76 21 is_stmt 0               ; ./emulate.h:76:21
	orr	x11, x14, x11
Ltmp165:
	;DEBUG_VALUE: parse_writemask:all <- $x11
	;DEBUG_VALUE: parse_writemask:g <- [DW_OP_constu 1, DW_OP_shl, DW_OP_stack_value] $w13
	.loc	5 75 13 is_stmt 1               ; ./emulate.h:75:13
	cmp	w12, #16
	mov	x12, x13
	b.lo	LBB1_5
Ltmp166:
LBB1_6:
	;DEBUG_VALUE: parse_writemask:val <- $w10
	;DEBUG_VALUE: parse_writemask:maskbits <- 7
	;DEBUG_VALUE: emulate_AMX_EXTRY:xybytes <- $w8
	;DEBUG_VALUE: emulate_AMX_EXTRY:dst <- $x16
	;DEBUG_VALUE: emulate_AMX_EXTRY:dst_offset <- $x1
	;DEBUG_VALUE: emulate_AMX_EXTRY:z_step <- 64
	;DEBUG_VALUE: emulate_AMX_EXTRY:stride <- 0
	;DEBUG_VALUE: emulate_AMX_EXTRY:operand <- $x1
	;DEBUG_VALUE: emulate_AMX_EXTRY:state <- $x0
	;DEBUG_VALUE: parse_writemask:all <- $x11
	.loc	5 83 16                         ; ./emulate.h:83:16
	cmp	w10, #3
	csel	x11, x11, xzr, lo
Ltmp167:
	.loc	5 0 16 is_stmt 0                ; ./emulate.h:0:16
	b	LBB1_19
Ltmp168:
LBB1_7:
	;DEBUG_VALUE: emulate_AMX_EXTRY:dst_offset <- $x1
	;DEBUG_VALUE: emulate_AMX_EXTRY:z_step <- 64
	;DEBUG_VALUE: emulate_AMX_EXTRY:store_enable <- -1
	;DEBUG_VALUE: emulate_AMX_EXTRY:stride <- 0
	;DEBUG_VALUE: emulate_AMX_EXTRY:operand <- $x1
	;DEBUG_VALUE: emulate_AMX_EXTRY:state <- $x0
	.loc	4 127 15 is_stmt 1              ; extr.c:127:15
	tst	x1, #0x400
	csel	x16, x0, x16, eq
Ltmp169:
	;DEBUG_VALUE: emulate_AMX_EXTRY:dst <- $x16
	.loc	4 128 34                        ; extr.c:128:34
	lsr	x8, x1, #59
	and	x9, x8, #0x10
	.loc	4 128 40 is_stmt 0              ; extr.c:128:40
	bfxil	x9, x1, #11, #4
Lloh19:
	adrp	x10, _AMX_VER@GOTPAGE
Lloh20:
	ldr	x10, [x10, _AMX_VER@GOTPAGEOFF]
	.loc	4 128 9                         ; extr.c:128:9
	cmp	x9, #26
	b.hi	LBB1_20
Ltmp170:
; %bb.8:
	;DEBUG_VALUE: emulate_AMX_EXTRY:dst <- $x16
	;DEBUG_VALUE: emulate_AMX_EXTRY:dst_offset <- $x1
	;DEBUG_VALUE: emulate_AMX_EXTRY:z_step <- 64
	;DEBUG_VALUE: emulate_AMX_EXTRY:store_enable <- -1
	;DEBUG_VALUE: emulate_AMX_EXTRY:stride <- 0
	;DEBUG_VALUE: emulate_AMX_EXTRY:operand <- $x1
	;DEBUG_VALUE: emulate_AMX_EXTRY:state <- $x0
	.loc	4 0 9                           ; extr.c:0:9
	str	wzr, [sp, #100]                 ; 4-byte Folded Spill
	mov	w8, #1
Lloh21:
	adrp	x11, lJTI1_0@PAGE
Lloh22:
	add	x11, x11, lJTI1_0@PAGEOFF
Ltmp171:
	adr	x12, Ltmp171
	ldrsw	x13, [x11, x9, lsl #2]
	add	x12, x12, x13
	mov	x9, x8
	br	x12
Ltmp172:
LBB1_9:
	;DEBUG_VALUE: emulate_AMX_EXTRY:dst <- $x16
	;DEBUG_VALUE: emulate_AMX_EXTRY:dst_offset <- $x1
	;DEBUG_VALUE: emulate_AMX_EXTRY:z_step <- 64
	;DEBUG_VALUE: emulate_AMX_EXTRY:store_enable <- -1
	;DEBUG_VALUE: emulate_AMX_EXTRY:stride <- 0
	;DEBUG_VALUE: emulate_AMX_EXTRY:operand <- $x1
	;DEBUG_VALUE: emulate_AMX_EXTRY:state <- $x0
	str	wzr, [sp, #100]                 ; 4-byte Folded Spill
	mov	w8, #4
Ltmp173:
	;DEBUG_VALUE: emulate_AMX_EXTRY:zbytes <- 4
	;DEBUG_VALUE: emulate_AMX_EXTRY:xybytes <- 4
	b	LBB1_27
Ltmp174:
LBB1_10:
	;DEBUG_VALUE: emulate_AMX_EXTRY:dst_offset <- $x1
	;DEBUG_VALUE: emulate_AMX_EXTRY:z_step <- 64
	;DEBUG_VALUE: emulate_AMX_EXTRY:store_enable <- -1
	;DEBUG_VALUE: emulate_AMX_EXTRY:stride <- 0
	;DEBUG_VALUE: emulate_AMX_EXTRY:operand <- $x1
	;DEBUG_VALUE: emulate_AMX_EXTRY:state <- $x0
	.loc	4 147 9 is_stmt 1               ; extr.c:147:9
	ubfx	x8, x1, #6, #3
	add	x8, x16, x8, lsl #6
	ubfx	x9, x1, #20, #3
	add	x9, x0, x9, lsl #6
	ldp	q0, q1, [x9]
	stp	q0, q1, [x8]
	ldp	q0, q1, [x9, #32]
	stp	q0, q1, [x8, #32]
Ltmp175:
LBB1_11:
	;DEBUG_VALUE: emulate_AMX_EXTRY:dst_offset <- $x1
	.loc	4 0 9 is_stmt 0                 ; extr.c:0:9
	ldur	x8, [x29, #-96]
Lloh23:
	adrp	x9, ___stack_chk_guard@GOTPAGE
Lloh24:
	ldr	x9, [x9, ___stack_chk_guard@GOTPAGEOFF]
Lloh25:
	ldr	x9, [x9]
	cmp	x9, x8
	b.ne	LBB1_63
Ltmp176:
; %bb.12:
	;DEBUG_VALUE: emulate_AMX_EXTRY:dst_offset <- $x1
	.loc	4 175 1 is_stmt 1               ; extr.c:175:1
	ldp	x29, x30, [sp, #272]            ; 16-byte Folded Reload
	ldp	x20, x19, [sp, #256]            ; 16-byte Folded Reload
	ldp	x22, x21, [sp, #240]            ; 16-byte Folded Reload
	ldp	x24, x23, [sp, #224]            ; 16-byte Folded Reload
	ldp	x26, x25, [sp, #208]            ; 16-byte Folded Reload
	ldp	x28, x27, [sp, #192]            ; 16-byte Folded Reload
	add	sp, sp, #288
	ret
Ltmp177:
LBB1_13:
	;DEBUG_VALUE: parse_writemask:all <- -1
	;DEBUG_VALUE: parse_writemask:mode <- $w11
	;DEBUG_VALUE: parse_writemask:g <- $w8
	;DEBUG_VALUE: parse_writemask:val <- $w10
	;DEBUG_VALUE: parse_writemask:maskbits <- 7
	;DEBUG_VALUE: emulate_AMX_EXTRY:xybytes <- $w8
	;DEBUG_VALUE: emulate_AMX_EXTRY:dst <- $x16
	;DEBUG_VALUE: emulate_AMX_EXTRY:dst_offset <- $x1
	;DEBUG_VALUE: emulate_AMX_EXTRY:z_step <- 64
	;DEBUG_VALUE: emulate_AMX_EXTRY:stride <- 0
	;DEBUG_VALUE: emulate_AMX_EXTRY:operand <- $x1
	;DEBUG_VALUE: emulate_AMX_EXTRY:state <- $x0
	.loc	4 0 1 is_stmt 0                 ; extr.c:0:1
	mov	x11, #-1
Ltmp178:
	.loc	5 88 13 is_stmt 1               ; ./emulate.h:88:13
	cbz	w10, LBB1_19
Ltmp179:
; %bb.14:
	;DEBUG_VALUE: parse_writemask:all <- -1
	;DEBUG_VALUE: parse_writemask:g <- $w8
	;DEBUG_VALUE: parse_writemask:val <- $w10
	;DEBUG_VALUE: parse_writemask:maskbits <- 7
	;DEBUG_VALUE: emulate_AMX_EXTRY:xybytes <- $w8
	;DEBUG_VALUE: emulate_AMX_EXTRY:dst <- $x16
	;DEBUG_VALUE: emulate_AMX_EXTRY:dst_offset <- $x1
	;DEBUG_VALUE: emulate_AMX_EXTRY:z_step <- 64
	;DEBUG_VALUE: emulate_AMX_EXTRY:stride <- 0
	;DEBUG_VALUE: emulate_AMX_EXTRY:operand <- $x1
	;DEBUG_VALUE: emulate_AMX_EXTRY:state <- $x0
	.loc	5 91 22                         ; ./emulate.h:91:22
	lsl	x10, x11, x10
Ltmp180:
	.loc	5 0 22 is_stmt 0                ; ./emulate.h:0:22
	b	LBB1_17
Ltmp181:
LBB1_15:
	;DEBUG_VALUE: parse_writemask:all <- -1
	;DEBUG_VALUE: parse_writemask:mode <- $w11
	;DEBUG_VALUE: parse_writemask:g <- $w8
	;DEBUG_VALUE: parse_writemask:val <- $w10
	;DEBUG_VALUE: parse_writemask:maskbits <- 7
	;DEBUG_VALUE: emulate_AMX_EXTRY:xybytes <- $w8
	;DEBUG_VALUE: emulate_AMX_EXTRY:dst <- $x16
	;DEBUG_VALUE: emulate_AMX_EXTRY:dst_offset <- $x1
	;DEBUG_VALUE: emulate_AMX_EXTRY:z_step <- 64
	;DEBUG_VALUE: emulate_AMX_EXTRY:stride <- 0
	;DEBUG_VALUE: emulate_AMX_EXTRY:operand <- $x1
	;DEBUG_VALUE: emulate_AMX_EXTRY:state <- $x0
	mov	x11, #-1
Ltmp182:
	.loc	5 93 13 is_stmt 1               ; ./emulate.h:93:13
	cbz	w10, LBB1_19
Ltmp183:
; %bb.16:
	;DEBUG_VALUE: parse_writemask:all <- -1
	;DEBUG_VALUE: parse_writemask:g <- $w8
	;DEBUG_VALUE: parse_writemask:val <- $w10
	;DEBUG_VALUE: parse_writemask:maskbits <- 7
	;DEBUG_VALUE: emulate_AMX_EXTRY:xybytes <- $w8
	;DEBUG_VALUE: emulate_AMX_EXTRY:dst <- $x16
	;DEBUG_VALUE: emulate_AMX_EXTRY:dst_offset <- $x1
	;DEBUG_VALUE: emulate_AMX_EXTRY:z_step <- 64
	;DEBUG_VALUE: emulate_AMX_EXTRY:stride <- 0
	;DEBUG_VALUE: emulate_AMX_EXTRY:operand <- $x1
	;DEBUG_VALUE: emulate_AMX_EXTRY:state <- $x0
	.loc	5 96 22                         ; ./emulate.h:96:22
	lsr	x10, x11, x10
Ltmp184:
LBB1_17:
	;DEBUG_VALUE: parse_writemask:all <- -1
	;DEBUG_VALUE: parse_writemask:g <- $w8
	;DEBUG_VALUE: parse_writemask:maskbits <- 7
	;DEBUG_VALUE: emulate_AMX_EXTRY:xybytes <- $w8
	;DEBUG_VALUE: emulate_AMX_EXTRY:dst <- $x16
	;DEBUG_VALUE: emulate_AMX_EXTRY:dst_offset <- $x1
	;DEBUG_VALUE: emulate_AMX_EXTRY:z_step <- 64
	;DEBUG_VALUE: emulate_AMX_EXTRY:stride <- 0
	;DEBUG_VALUE: emulate_AMX_EXTRY:operand <- $x1
	;DEBUG_VALUE: emulate_AMX_EXTRY:state <- $x0
	.loc	5 0 0 is_stmt 0                 ; ./emulate.h:0:0
	mvn	x11, x10
	b	LBB1_19
Ltmp185:
LBB1_18:
	;DEBUG_VALUE: parse_writemask:all <- -1
	;DEBUG_VALUE: parse_writemask:mode <- $w11
	;DEBUG_VALUE: parse_writemask:g <- $w8
	;DEBUG_VALUE: parse_writemask:val <- $w10
	;DEBUG_VALUE: parse_writemask:maskbits <- 7
	;DEBUG_VALUE: emulate_AMX_EXTRY:xybytes <- $w8
	;DEBUG_VALUE: emulate_AMX_EXTRY:dst <- $x16
	;DEBUG_VALUE: emulate_AMX_EXTRY:dst_offset <- $x1
	;DEBUG_VALUE: emulate_AMX_EXTRY:z_step <- 64
	;DEBUG_VALUE: emulate_AMX_EXTRY:stride <- 0
	;DEBUG_VALUE: emulate_AMX_EXTRY:operand <- $x1
	;DEBUG_VALUE: emulate_AMX_EXTRY:state <- $x0
	mov	x11, #-1
Ltmp186:
	.loc	5 86 23 is_stmt 1               ; ./emulate.h:86:23
	lsl	x11, x11, x8
	.loc	5 86 17 is_stmt 0               ; ./emulate.h:86:17
	mvn	x11, x11
	.loc	5 86 30                         ; ./emulate.h:86:30
	lsl	x11, x11, x10
Ltmp187:
LBB1_19:
	;DEBUG_VALUE: emulate_AMX_EXTRY:xybytes <- $w8
	;DEBUG_VALUE: emulate_AMX_EXTRY:dst <- $x16
	;DEBUG_VALUE: emulate_AMX_EXTRY:dst_offset <- $x1
	;DEBUG_VALUE: emulate_AMX_EXTRY:z_step <- 64
	;DEBUG_VALUE: emulate_AMX_EXTRY:stride <- 0
	;DEBUG_VALUE: emulate_AMX_EXTRY:operand <- $x1
	;DEBUG_VALUE: emulate_AMX_EXTRY:state <- $x0
	.loc	5 0 30                          ; ./emulate.h:0:30
	str	wzr, [sp, #100]                 ; 4-byte Folded Spill
	.loc	4 157 22 is_stmt 1              ; extr.c:157:22
	and	x17, x11, x9
Ltmp188:
	;DEBUG_VALUE: emulate_AMX_EXTRY:store_enable <- $x17
	.loc	4 0 22 is_stmt 0                ; extr.c:0:22
	mov	w9, #64
Ltmp189:
	;DEBUG_VALUE: emulate_AMX_EXTRY:zbytes <- $w8
	str	x9, [sp, #32]                   ; 8-byte Folded Spill
	mov	x9, x8
	str	x1, [sp, #88]                   ; 8-byte Folded Spill
	b	LBB1_41
Ltmp190:
LBB1_20:
	;DEBUG_VALUE: emulate_AMX_EXTRY:dst <- $x16
	;DEBUG_VALUE: emulate_AMX_EXTRY:dst_offset <- $x1
	;DEBUG_VALUE: emulate_AMX_EXTRY:z_step <- 64
	;DEBUG_VALUE: emulate_AMX_EXTRY:store_enable <- -1
	;DEBUG_VALUE: emulate_AMX_EXTRY:stride <- 0
	;DEBUG_VALUE: emulate_AMX_EXTRY:operand <- $x1
	;DEBUG_VALUE: emulate_AMX_EXTRY:state <- $x0
	str	wzr, [sp, #100]                 ; 4-byte Folded Spill
	mov	w8, #2
Ltmp191:
	;DEBUG_VALUE: emulate_AMX_EXTRY:zbytes <- 2
	;DEBUG_VALUE: emulate_AMX_EXTRY:xybytes <- 2
	b	LBB1_27
Ltmp192:
LBB1_21:
	;DEBUG_VALUE: emulate_AMX_EXTRY:dst <- $x16
	;DEBUG_VALUE: emulate_AMX_EXTRY:dst_offset <- $x1
	;DEBUG_VALUE: emulate_AMX_EXTRY:z_step <- 64
	;DEBUG_VALUE: emulate_AMX_EXTRY:store_enable <- -1
	;DEBUG_VALUE: emulate_AMX_EXTRY:stride <- 0
	;DEBUG_VALUE: emulate_AMX_EXTRY:operand <- $x1
	;DEBUG_VALUE: emulate_AMX_EXTRY:state <- $x0
	mov	w9, #2
	mov	w8, #4
	mov	w11, #1
Ltmp193:
	;DEBUG_VALUE: emulate_AMX_EXTRY:zbytes <- 4
	;DEBUG_VALUE: emulate_AMX_EXTRY:xybytes <- 2
	;DEBUG_VALUE: emulate_AMX_EXTRY:stride <- 1
	str	w11, [sp, #100]                 ; 4-byte Folded Spill
	b	LBB1_28
Ltmp194:
LBB1_22:
	;DEBUG_VALUE: emulate_AMX_EXTRY:dst <- $x16
	;DEBUG_VALUE: emulate_AMX_EXTRY:dst_offset <- $x1
	;DEBUG_VALUE: emulate_AMX_EXTRY:z_step <- 64
	;DEBUG_VALUE: emulate_AMX_EXTRY:store_enable <- -1
	;DEBUG_VALUE: emulate_AMX_EXTRY:stride <- 0
	;DEBUG_VALUE: emulate_AMX_EXTRY:operand <- $x1
	;DEBUG_VALUE: emulate_AMX_EXTRY:state <- $x0
	mov	w8, #4
	mov	w9, #2
Ltmp195:
	;DEBUG_VALUE: emulate_AMX_EXTRY:zbytes <- 4
	;DEBUG_VALUE: emulate_AMX_EXTRY:xybytes <- 2
	;DEBUG_VALUE: emulate_AMX_EXTRY:stride <- 2
	str	w9, [sp, #100]                  ; 4-byte Folded Spill
	mov	w9, #2
	b	LBB1_28
Ltmp196:
LBB1_23:
	;DEBUG_VALUE: emulate_AMX_EXTRY:dst <- $x16
	;DEBUG_VALUE: emulate_AMX_EXTRY:dst_offset <- $x1
	;DEBUG_VALUE: emulate_AMX_EXTRY:z_step <- 64
	;DEBUG_VALUE: emulate_AMX_EXTRY:store_enable <- -1
	;DEBUG_VALUE: emulate_AMX_EXTRY:stride <- 0
	;DEBUG_VALUE: emulate_AMX_EXTRY:operand <- $x1
	;DEBUG_VALUE: emulate_AMX_EXTRY:state <- $x0
	mov	w8, #4
	b	LBB1_25
Ltmp197:
LBB1_24:
	;DEBUG_VALUE: emulate_AMX_EXTRY:dst <- $x16
	;DEBUG_VALUE: emulate_AMX_EXTRY:dst_offset <- $x1
	;DEBUG_VALUE: emulate_AMX_EXTRY:z_step <- 64
	;DEBUG_VALUE: emulate_AMX_EXTRY:store_enable <- -1
	;DEBUG_VALUE: emulate_AMX_EXTRY:stride <- 0
	;DEBUG_VALUE: emulate_AMX_EXTRY:operand <- $x1
	;DEBUG_VALUE: emulate_AMX_EXTRY:state <- $x0
	mov	w8, #2
Ltmp198:
LBB1_25:
	;DEBUG_VALUE: emulate_AMX_EXTRY:dst <- $x16
	;DEBUG_VALUE: emulate_AMX_EXTRY:dst_offset <- $x1
	;DEBUG_VALUE: emulate_AMX_EXTRY:z_step <- 64
	;DEBUG_VALUE: emulate_AMX_EXTRY:store_enable <- -1
	;DEBUG_VALUE: emulate_AMX_EXTRY:stride <- 0
	;DEBUG_VALUE: emulate_AMX_EXTRY:operand <- $x1
	;DEBUG_VALUE: emulate_AMX_EXTRY:state <- $x0
	mov	w9, #1
Ltmp199:
	;DEBUG_VALUE: emulate_AMX_EXTRY:zbytes <- 4
	;DEBUG_VALUE: emulate_AMX_EXTRY:xybytes <- 1
	;DEBUG_VALUE: emulate_AMX_EXTRY:stride <- 1
	str	w9, [sp, #100]                  ; 4-byte Folded Spill
	mov	w9, #1
	b	LBB1_28
Ltmp200:
LBB1_26:
	;DEBUG_VALUE: emulate_AMX_EXTRY:dst <- $x16
	;DEBUG_VALUE: emulate_AMX_EXTRY:dst_offset <- $x1
	;DEBUG_VALUE: emulate_AMX_EXTRY:z_step <- 64
	;DEBUG_VALUE: emulate_AMX_EXTRY:store_enable <- -1
	;DEBUG_VALUE: emulate_AMX_EXTRY:stride <- 0
	;DEBUG_VALUE: emulate_AMX_EXTRY:operand <- $x1
	;DEBUG_VALUE: emulate_AMX_EXTRY:state <- $x0
	str	wzr, [sp, #100]                 ; 4-byte Folded Spill
	mov	w8, #8
Ltmp201:
	;DEBUG_VALUE: emulate_AMX_EXTRY:zbytes <- 8
	;DEBUG_VALUE: emulate_AMX_EXTRY:xybytes <- 8
LBB1_27:
	;DEBUG_VALUE: emulate_AMX_EXTRY:dst <- $x16
	;DEBUG_VALUE: emulate_AMX_EXTRY:dst_offset <- $x1
	;DEBUG_VALUE: emulate_AMX_EXTRY:z_step <- 64
	;DEBUG_VALUE: emulate_AMX_EXTRY:store_enable <- -1
	;DEBUG_VALUE: emulate_AMX_EXTRY:stride <- 0
	;DEBUG_VALUE: emulate_AMX_EXTRY:operand <- $x1
	;DEBUG_VALUE: emulate_AMX_EXTRY:state <- $x0
	mov	x9, x8
Ltmp202:
LBB1_28:
	;DEBUG_VALUE: emulate_AMX_EXTRY:dst <- $x16
	;DEBUG_VALUE: emulate_AMX_EXTRY:dst_offset <- $x1
	;DEBUG_VALUE: emulate_AMX_EXTRY:z_step <- 64
	;DEBUG_VALUE: emulate_AMX_EXTRY:store_enable <- -1
	;DEBUG_VALUE: emulate_AMX_EXTRY:operand <- $x1
	;DEBUG_VALUE: emulate_AMX_EXTRY:state <- $x0
	;DEBUG_VALUE: emulate_AMX_EXTRY:stride <- [DW_OP_plus_uconst 100] [$sp+0]
	;DEBUG_VALUE: emulate_AMX_EXTRY:xybytes <- $w9
	;DEBUG_VALUE: emulate_AMX_EXTRY:zbytes <- $w8
	.loc	4 141 14 is_stmt 1              ; extr.c:141:14
	ldr	w10, [x10]
	tst	x1, #0x80000000
	.loc	4 141 37 is_stmt 0              ; extr.c:141:37
	ccmp	w10, #2, #0, ne
	cset	w10, lo
	and	x11, x1, #0xfffffe00ffffffff
	tst	x1, #0x2000000
	mov	w12, #16
	mov	w13, #32
	csel	x12, x13, x12, eq
	cmp	w10, #0
	mov	w10, #64
	csel	x10, x10, x12, ne
Ltmp203:
	;DEBUG_VALUE: emulate_AMX_EXTRY:z_step <- $x10
	.loc	4 0 37                          ; extr.c:0:37
	str	x10, [sp, #32]                  ; 8-byte Folded Spill
Ltmp204:
	;DEBUG_VALUE: emulate_AMX_EXTRY:z_step <- [DW_OP_plus_uconst 32] [$sp+0]
	;DEBUG_VALUE: emulate_AMX_EXTRY:z_step <- [DW_OP_plus_uconst 32] [$sp+0]
	.loc	4 141 37                        ; extr.c:141:37
	csel	x12, x1, x11, ne
Ltmp205:
	;DEBUG_VALUE: parse_writemask:maskbits <- 9
	;DEBUG_VALUE: parse_writemask:g <- $w9
	;DEBUG_VALUE: parse_writemask:val <- undef
	;DEBUG_VALUE: emulate_AMX_EXTRY:operand <- $x12
	.loc	5 66 21 is_stmt 1               ; ./emulate.h:66:21
	lsr	x10, x12, #38
	.loc	5 67 9                          ; ./emulate.h:67:9
	ands	w11, w10, #0x7
Ltmp206:
	;DEBUG_VALUE: parse_writemask:mode <- $w11
	csinc	w10, w9, wzr, ne
Ltmp207:
	;DEBUG_VALUE: parse_writemask:all <- -1
	.loc	5 70 5                          ; ./emulate.h:70:5
	cmp	w11, #5
	str	x12, [sp, #88]                  ; 8-byte Folded Spill
	b.hi	LBB1_34
Ltmp208:
; %bb.29:
	;DEBUG_VALUE: parse_writemask:all <- -1
	;DEBUG_VALUE: parse_writemask:mode <- $w11
	;DEBUG_VALUE: emulate_AMX_EXTRY:operand <- $x12
	;DEBUG_VALUE: parse_writemask:g <- $w9
	;DEBUG_VALUE: parse_writemask:maskbits <- 9
	;DEBUG_VALUE: emulate_AMX_EXTRY:z_step <- [DW_OP_plus_uconst 32] [$sp+0]
	;DEBUG_VALUE: emulate_AMX_EXTRY:zbytes <- $w8
	;DEBUG_VALUE: emulate_AMX_EXTRY:xybytes <- $w9
	;DEBUG_VALUE: emulate_AMX_EXTRY:stride <- [DW_OP_plus_uconst 100] [$sp+0]
	;DEBUG_VALUE: emulate_AMX_EXTRY:dst <- $x16
	;DEBUG_VALUE: emulate_AMX_EXTRY:dst_offset <- $x1
	;DEBUG_VALUE: emulate_AMX_EXTRY:store_enable <- -1
	;DEBUG_VALUE: emulate_AMX_EXTRY:state <- $x0
	.loc	5 0 5 is_stmt 0                 ; ./emulate.h:0:5
	lsr	x12, x12, #32
Ltmp209:
	mul	w12, w10, w12
	and	w10, w12, #0x3f
Ltmp210:
	;DEBUG_VALUE: parse_writemask:val <- $w10
Lloh26:
	adrp	x13, lJTI1_1@PAGE
Lloh27:
	add	x13, x13, lJTI1_1@PAGEOFF
Ltmp211:
	adr	x14, Ltmp211
	ldrsw	x15, [x13, x11, lsl #2]
	add	x14, x14, x15
	br	x14
Ltmp212:
LBB1_30:
	;DEBUG_VALUE: parse_writemask:val <- $w10
	;DEBUG_VALUE: parse_writemask:all <- -1
	;DEBUG_VALUE: parse_writemask:mode <- $w11
	;DEBUG_VALUE: parse_writemask:g <- $w9
	;DEBUG_VALUE: parse_writemask:maskbits <- 9
	;DEBUG_VALUE: emulate_AMX_EXTRY:z_step <- [DW_OP_plus_uconst 32] [$sp+0]
	;DEBUG_VALUE: emulate_AMX_EXTRY:zbytes <- $w8
	;DEBUG_VALUE: emulate_AMX_EXTRY:xybytes <- $w9
	;DEBUG_VALUE: emulate_AMX_EXTRY:stride <- [DW_OP_plus_uconst 100] [$sp+0]
	;DEBUG_VALUE: emulate_AMX_EXTRY:dst <- $x16
	;DEBUG_VALUE: emulate_AMX_EXTRY:dst_offset <- $x1
	;DEBUG_VALUE: emulate_AMX_EXTRY:store_enable <- -1
	;DEBUG_VALUE: emulate_AMX_EXTRY:state <- $x0
	.loc	5 72 22 is_stmt 1               ; ./emulate.h:72:22
	sub	w13, w10, #1
	mov	x11, #-1
Ltmp213:
	cmp	w13, #1
	b.hi	LBB1_33
Ltmp214:
; %bb.31:
	;DEBUG_VALUE: parse_writemask:val <- $w10
	;DEBUG_VALUE: parse_writemask:all <- -1
	;DEBUG_VALUE: parse_writemask:g <- $w9
	;DEBUG_VALUE: parse_writemask:maskbits <- 9
	;DEBUG_VALUE: emulate_AMX_EXTRY:z_step <- [DW_OP_plus_uconst 32] [$sp+0]
	;DEBUG_VALUE: emulate_AMX_EXTRY:zbytes <- $w8
	;DEBUG_VALUE: emulate_AMX_EXTRY:xybytes <- $w9
	;DEBUG_VALUE: emulate_AMX_EXTRY:stride <- [DW_OP_plus_uconst 100] [$sp+0]
	;DEBUG_VALUE: emulate_AMX_EXTRY:dst <- $x16
	;DEBUG_VALUE: emulate_AMX_EXTRY:dst_offset <- $x1
	;DEBUG_VALUE: emulate_AMX_EXTRY:store_enable <- -1
	;DEBUG_VALUE: emulate_AMX_EXTRY:state <- $x0
	.loc	5 74 25                         ; ./emulate.h:74:25
	lsl	x11, x11, x9
	.loc	5 74 19 is_stmt 0               ; ./emulate.h:74:19
	mvn	x11, x11
	.loc	5 74 45                         ; ./emulate.h:74:45
	sbfx	w12, w12, #0, #1
	.loc	5 74 37                         ; ./emulate.h:74:37
	and	w12, w12, w9
	.loc	5 74 31                         ; ./emulate.h:74:31
	lsl	x11, x11, x12
Ltmp215:
	;DEBUG_VALUE: parse_writemask:all <- $x11
	;DEBUG_VALUE: parse_writemask:g <- [DW_OP_constu 1, DW_OP_shl, DW_OP_stack_value] $w9
	.loc	5 0 31                          ; ./emulate.h:0:31
	mov	x12, x9
Ltmp216:
LBB1_32:                                ; =>This Inner Loop Header: Depth=1
	;DEBUG_VALUE: parse_writemask:all <- $x11
	;DEBUG_VALUE: parse_writemask:val <- $w10
	;DEBUG_VALUE: parse_writemask:maskbits <- 9
	;DEBUG_VALUE: emulate_AMX_EXTRY:z_step <- [DW_OP_plus_uconst 32] [$sp+0]
	;DEBUG_VALUE: emulate_AMX_EXTRY:zbytes <- $w8
	;DEBUG_VALUE: emulate_AMX_EXTRY:xybytes <- $w9
	;DEBUG_VALUE: emulate_AMX_EXTRY:stride <- [DW_OP_plus_uconst 100] [$sp+0]
	;DEBUG_VALUE: emulate_AMX_EXTRY:dst <- $x16
	;DEBUG_VALUE: emulate_AMX_EXTRY:dst_offset <- $x1
	;DEBUG_VALUE: emulate_AMX_EXTRY:store_enable <- -1
	;DEBUG_VALUE: emulate_AMX_EXTRY:state <- $x0
	.loc	5 75 23 is_stmt 1               ; ./emulate.h:75:23
	lsl	w13, w12, #1
	;DEBUG_VALUE: parse_writemask:all <- $x11
Ltmp217:
	.loc	5 76 28                         ; ./emulate.h:76:28
	lsl	x14, x11, x13
	.loc	5 76 21 is_stmt 0               ; ./emulate.h:76:21
	orr	x11, x14, x11
Ltmp218:
	;DEBUG_VALUE: parse_writemask:all <- $x11
	;DEBUG_VALUE: parse_writemask:g <- [DW_OP_constu 1, DW_OP_shl, DW_OP_stack_value] $w13
	.loc	5 75 13 is_stmt 1               ; ./emulate.h:75:13
	cmp	w12, #16
	mov	x12, x13
	b.lo	LBB1_32
Ltmp219:
LBB1_33:
	;DEBUG_VALUE: parse_writemask:val <- $w10
	;DEBUG_VALUE: parse_writemask:maskbits <- 9
	;DEBUG_VALUE: emulate_AMX_EXTRY:z_step <- [DW_OP_plus_uconst 32] [$sp+0]
	;DEBUG_VALUE: emulate_AMX_EXTRY:zbytes <- $w8
	;DEBUG_VALUE: emulate_AMX_EXTRY:xybytes <- $w9
	;DEBUG_VALUE: emulate_AMX_EXTRY:stride <- [DW_OP_plus_uconst 100] [$sp+0]
	;DEBUG_VALUE: emulate_AMX_EXTRY:dst <- $x16
	;DEBUG_VALUE: emulate_AMX_EXTRY:dst_offset <- $x1
	;DEBUG_VALUE: emulate_AMX_EXTRY:store_enable <- -1
	;DEBUG_VALUE: emulate_AMX_EXTRY:state <- $x0
	;DEBUG_VALUE: parse_writemask:all <- $x11
	.loc	5 83 16                         ; ./emulate.h:83:16
	cmp	w10, #6
	csel	x17, x11, xzr, lo
	b	LBB1_41
Ltmp220:
LBB1_34:
	;DEBUG_VALUE: parse_writemask:all <- -1
	;DEBUG_VALUE: parse_writemask:mode <- $w11
	;DEBUG_VALUE: emulate_AMX_EXTRY:operand <- $x12
	;DEBUG_VALUE: parse_writemask:g <- $w9
	;DEBUG_VALUE: parse_writemask:maskbits <- 9
	;DEBUG_VALUE: emulate_AMX_EXTRY:z_step <- [DW_OP_plus_uconst 32] [$sp+0]
	;DEBUG_VALUE: emulate_AMX_EXTRY:zbytes <- $w8
	;DEBUG_VALUE: emulate_AMX_EXTRY:xybytes <- $w9
	;DEBUG_VALUE: emulate_AMX_EXTRY:stride <- [DW_OP_plus_uconst 100] [$sp+0]
	;DEBUG_VALUE: emulate_AMX_EXTRY:dst <- $x16
	;DEBUG_VALUE: emulate_AMX_EXTRY:dst_offset <- $x1
	;DEBUG_VALUE: emulate_AMX_EXTRY:store_enable <- -1
	;DEBUG_VALUE: emulate_AMX_EXTRY:state <- $x0
	.loc	5 0 16 is_stmt 0                ; ./emulate.h:0:16
	mov	x17, #0
	b	LBB1_41
Ltmp221:
LBB1_35:
	;DEBUG_VALUE: parse_writemask:val <- $w10
	;DEBUG_VALUE: parse_writemask:all <- -1
	;DEBUG_VALUE: parse_writemask:mode <- $w11
	;DEBUG_VALUE: parse_writemask:g <- $w9
	;DEBUG_VALUE: parse_writemask:maskbits <- 9
	;DEBUG_VALUE: emulate_AMX_EXTRY:z_step <- [DW_OP_plus_uconst 32] [$sp+0]
	;DEBUG_VALUE: emulate_AMX_EXTRY:zbytes <- $w8
	;DEBUG_VALUE: emulate_AMX_EXTRY:xybytes <- $w9
	;DEBUG_VALUE: emulate_AMX_EXTRY:stride <- [DW_OP_plus_uconst 100] [$sp+0]
	;DEBUG_VALUE: emulate_AMX_EXTRY:dst <- $x16
	;DEBUG_VALUE: emulate_AMX_EXTRY:dst_offset <- $x1
	;DEBUG_VALUE: emulate_AMX_EXTRY:store_enable <- -1
	;DEBUG_VALUE: emulate_AMX_EXTRY:state <- $x0
	mov	x11, #-1
Ltmp222:
	.loc	5 86 23 is_stmt 1               ; ./emulate.h:86:23
	lsl	x11, x11, x9
	.loc	5 86 17 is_stmt 0               ; ./emulate.h:86:17
	mvn	x11, x11
	.loc	5 86 30                         ; ./emulate.h:86:30
	lsl	x17, x11, x10
	b	LBB1_41
Ltmp223:
LBB1_36:
	;DEBUG_VALUE: parse_writemask:val <- $w10
	;DEBUG_VALUE: parse_writemask:all <- -1
	;DEBUG_VALUE: parse_writemask:mode <- $w11
	;DEBUG_VALUE: parse_writemask:g <- $w9
	;DEBUG_VALUE: parse_writemask:maskbits <- 9
	;DEBUG_VALUE: emulate_AMX_EXTRY:z_step <- [DW_OP_plus_uconst 32] [$sp+0]
	;DEBUG_VALUE: emulate_AMX_EXTRY:zbytes <- $w8
	;DEBUG_VALUE: emulate_AMX_EXTRY:xybytes <- $w9
	;DEBUG_VALUE: emulate_AMX_EXTRY:stride <- [DW_OP_plus_uconst 100] [$sp+0]
	;DEBUG_VALUE: emulate_AMX_EXTRY:dst <- $x16
	;DEBUG_VALUE: emulate_AMX_EXTRY:dst_offset <- $x1
	;DEBUG_VALUE: emulate_AMX_EXTRY:store_enable <- -1
	;DEBUG_VALUE: emulate_AMX_EXTRY:state <- $x0
	.loc	5 88 13 is_stmt 1               ; ./emulate.h:88:13
	cbz	w10, LBB1_60
Ltmp224:
LBB1_37:
	;DEBUG_VALUE: parse_writemask:val <- $w10
	;DEBUG_VALUE: parse_writemask:all <- -1
	;DEBUG_VALUE: parse_writemask:mode <- $w11
	;DEBUG_VALUE: parse_writemask:g <- $w9
	;DEBUG_VALUE: parse_writemask:maskbits <- 9
	;DEBUG_VALUE: emulate_AMX_EXTRY:z_step <- [DW_OP_plus_uconst 32] [$sp+0]
	;DEBUG_VALUE: emulate_AMX_EXTRY:zbytes <- $w8
	;DEBUG_VALUE: emulate_AMX_EXTRY:xybytes <- $w9
	;DEBUG_VALUE: emulate_AMX_EXTRY:stride <- [DW_OP_plus_uconst 100] [$sp+0]
	;DEBUG_VALUE: emulate_AMX_EXTRY:dst <- $x16
	;DEBUG_VALUE: emulate_AMX_EXTRY:dst_offset <- $x1
	;DEBUG_VALUE: emulate_AMX_EXTRY:store_enable <- -1
	;DEBUG_VALUE: emulate_AMX_EXTRY:state <- $x0
	.loc	5 0 13 is_stmt 0                ; ./emulate.h:0:13
	mov	x11, #-1
Ltmp225:
	.loc	5 91 22 is_stmt 1               ; ./emulate.h:91:22
	lsl	x10, x11, x10
Ltmp226:
	.loc	5 0 22 is_stmt 0                ; ./emulate.h:0:22
	b	LBB1_40
Ltmp227:
LBB1_38:
	;DEBUG_VALUE: parse_writemask:val <- $w10
	;DEBUG_VALUE: parse_writemask:all <- -1
	;DEBUG_VALUE: parse_writemask:mode <- $w11
	;DEBUG_VALUE: parse_writemask:g <- $w9
	;DEBUG_VALUE: parse_writemask:maskbits <- 9
	;DEBUG_VALUE: emulate_AMX_EXTRY:z_step <- [DW_OP_plus_uconst 32] [$sp+0]
	;DEBUG_VALUE: emulate_AMX_EXTRY:zbytes <- $w8
	;DEBUG_VALUE: emulate_AMX_EXTRY:xybytes <- $w9
	;DEBUG_VALUE: emulate_AMX_EXTRY:stride <- [DW_OP_plus_uconst 100] [$sp+0]
	;DEBUG_VALUE: emulate_AMX_EXTRY:dst <- $x16
	;DEBUG_VALUE: emulate_AMX_EXTRY:dst_offset <- $x1
	;DEBUG_VALUE: emulate_AMX_EXTRY:store_enable <- -1
	;DEBUG_VALUE: emulate_AMX_EXTRY:state <- $x0
	.loc	5 93 13 is_stmt 1               ; ./emulate.h:93:13
	cbz	w10, LBB1_60
Ltmp228:
LBB1_39:
	;DEBUG_VALUE: parse_writemask:val <- $w10
	;DEBUG_VALUE: parse_writemask:all <- -1
	;DEBUG_VALUE: parse_writemask:mode <- $w11
	;DEBUG_VALUE: parse_writemask:g <- $w9
	;DEBUG_VALUE: parse_writemask:maskbits <- 9
	;DEBUG_VALUE: emulate_AMX_EXTRY:z_step <- [DW_OP_plus_uconst 32] [$sp+0]
	;DEBUG_VALUE: emulate_AMX_EXTRY:zbytes <- $w8
	;DEBUG_VALUE: emulate_AMX_EXTRY:xybytes <- $w9
	;DEBUG_VALUE: emulate_AMX_EXTRY:stride <- [DW_OP_plus_uconst 100] [$sp+0]
	;DEBUG_VALUE: emulate_AMX_EXTRY:dst <- $x16
	;DEBUG_VALUE: emulate_AMX_EXTRY:dst_offset <- $x1
	;DEBUG_VALUE: emulate_AMX_EXTRY:store_enable <- -1
	;DEBUG_VALUE: emulate_AMX_EXTRY:state <- $x0
	.loc	5 0 13 is_stmt 0                ; ./emulate.h:0:13
	mov	x11, #-1
Ltmp229:
	.loc	5 96 22 is_stmt 1               ; ./emulate.h:96:22
	lsr	x10, x11, x10
Ltmp230:
LBB1_40:
	;DEBUG_VALUE: parse_writemask:all <- -1
	;DEBUG_VALUE: parse_writemask:g <- $w9
	;DEBUG_VALUE: parse_writemask:maskbits <- 9
	;DEBUG_VALUE: emulate_AMX_EXTRY:z_step <- [DW_OP_plus_uconst 32] [$sp+0]
	;DEBUG_VALUE: emulate_AMX_EXTRY:zbytes <- $w8
	;DEBUG_VALUE: emulate_AMX_EXTRY:xybytes <- $w9
	;DEBUG_VALUE: emulate_AMX_EXTRY:stride <- [DW_OP_plus_uconst 100] [$sp+0]
	;DEBUG_VALUE: emulate_AMX_EXTRY:dst <- $x16
	;DEBUG_VALUE: emulate_AMX_EXTRY:dst_offset <- $x1
	;DEBUG_VALUE: emulate_AMX_EXTRY:store_enable <- -1
	;DEBUG_VALUE: emulate_AMX_EXTRY:state <- $x0
	.loc	5 0 0 is_stmt 0                 ; ./emulate.h:0:0
	mvn	x17, x10
Ltmp231:
LBB1_41:
	;DEBUG_VALUE: emulate_AMX_EXTRY:zbytes <- $w8
	;DEBUG_VALUE: emulate_AMX_EXTRY:dst <- $x16
	;DEBUG_VALUE: emulate_AMX_EXTRY:dst_offset <- $x1
	;DEBUG_VALUE: emulate_AMX_EXTRY:state <- $x0
	lsr	x10, x1, #20
	;DEBUG_VALUE: emulate_AMX_EXTRY:zbytes <- $w8
Ltmp232:
	;DEBUG_VALUE: emulate_AMX_EXTRY:xybytes <- $w9
	;DEBUG_VALUE: emulate_AMX_EXTRY:dst <- $x16
	;DEBUG_VALUE: emulate_AMX_EXTRY:stride <- [DW_OP_plus_uconst 100] [$sp+0]
	;DEBUG_VALUE: emulate_AMX_EXTRY:store_enable <- $x17
	;DEBUG_VALUE: emulate_AMX_EXTRY:z_step <- [DW_OP_plus_uconst 32] [$sp+0]
	;DEBUG_VALUE: emulate_AMX_EXTRY:z_col <- $x10
	;DEBUG_VALUE: emulate_AMX_EXTRY:operand <- [DW_OP_plus_uconst 88] [$sp+0]
	ldr	x15, [sp, #88]                  ; 8-byte Folded Reload
	lsr	x11, x15, #58
	ands	w12, w11, #0x1f
	sub	w12, w12, #1
	ands	w11, w11, #0x1f
	str	x11, [sp, #80]                  ; 8-byte Folded Spill
	.loc	4 161 33 is_stmt 1              ; extr.c:161:33
	lsl	x11, x15, #6
	and	x13, x15, #0x40000000000000
	mov	w14, #1
	lsl	w12, w14, w12
	ccmp	x13, #0, #4, ne
	mov	w13, #64
	.loc	4 161 24 is_stmt 0              ; extr.c:161:24
	sub	w13, w13, w8, lsl #3
	csel	x12, xzr, x12, eq
Ltmp233:
	;DEBUG_VALUE: emulate_AMX_EXTRY:signext <- undef
	;DEBUG_VALUE: emulate_AMX_EXTRY:z_col <- [DW_OP_LLVM_arg 0, DW_OP_plus_uconst 32, DW_OP_deref, DW_OP_plus_uconst 17592186044415, DW_OP_LLVM_arg 1, DW_OP_and, DW_OP_stack_value] $sp, $x10
	;DEBUG_VALUE: emulate_AMX_EXTRY:dst_offset <- $x1
	.loc	4 0 24                          ; extr.c:0:24
	str	x12, [sp, #72]                  ; 8-byte Folded Spill
	ldr	x12, [sp, #32]                  ; 8-byte Folded Reload
Ltmp234:
	;DEBUG_VALUE: emulate_AMX_EXTRY:z_step <- $x12
	;DEBUG_VALUE: emulate_AMX_EXTRY:z_col <- [DW_OP_LLVM_arg 0, DW_OP_plus_uconst 17592186044415, DW_OP_LLVM_arg 1, DW_OP_and, DW_OP_stack_value] $x12, $x10
	.loc	4 162 26 is_stmt 1              ; extr.c:162:26
	sub	x12, x12, #1
Ltmp235:
	;DEBUG_VALUE: emulate_AMX_EXTRY:z_step <- [DW_OP_plus_uconst 32] [$sp+0]
	;DEBUG_VALUE: emulate_AMX_EXTRY:z_col <- [DW_OP_LLVM_arg 0, DW_OP_LLVM_arg 1, DW_OP_and, DW_OP_stack_value] $x12, $x10
	.loc	4 162 16 is_stmt 0              ; extr.c:162:16
	and	x23, x12, x10
Ltmp236:
	;DEBUG_VALUE: emulate_AMX_EXTRY:z_col <- $x23
	.loc	4 0 16                          ; extr.c:0:16
	sub	w20, w8, #1
	neg	w19, w8
	lsl	w10, w9, #3
	and	x25, x13, x11, asr #63
	lsl	x11, x15, #7
	ubfx	x12, x15, #56, #1
	sub	w10, w10, w12
	lsl	x12, x14, x10
	neg	x10, x12
	and	x10, x10, x11, asr #63
	str	x10, [sp, #48]                  ; 8-byte Folded Spill
	sub	x10, x12, #1
	stp	x10, x12, [sp, #56]             ; 16-byte Folded Spill
	and	x10, x15, #0x1ff00000000
	stp	x10, x17, [sp, #8]              ; 16-byte Folded Spill
	mov	w21, w8
	mov	w22, w9
	str	x16, [sp, #24]                  ; 8-byte Folded Spill
Ltmp237:
	;DEBUG_VALUE: emulate_AMX_EXTRY:dst <- [DW_OP_plus_uconst 24] [$sp+0]
	ldr	w28, [sp, #100]                 ; 4-byte Folded Reload
	b	LBB1_43
Ltmp238:
LBB1_42:                                ;   in Loop: Header=BB1_43 Depth=1
	;DEBUG_VALUE: emulate_AMX_EXTRY:dst_offset <- [DW_OP_plus_uconst 40] [$sp+0]
	;DEBUG_VALUE: emulate_AMX_EXTRY:dst <- [DW_OP_plus_uconst 24] [$sp+0]
	;DEBUG_VALUE: emulate_AMX_EXTRY:z_col <- $x23
	;DEBUG_VALUE: emulate_AMX_EXTRY:operand <- [DW_OP_plus_uconst 88] [$sp+0]
	;DEBUG_VALUE: emulate_AMX_EXTRY:z_step <- [DW_OP_plus_uconst 32] [$sp+0]
	;DEBUG_VALUE: emulate_AMX_EXTRY:stride <- [DW_OP_plus_uconst 100] [$sp+0]
	.loc	4 173 20 is_stmt 1              ; extr.c:173:20
	add	x1, x1, #64
Ltmp239:
	;DEBUG_VALUE: emulate_AMX_EXTRY:dst_offset <- $x1
	.loc	4 0 20 is_stmt 0                ; extr.c:0:20
	ldr	x8, [sp, #32]                   ; 8-byte Folded Reload
Ltmp240:
	.loc	4 162 50 is_stmt 1              ; extr.c:162:50
	add	x23, x23, x8
Ltmp241:
	;DEBUG_VALUE: emulate_AMX_EXTRY:z_col <- $x23
	.loc	4 162 5 is_stmt 0               ; extr.c:162:5
	cmp	x23, #64
	b.hs	LBB1_11
Ltmp242:
LBB1_43:                                ; =>This Loop Header: Depth=1
                                        ;     Child Loop BB1_46 Depth 2
                                        ;     Child Loop BB1_58 Depth 2
	;DEBUG_VALUE: emulate_AMX_EXTRY:dst <- [DW_OP_plus_uconst 24] [$sp+0]
	;DEBUG_VALUE: emulate_AMX_EXTRY:z_col <- $x23
	;DEBUG_VALUE: emulate_AMX_EXTRY:operand <- [DW_OP_plus_uconst 88] [$sp+0]
	;DEBUG_VALUE: emulate_AMX_EXTRY:z_step <- [DW_OP_plus_uconst 32] [$sp+0]
	;DEBUG_VALUE: emulate_AMX_EXTRY:stride <- [DW_OP_plus_uconst 100] [$sp+0]
	;DEBUG_VALUE: emulate_AMX_EXTRY:dst_offset <- $x1
	;DEBUG_VALUE: emulate_AMX_EXTRY:dst_offset <- $x1
	;DEBUG_VALUE: emulate_AMX_EXTRY:z_col <- $x23
	.loc	4 0 5                           ; extr.c:0:5
	str	x1, [sp, #40]                   ; 8-byte Folded Spill
Ltmp243:
	;DEBUG_VALUE: emulate_AMX_EXTRY:dst_offset <- [DW_OP_plus_uconst 40] [$sp+0]
	;DEBUG_VALUE: emulate_AMX_EXTRY:dst_offset <- [DW_OP_plus_uconst 40] [$sp+0]
	;DEBUG_VALUE: emulate_AMX_EXTRY:dst_offset <- [DW_OP_plus_uconst 40] [$sp+0]
	mov	w27, #0
	and	x26, x23, x19
	;DEBUG_VALUE: j <- 0
	b	LBB1_46
Ltmp244:
LBB1_44:                                ;   in Loop: Header=BB1_46 Depth=2
	;DEBUG_VALUE: extr_alu:shift <- [DW_OP_plus_uconst 88, DW_OP_deref_size 8, DW_OP_constu 58, DW_OP_shr, DW_OP_LLVM_convert 64 7, DW_OP_LLVM_convert 32 7, DW_OP_constu 31, DW_OP_and, DW_OP_stack_value] $sp
	;DEBUG_VALUE: extr_alu:operand <- [DW_OP_plus_uconst 88] [$sp+0]
	;DEBUG_VALUE: extr_alu:val <- $x8
	;DEBUG_VALUE: val <- $x8
	;DEBUG_VALUE: j <- $w27
	;DEBUG_VALUE: emulate_AMX_EXTRY:dst_offset <- [DW_OP_plus_uconst 40] [$sp+0]
	;DEBUG_VALUE: emulate_AMX_EXTRY:dst <- [DW_OP_plus_uconst 24] [$sp+0]
	;DEBUG_VALUE: emulate_AMX_EXTRY:z_col <- $x23
	;DEBUG_VALUE: emulate_AMX_EXTRY:operand <- [DW_OP_plus_uconst 88] [$sp+0]
	;DEBUG_VALUE: emulate_AMX_EXTRY:z_step <- [DW_OP_plus_uconst 32] [$sp+0]
	;DEBUG_VALUE: emulate_AMX_EXTRY:stride <- [DW_OP_plus_uconst 100] [$sp+0]
	.loc	4 24 13 is_stmt 1               ; extr.c:24:13
	fmov	d0, x8
	; InlineAsm Start
	fcvt	h0, s0
	; InlineAsm End
	fmov	x8, d0
Ltmp245:
	;DEBUG_VALUE: extr_alu:val <- $x8
LBB1_45:                                ;   in Loop: Header=BB1_46 Depth=2
	;DEBUG_VALUE: j <- $w27
	;DEBUG_VALUE: emulate_AMX_EXTRY:dst_offset <- [DW_OP_plus_uconst 40] [$sp+0]
	;DEBUG_VALUE: emulate_AMX_EXTRY:dst <- [DW_OP_plus_uconst 24] [$sp+0]
	;DEBUG_VALUE: emulate_AMX_EXTRY:z_col <- $x23
	;DEBUG_VALUE: emulate_AMX_EXTRY:operand <- [DW_OP_plus_uconst 88] [$sp+0]
	;DEBUG_VALUE: emulate_AMX_EXTRY:z_step <- [DW_OP_plus_uconst 32] [$sp+0]
	;DEBUG_VALUE: emulate_AMX_EXTRY:stride <- [DW_OP_plus_uconst 100] [$sp+0]
	;DEBUG_VALUE: val <- $x8
	.loc	4 167 30                        ; extr.c:167:30
	add	x9, sp, #112
	add	x0, x9, w27, uxtw
	;DEBUG_VALUE: store_int:val <- $x8
Ltmp246:
	;DEBUG_VALUE: store_int:nbytes <- undef
	.loc	4 0 30 is_stmt 0                ; extr.c:0:30
	str	x8, [sp, #104]
Ltmp247:
	;DEBUG_VALUE: store_int:val <- [DW_OP_plus_uconst 104, DW_OP_deref] $sp
	;DEBUG_VALUE: store_int:dst <- $x0
	.loc	5 38 5 is_stmt 1                ; ./emulate.h:38:5
	add	x1, sp, #104
	mov	x2, x22
	bl	_memcpy
Ltmp248:
	.loc	4 163 40                        ; extr.c:163:40
	add	w27, w27, w22
Ltmp249:
	;DEBUG_VALUE: j <- $w27
	.loc	4 163 9 is_stmt 0               ; extr.c:163:9
	cmp	w27, #64
	mov	x0, x24
	b.hs	LBB1_54
Ltmp250:
LBB1_46:                                ;   Parent Loop BB1_43 Depth=1
                                        ; =>  This Inner Loop Header: Depth=2
	;DEBUG_VALUE: emulate_AMX_EXTRY:dst_offset <- [DW_OP_plus_uconst 40] [$sp+0]
	;DEBUG_VALUE: emulate_AMX_EXTRY:dst <- [DW_OP_plus_uconst 24] [$sp+0]
	;DEBUG_VALUE: emulate_AMX_EXTRY:z_col <- $x23
	;DEBUG_VALUE: emulate_AMX_EXTRY:operand <- [DW_OP_plus_uconst 88] [$sp+0]
	;DEBUG_VALUE: emulate_AMX_EXTRY:z_step <- [DW_OP_plus_uconst 32] [$sp+0]
	;DEBUG_VALUE: emulate_AMX_EXTRY:stride <- [DW_OP_plus_uconst 100] [$sp+0]
	;DEBUG_VALUE: j <- $w27
	.loc	4 164 32 is_stmt 1              ; extr.c:164:32
	and	w8, w27, w20
	.loc	4 164 48 is_stmt 0              ; extr.c:164:48
	udiv	w8, w8, w22
Ltmp251:
	;DEBUG_VALUE: zoff <- undef
	.loc	4 165 46 is_stmt 1              ; extr.c:165:46
	and	w9, w27, w19
	madd	w8, w8, w28, w23
	and	x8, x8, x20
	orr	x8, x8, x9
	mov	x24, x0
	.loc	4 165 37 is_stmt 0              ; extr.c:165:37
	add	x8, x0, x8, lsl #6
	add	x8, x8, x26
	add	x1, x8, #1024
Ltmp252:
	;DEBUG_VALUE: load_int:val <- 0
	;DEBUG_VALUE: load_int:signext <- undef
	;DEBUG_VALUE: load_int:nbytes <- undef
	;DEBUG_VALUE: load_int:src <- $x1
	.loc	5 32 13 is_stmt 1               ; ./emulate.h:32:13
	str	xzr, [sp, #104]
Ltmp253:
	;DEBUG_VALUE: load_int:val <- [DW_OP_plus_uconst 104, DW_OP_deref] $sp
	.loc	5 33 5                          ; ./emulate.h:33:5
	add	x0, sp, #104
Ltmp254:
	;DEBUG_VALUE: emulate_AMX_EXTRY:state <- [DW_OP_LLVM_entry_value 1] $x0
	mov	x2, x21
	mov	w3, #8
	bl	___memcpy_chk
Ltmp255:
	.loc	5 34 13                         ; ./emulate.h:34:13
	ldr	x8, [sp, #104]
Ltmp256:
	;DEBUG_VALUE: load_int:val <- $x8
	.loc	5 34 17 is_stmt 0               ; ./emulate.h:34:17
	lsl	x8, x8, x25
Ltmp257:
	.loc	5 34 29                         ; ./emulate.h:34:29
	asr	x8, x8, x25
Ltmp258:
	;DEBUG_VALUE: val <- $x8
	.loc	4 166 17 is_stmt 1              ; extr.c:166:17
	cbz	w28, LBB1_45
Ltmp259:
; %bb.47:                               ;   in Loop: Header=BB1_46 Depth=2
	;DEBUG_VALUE: val <- $x8
	;DEBUG_VALUE: j <- $w27
	;DEBUG_VALUE: emulate_AMX_EXTRY:dst_offset <- [DW_OP_plus_uconst 40] [$sp+0]
	;DEBUG_VALUE: emulate_AMX_EXTRY:dst <- [DW_OP_plus_uconst 24] [$sp+0]
	;DEBUG_VALUE: emulate_AMX_EXTRY:z_col <- $x23
	;DEBUG_VALUE: emulate_AMX_EXTRY:operand <- [DW_OP_plus_uconst 88] [$sp+0]
	;DEBUG_VALUE: emulate_AMX_EXTRY:z_step <- [DW_OP_plus_uconst 32] [$sp+0]
	;DEBUG_VALUE: emulate_AMX_EXTRY:stride <- [DW_OP_plus_uconst 100] [$sp+0]
	;DEBUG_VALUE: extr_alu:val <- $x8
	;DEBUG_VALUE: extr_alu:operand <- [DW_OP_plus_uconst 88] [$sp+0]
	;DEBUG_VALUE: extr_alu:outbits <- [DW_OP_constu 3, DW_OP_shl, DW_OP_stack_value] undef
	;DEBUG_VALUE: extr_alu:shift <- [DW_OP_plus_uconst 88, DW_OP_deref_size 8, DW_OP_constu 58, DW_OP_shr, DW_OP_LLVM_convert 64 7, DW_OP_LLVM_convert 32 7, DW_OP_constu 31, DW_OP_and, DW_OP_stack_value] $sp
	.loc	4 0 17 is_stmt 0                ; extr.c:0:17
	ldr	x9, [sp, #88]                   ; 8-byte Folded Reload
Ltmp260:
	.loc	4 20 9 is_stmt 1                ; extr.c:20:9
	tbnz	x9, #63, LBB1_51
Ltmp261:
; %bb.48:                               ;   in Loop: Header=BB1_46 Depth=2
	;DEBUG_VALUE: extr_alu:shift <- [DW_OP_plus_uconst 88, DW_OP_deref_size 8, DW_OP_constu 58, DW_OP_shr, DW_OP_LLVM_convert 64 7, DW_OP_LLVM_convert 32 7, DW_OP_constu 31, DW_OP_and, DW_OP_stack_value] $sp
	;DEBUG_VALUE: extr_alu:operand <- [DW_OP_plus_uconst 88] [$sp+0]
	;DEBUG_VALUE: extr_alu:val <- $x8
	;DEBUG_VALUE: val <- $x8
	;DEBUG_VALUE: j <- $w27
	;DEBUG_VALUE: emulate_AMX_EXTRY:dst_offset <- [DW_OP_plus_uconst 40] [$sp+0]
	;DEBUG_VALUE: emulate_AMX_EXTRY:dst <- [DW_OP_plus_uconst 24] [$sp+0]
	;DEBUG_VALUE: emulate_AMX_EXTRY:z_col <- $x23
	;DEBUG_VALUE: emulate_AMX_EXTRY:operand <- [DW_OP_plus_uconst 88] [$sp+0]
	;DEBUG_VALUE: emulate_AMX_EXTRY:z_step <- [DW_OP_plus_uconst 32] [$sp+0]
	;DEBUG_VALUE: emulate_AMX_EXTRY:stride <- [DW_OP_plus_uconst 100] [$sp+0]
	.loc	4 0 9 is_stmt 0                 ; extr.c:0:9
	ldr	x10, [sp, #72]                  ; 8-byte Folded Reload
Ltmp262:
	.loc	4 28 15 is_stmt 1               ; extr.c:28:15
	add	x8, x8, x10
Ltmp263:
	;DEBUG_VALUE: extr_alu:val <- $x8
	.loc	4 0 15 is_stmt 0                ; extr.c:0:15
	ldr	x10, [sp, #80]                  ; 8-byte Folded Reload
Ltmp264:
	.loc	4 31 9 is_stmt 1                ; extr.c:31:9
	asr	x8, x8, x10
Ltmp265:
	;DEBUG_VALUE: extr_alu:val <- $x8
	.loc	4 32 9                          ; extr.c:32:9
	tbz	x9, #55, LBB1_45
Ltmp266:
; %bb.49:                               ;   in Loop: Header=BB1_46 Depth=2
	;DEBUG_VALUE: extr_alu:shift <- [DW_OP_plus_uconst 88, DW_OP_deref_size 8, DW_OP_constu 58, DW_OP_shr, DW_OP_LLVM_convert 64 7, DW_OP_LLVM_convert 32 7, DW_OP_constu 31, DW_OP_and, DW_OP_stack_value] $sp
	;DEBUG_VALUE: extr_alu:operand <- [DW_OP_plus_uconst 88] [$sp+0]
	;DEBUG_VALUE: extr_alu:val <- $x8
	;DEBUG_VALUE: j <- $w27
	;DEBUG_VALUE: emulate_AMX_EXTRY:dst_offset <- [DW_OP_plus_uconst 40] [$sp+0]
	;DEBUG_VALUE: emulate_AMX_EXTRY:dst <- [DW_OP_plus_uconst 24] [$sp+0]
	;DEBUG_VALUE: emulate_AMX_EXTRY:z_col <- $x23
	;DEBUG_VALUE: emulate_AMX_EXTRY:operand <- [DW_OP_plus_uconst 88] [$sp+0]
	;DEBUG_VALUE: emulate_AMX_EXTRY:z_step <- [DW_OP_plus_uconst 32] [$sp+0]
	;DEBUG_VALUE: emulate_AMX_EXTRY:stride <- [DW_OP_plus_uconst 100] [$sp+0]
	;DEBUG_VALUE: extr_alu:outbits <- undef
	;DEBUG_VALUE: hi <- [DW_OP_plus_uconst 64] [$sp+0]
	.loc	4 0 9 is_stmt 0                 ; extr.c:0:9
	ldr	x9, [sp, #88]                   ; 8-byte Folded Reload
Ltmp267:
	.loc	4 35 13 is_stmt 1               ; extr.c:35:13
	tbnz	x9, #57, LBB1_53
Ltmp268:
; %bb.50:                               ;   in Loop: Header=BB1_46 Depth=2
	;DEBUG_VALUE: hi <- [DW_OP_plus_uconst 64] [$sp+0]
	;DEBUG_VALUE: extr_alu:shift <- [DW_OP_plus_uconst 88, DW_OP_deref_size 8, DW_OP_constu 58, DW_OP_shr, DW_OP_LLVM_convert 64 7, DW_OP_LLVM_convert 32 7, DW_OP_constu 31, DW_OP_and, DW_OP_stack_value] $sp
	;DEBUG_VALUE: extr_alu:operand <- [DW_OP_plus_uconst 88] [$sp+0]
	;DEBUG_VALUE: extr_alu:val <- $x8
	;DEBUG_VALUE: j <- $w27
	;DEBUG_VALUE: emulate_AMX_EXTRY:dst_offset <- [DW_OP_plus_uconst 40] [$sp+0]
	;DEBUG_VALUE: emulate_AMX_EXTRY:dst <- [DW_OP_plus_uconst 24] [$sp+0]
	;DEBUG_VALUE: emulate_AMX_EXTRY:z_col <- $x23
	;DEBUG_VALUE: emulate_AMX_EXTRY:operand <- [DW_OP_plus_uconst 88] [$sp+0]
	;DEBUG_VALUE: emulate_AMX_EXTRY:z_step <- [DW_OP_plus_uconst 32] [$sp+0]
	;DEBUG_VALUE: emulate_AMX_EXTRY:stride <- [DW_OP_plus_uconst 100] [$sp+0]
	.loc	4 0 13 is_stmt 0                ; extr.c:0:13
	ldr	x9, [sp, #64]                   ; 8-byte Folded Reload
Ltmp269:
	.loc	4 40 17 is_stmt 1               ; extr.c:40:17
	cmp	x8, x9
	ldr	x9, [sp, #56]                   ; 8-byte Folded Reload
	csel	x8, x8, x9, lo
Ltmp270:
	.loc	4 0 17 is_stmt 0                ; extr.c:0:17
	b	LBB1_45
Ltmp271:
LBB1_51:                                ;   in Loop: Header=BB1_46 Depth=2
	;DEBUG_VALUE: extr_alu:shift <- [DW_OP_plus_uconst 88, DW_OP_deref_size 8, DW_OP_constu 58, DW_OP_shr, DW_OP_LLVM_convert 64 7, DW_OP_LLVM_convert 32 7, DW_OP_constu 31, DW_OP_and, DW_OP_stack_value] $sp
	;DEBUG_VALUE: extr_alu:operand <- [DW_OP_plus_uconst 88] [$sp+0]
	;DEBUG_VALUE: extr_alu:val <- $x8
	;DEBUG_VALUE: val <- $x8
	;DEBUG_VALUE: j <- $w27
	;DEBUG_VALUE: emulate_AMX_EXTRY:dst_offset <- [DW_OP_plus_uconst 40] [$sp+0]
	;DEBUG_VALUE: emulate_AMX_EXTRY:dst <- [DW_OP_plus_uconst 24] [$sp+0]
	;DEBUG_VALUE: emulate_AMX_EXTRY:z_col <- $x23
	;DEBUG_VALUE: emulate_AMX_EXTRY:operand <- [DW_OP_plus_uconst 88] [$sp+0]
	;DEBUG_VALUE: emulate_AMX_EXTRY:z_step <- [DW_OP_plus_uconst 32] [$sp+0]
	;DEBUG_VALUE: emulate_AMX_EXTRY:stride <- [DW_OP_plus_uconst 100] [$sp+0]
	ldr	x9, [sp, #80]                   ; 8-byte Folded Reload
Ltmp272:
	.loc	4 21 13 is_stmt 1               ; extr.c:21:13
	cmp	w9, #16
	b.lo	LBB1_44
Ltmp273:
; %bb.52:                               ;   in Loop: Header=BB1_46 Depth=2
	;DEBUG_VALUE: extr_alu:shift <- [DW_OP_plus_uconst 88, DW_OP_deref_size 8, DW_OP_constu 58, DW_OP_shr, DW_OP_LLVM_convert 64 7, DW_OP_LLVM_convert 32 7, DW_OP_constu 31, DW_OP_and, DW_OP_stack_value] $sp
	;DEBUG_VALUE: extr_alu:operand <- [DW_OP_plus_uconst 88] [$sp+0]
	;DEBUG_VALUE: extr_alu:val <- $x8
	;DEBUG_VALUE: val <- $x8
	;DEBUG_VALUE: j <- $w27
	;DEBUG_VALUE: emulate_AMX_EXTRY:dst_offset <- [DW_OP_plus_uconst 40] [$sp+0]
	;DEBUG_VALUE: emulate_AMX_EXTRY:dst <- [DW_OP_plus_uconst 24] [$sp+0]
	;DEBUG_VALUE: emulate_AMX_EXTRY:z_col <- $x23
	;DEBUG_VALUE: emulate_AMX_EXTRY:operand <- [DW_OP_plus_uconst 88] [$sp+0]
	;DEBUG_VALUE: emulate_AMX_EXTRY:z_step <- [DW_OP_plus_uconst 32] [$sp+0]
	;DEBUG_VALUE: emulate_AMX_EXTRY:stride <- [DW_OP_plus_uconst 100] [$sp+0]
	;DEBUG_VALUE: bf16_from_f32:f <- $w8
	.loc	4 12 12                         ; extr.c:12:12
	and	w9, w8, #0x7fffffff
Ltmp274:
	;DEBUG_VALUE: bf16_from_f32:low <- undef
	.loc	4 14 7                          ; extr.c:14:7
	lsr	w10, w8, #16
Ltmp275:
	;DEBUG_VALUE: bf16_from_f32:f <- $w10
	.loc	4 15 26                         ; extr.c:15:26
	ubfx	w11, w8, #16, #1
	.loc	4 15 21 is_stmt 0               ; extr.c:15:21
	add	w8, w11, w8, uxth
Ltmp276:
	.loc	4 15 31                         ; extr.c:15:31
	cmp	w8, #8, lsl #12                 ; =32768
	.loc	4 15 14                         ; extr.c:15:14
	cinc	w8, w10, hi
	.loc	4 12 9 is_stmt 1                ; extr.c:12:9
	mov	w10, #2139095040
Ltmp277:
	cmp	w9, w10
	mov	w9, #32704
	csel	x8, x9, x8, hi
	b	LBB1_45
Ltmp278:
LBB1_53:                                ;   in Loop: Header=BB1_46 Depth=2
	;DEBUG_VALUE: hi <- [DW_OP_plus_uconst 64] [$sp+0]
	;DEBUG_VALUE: extr_alu:shift <- [DW_OP_plus_uconst 88, DW_OP_deref_size 8, DW_OP_constu 58, DW_OP_shr, DW_OP_LLVM_convert 64 7, DW_OP_LLVM_convert 32 7, DW_OP_constu 31, DW_OP_and, DW_OP_stack_value] $sp
	;DEBUG_VALUE: extr_alu:operand <- [DW_OP_plus_uconst 88] [$sp+0]
	;DEBUG_VALUE: extr_alu:val <- $x8
	;DEBUG_VALUE: j <- $w27
	;DEBUG_VALUE: emulate_AMX_EXTRY:dst_offset <- [DW_OP_plus_uconst 40] [$sp+0]
	;DEBUG_VALUE: emulate_AMX_EXTRY:dst <- [DW_OP_plus_uconst 24] [$sp+0]
	;DEBUG_VALUE: emulate_AMX_EXTRY:z_col <- $x23
	;DEBUG_VALUE: emulate_AMX_EXTRY:operand <- [DW_OP_plus_uconst 88] [$sp+0]
	;DEBUG_VALUE: emulate_AMX_EXTRY:z_step <- [DW_OP_plus_uconst 32] [$sp+0]
	;DEBUG_VALUE: emulate_AMX_EXTRY:stride <- [DW_OP_plus_uconst 100] [$sp+0]
	;DEBUG_VALUE: lo <- [DW_OP_plus_uconst 48] [$sp+0]
	.loc	4 0 9 is_stmt 0                 ; extr.c:0:9
	ldr	x9, [sp, #48]                   ; 8-byte Folded Reload
Ltmp279:
	.loc	4 37 17 is_stmt 1               ; extr.c:37:17
	cmp	x8, x9
	csel	x8, x8, x9, gt
Ltmp280:
	;DEBUG_VALUE: extr_alu:val <- $x8
	.loc	4 0 17 is_stmt 0                ; extr.c:0:17
	ldr	x9, [sp, #64]                   ; 8-byte Folded Reload
	.loc	4 38 17 is_stmt 1               ; extr.c:38:17
	cmp	x8, x9
	ldr	x9, [sp, #56]                   ; 8-byte Folded Reload
	csel	x8, x8, x9, lt
Ltmp281:
	;DEBUG_VALUE: extr_alu:val <- $x8
	.loc	4 0 17 is_stmt 0                ; extr.c:0:17
	b	LBB1_45
Ltmp282:
LBB1_54:                                ;   in Loop: Header=BB1_43 Depth=1
	;DEBUG_VALUE: emulate_AMX_EXTRY:dst_offset <- [DW_OP_plus_uconst 40] [$sp+0]
	;DEBUG_VALUE: emulate_AMX_EXTRY:dst <- [DW_OP_plus_uconst 24] [$sp+0]
	;DEBUG_VALUE: emulate_AMX_EXTRY:z_col <- $x23
	;DEBUG_VALUE: emulate_AMX_EXTRY:operand <- [DW_OP_plus_uconst 88] [$sp+0]
	;DEBUG_VALUE: emulate_AMX_EXTRY:z_step <- [DW_OP_plus_uconst 32] [$sp+0]
	;DEBUG_VALUE: emulate_AMX_EXTRY:stride <- [DW_OP_plus_uconst 100] [$sp+0]
	ldr	x8, [sp, #8]                    ; 8-byte Folded Reload
	.loc	4 169 13 is_stmt 1              ; extr.c:169:13
	mov	x9, #12884901888
	cmp	x8, x9
	b.ne	LBB1_56
Ltmp283:
; %bb.55:                               ;   in Loop: Header=BB1_43 Depth=1
	;DEBUG_VALUE: emulate_AMX_EXTRY:dst_offset <- [DW_OP_plus_uconst 40] [$sp+0]
	;DEBUG_VALUE: emulate_AMX_EXTRY:dst <- [DW_OP_plus_uconst 24] [$sp+0]
	;DEBUG_VALUE: emulate_AMX_EXTRY:z_col <- $x23
	;DEBUG_VALUE: emulate_AMX_EXTRY:operand <- [DW_OP_plus_uconst 88] [$sp+0]
	;DEBUG_VALUE: emulate_AMX_EXTRY:z_step <- [DW_OP_plus_uconst 32] [$sp+0]
	;DEBUG_VALUE: emulate_AMX_EXTRY:stride <- [DW_OP_plus_uconst 100] [$sp+0]
	.loc	4 0 13 is_stmt 0                ; extr.c:0:13
	movi.2d	v0, #0000000000000000
Ltmp284:
	.loc	4 170 13 is_stmt 1              ; extr.c:170:13
	stp	q0, q0, [sp, #144]
	stp	q0, q0, [sp, #112]
Ltmp285:
LBB1_56:                                ;   in Loop: Header=BB1_43 Depth=1
	;DEBUG_VALUE: emulate_AMX_EXTRY:dst_offset <- [DW_OP_plus_uconst 40] [$sp+0]
	;DEBUG_VALUE: emulate_AMX_EXTRY:dst <- [DW_OP_plus_uconst 24] [$sp+0]
	;DEBUG_VALUE: emulate_AMX_EXTRY:z_col <- $x23
	;DEBUG_VALUE: emulate_AMX_EXTRY:operand <- [DW_OP_plus_uconst 88] [$sp+0]
	;DEBUG_VALUE: emulate_AMX_EXTRY:z_step <- [DW_OP_plus_uconst 32] [$sp+0]
	;DEBUG_VALUE: emulate_AMX_EXTRY:stride <- [DW_OP_plus_uconst 100] [$sp+0]
	.loc	4 0 13 is_stmt 0                ; extr.c:0:13
	mov	x8, #0
	ldr	x1, [sp, #40]                   ; 8-byte Folded Reload
	ldp	x17, x16, [sp, #16]             ; 16-byte Folded Reload
	b	LBB1_58
Ltmp286:
LBB1_57:                                ;   in Loop: Header=BB1_58 Depth=2
	;DEBUG_VALUE: i <- $x8
	;DEBUG_VALUE: emulate_AMX_EXTRY:dst_offset <- [DW_OP_plus_uconst 40] [$sp+0]
	;DEBUG_VALUE: emulate_AMX_EXTRY:dst <- [DW_OP_plus_uconst 24] [$sp+0]
	;DEBUG_VALUE: emulate_AMX_EXTRY:z_col <- $x23
	;DEBUG_VALUE: emulate_AMX_EXTRY:operand <- [DW_OP_plus_uconst 88] [$sp+0]
	;DEBUG_VALUE: emulate_AMX_EXTRY:z_step <- [DW_OP_plus_uconst 32] [$sp+0]
	;DEBUG_VALUE: emulate_AMX_EXTRY:stride <- [DW_OP_plus_uconst 100] [$sp+0]
	.loc	4 47 34 is_stmt 1               ; extr.c:47:34
	add	x8, x8, #1
Ltmp287:
	;DEBUG_VALUE: i <- $x8
	.loc	4 47 5 is_stmt 0                ; extr.c:47:5
	cmp	x8, #64
	b.eq	LBB1_42
Ltmp288:
LBB1_58:                                ;   Parent Loop BB1_43 Depth=1
                                        ; =>  This Inner Loop Header: Depth=2
	;DEBUG_VALUE: emulate_AMX_EXTRY:dst_offset <- [DW_OP_plus_uconst 40] [$sp+0]
	;DEBUG_VALUE: emulate_AMX_EXTRY:dst <- [DW_OP_plus_uconst 24] [$sp+0]
	;DEBUG_VALUE: emulate_AMX_EXTRY:z_col <- $x23
	;DEBUG_VALUE: emulate_AMX_EXTRY:operand <- [DW_OP_plus_uconst 88] [$sp+0]
	;DEBUG_VALUE: emulate_AMX_EXTRY:z_step <- [DW_OP_plus_uconst 32] [$sp+0]
	;DEBUG_VALUE: emulate_AMX_EXTRY:stride <- [DW_OP_plus_uconst 100] [$sp+0]
	;DEBUG_VALUE: i <- $x8
	.loc	4 48 13 is_stmt 1               ; extr.c:48:13
	lsr	x9, x17, x8
	tbz	w9, #0, LBB1_57
Ltmp289:
; %bb.59:                               ;   in Loop: Header=BB1_58 Depth=2
	;DEBUG_VALUE: i <- $x8
	;DEBUG_VALUE: emulate_AMX_EXTRY:dst_offset <- [DW_OP_plus_uconst 40] [$sp+0]
	;DEBUG_VALUE: emulate_AMX_EXTRY:dst <- [DW_OP_plus_uconst 24] [$sp+0]
	;DEBUG_VALUE: emulate_AMX_EXTRY:z_col <- $x23
	;DEBUG_VALUE: emulate_AMX_EXTRY:operand <- [DW_OP_plus_uconst 88] [$sp+0]
	;DEBUG_VALUE: emulate_AMX_EXTRY:z_step <- [DW_OP_plus_uconst 32] [$sp+0]
	;DEBUG_VALUE: emulate_AMX_EXTRY:stride <- [DW_OP_plus_uconst 100] [$sp+0]
	.loc	4 49 49                         ; extr.c:49:49
	add	x9, sp, #112
	ldrb	w9, [x9, x8]
	.loc	4 49 38 is_stmt 0               ; extr.c:49:38
	add	w10, w1, w8
	and	x10, x10, #0x1ff
	.loc	4 49 47                         ; extr.c:49:47
	strb	w9, [x16, x10]
	b	LBB1_57
Ltmp290:
LBB1_60:
	;DEBUG_VALUE: parse_writemask:val <- $w10
	;DEBUG_VALUE: parse_writemask:all <- -1
	;DEBUG_VALUE: parse_writemask:mode <- $w11
	;DEBUG_VALUE: parse_writemask:g <- $w9
	;DEBUG_VALUE: parse_writemask:maskbits <- 9
	;DEBUG_VALUE: emulate_AMX_EXTRY:z_step <- [DW_OP_plus_uconst 32] [$sp+0]
	;DEBUG_VALUE: emulate_AMX_EXTRY:zbytes <- $w8
	;DEBUG_VALUE: emulate_AMX_EXTRY:xybytes <- $w9
	;DEBUG_VALUE: emulate_AMX_EXTRY:stride <- [DW_OP_plus_uconst 100] [$sp+0]
	;DEBUG_VALUE: emulate_AMX_EXTRY:dst <- $x16
	;DEBUG_VALUE: emulate_AMX_EXTRY:dst_offset <- $x1
	;DEBUG_VALUE: emulate_AMX_EXTRY:store_enable <- -1
	;DEBUG_VALUE: emulate_AMX_EXTRY:state <- $x0
	.loc	4 0 47                          ; extr.c:0:47
	mov	x17, #-1
	b	LBB1_41
Ltmp291:
LBB1_61:
	;DEBUG_VALUE: emulate_AMX_EXTRY:dst <- $x16
	;DEBUG_VALUE: emulate_AMX_EXTRY:dst_offset <- $x1
	;DEBUG_VALUE: emulate_AMX_EXTRY:z_step <- 64
	;DEBUG_VALUE: emulate_AMX_EXTRY:store_enable <- -1
	;DEBUG_VALUE: emulate_AMX_EXTRY:stride <- 0
	;DEBUG_VALUE: emulate_AMX_EXTRY:operand <- $x1
	;DEBUG_VALUE: emulate_AMX_EXTRY:state <- $x0
	;DEBUG_VALUE: emulate_AMX_EXTRY:xybytes <- 2
	.loc	4 137 35 is_stmt 1              ; extr.c:137:35
	ldr	w8, [x10]
	mov	w9, #2
	mov	w11, #4
	.loc	4 137 43 is_stmt 0              ; extr.c:137:43
	cmp	w8, #1
	csel	w8, w11, w9, hi
	cset	w11, hi
	str	w11, [sp, #100]                 ; 4-byte Folded Spill
	b	LBB1_28
Ltmp292:
LBB1_62:
	;DEBUG_VALUE: emulate_AMX_EXTRY:dst <- $x16
	;DEBUG_VALUE: emulate_AMX_EXTRY:dst_offset <- $x1
	;DEBUG_VALUE: emulate_AMX_EXTRY:z_step <- 64
	;DEBUG_VALUE: emulate_AMX_EXTRY:store_enable <- -1
	;DEBUG_VALUE: emulate_AMX_EXTRY:stride <- 0
	;DEBUG_VALUE: emulate_AMX_EXTRY:operand <- $x1
	;DEBUG_VALUE: emulate_AMX_EXTRY:state <- $x0
	;DEBUG_VALUE: emulate_AMX_EXTRY:xybytes <- 2
	.loc	4 138 35 is_stmt 1              ; extr.c:138:35
	ldr	w8, [x10]
	mov	w9, #2
	mov	w11, #4
	cmp	w8, #1
	csel	w8, w11, w9, hi
	cset	w11, hi
	lsl	w11, w11, #1
	str	w11, [sp, #100]                 ; 4-byte Folded Spill
	b	LBB1_28
Ltmp293:
LBB1_63:
	;DEBUG_VALUE: emulate_AMX_EXTRY:dst_offset <- $x1
	.loc	4 0 35 is_stmt 0                ; extr.c:0:35
	bl	___stack_chk_fail
Ltmp294:
	.loh AdrpLdrGotLdr	Lloh14, Lloh15, Lloh16
	.loh AdrpAdd	Lloh17, Lloh18
	.loh AdrpLdrGot	Lloh19, Lloh20
	.loh AdrpAdd	Lloh21, Lloh22
	.loh AdrpLdrGotLdr	Lloh23, Lloh24, Lloh25
	.loh AdrpAdd	Lloh26, Lloh27
Lfunc_end1:
	.cfi_endproc
	.p2align	2
lJTI1_0:
	.long	LBB1_28-Ltmp171
	.long	LBB1_20-Ltmp171
	.long	LBB1_20-Ltmp171
	.long	LBB1_20-Ltmp171
	.long	LBB1_20-Ltmp171
	.long	LBB1_20-Ltmp171
	.long	LBB1_20-Ltmp171
	.long	LBB1_20-Ltmp171
	.long	LBB1_9-Ltmp171
	.long	LBB1_21-Ltmp171
	.long	LBB1_22-Ltmp171
	.long	LBB1_23-Ltmp171
	.long	LBB1_20-Ltmp171
	.long	LBB1_24-Ltmp171
	.long	LBB1_20-Ltmp171
	.long	LBB1_20-Ltmp171
	.long	LBB1_20-Ltmp171
	.long	LBB1_26-Ltmp171
	.long	LBB1_20-Ltmp171
	.long	LBB1_20-Ltmp171
	.long	LBB1_20-Ltmp171
	.long	LBB1_20-Ltmp171
	.long	LBB1_20-Ltmp171
	.long	LBB1_20-Ltmp171
	.long	LBB1_9-Ltmp171
	.long	LBB1_61-Ltmp171
	.long	LBB1_62-Ltmp171
	.p2align	2
lJTI1_1:
	.long	LBB1_30-Ltmp211
	.long	LBB1_35-Ltmp211
	.long	LBB1_36-Ltmp211
	.long	LBB1_38-Ltmp211
	.long	LBB1_37-Ltmp211
	.long	LBB1_39-Ltmp211
	.p2align	2
lJTI1_2:
	.long	LBB1_3-Ltmp158
	.long	LBB1_18-Ltmp158
	.long	LBB1_13-Ltmp158
	.long	LBB1_15-Ltmp158
                                        ; -- End function
	.file	7 "/Library/Developer/CommandLineTools/SDKs/MacOSX.sdk/usr/include/_types" "_uint16_t.h"
	.file	8 "/Library/Developer/CommandLineTools/SDKs/MacOSX.sdk/usr/include/sys/_types" "_int8_t.h"
	.file	9 "/Library/Developer/CommandLineTools/SDKs/MacOSX.sdk/usr/include/sys/_types" "_int16_t.h"
	.file	10 "/Library/Developer/CommandLineTools/SDKs/MacOSX.sdk/usr/include/sys/_types" "_int32_t.h"