	.section	__TEXT,__text,regular,pure_instructions
	.build_version macos, 14, 0	sdk_version 14, 4
	.file	1 "/Library/Developer/CommandLineTools/SDKs/MacOSX.sdk/usr/include/_types" "_uint8_t.h"
	.globl	_emulate_AMX_FMA64              ; -- Begin function emulate_AMX_FMA64
	.p2align	2
_emulate_AMX_FMA64:                     ; @emulate_AMX_FMA64
Lfunc_begin0:
	.file	2 "/Users/tarindujayatilaka/Documents/superopt/apple-amx" "fma.c"
	.loc	2 62 0                          ; fma.c:62:0
	.cfi_startproc
; %bb.0:
	;DEBUG_VALUE: emulate_AMX_FMA64:state <- $x0
	;DEBUG_VALUE: emulate_AMX_FMA64:operand <- $x1
	;DEBUG_VALUE: emulate_AMX_FMA64:operand <- $x1
	;DEBUG_VALUE: emulate_AMX_FMA64:state <- $x0
	sub	sp, sp, #240
	.cfi_def_cfa_offset 240
	stp	x28, x27, [sp, #144]            ; 16-byte Folded Spill
	stp	x26, x25, [sp, #160]            ; 16-byte Folded Spill
	stp	x24, x23, [sp, #176]            ; 16-byte Folded Spill
	stp	x22, x21, [sp, #192]            ; 16-byte Folded Spill
	stp	x20, x19, [sp, #208]            ; 16-byte Folded Spill
	stp	x29, x30, [sp, #224]            ; 16-byte Folded Spill
	add	x29, sp, #224
	.cfi_def_cfa w29, 16
	.cfi_offset w30, -8
	.cfi_offset w29, -16
	.cfi_offset w19, -24
	.cfi_offset w20, -32
	.cfi_offset w21, -40
	.cfi_offset w22, -48
	.cfi_offset w23, -56
	.cfi_offset w24, -64
	.cfi_offset w25, -72
	.cfi_offset w26, -80
	.cfi_offset w27, -88
	.cfi_offset w28, -96
Lloh0:
	adrp	x8, ___stack_chk_guard@GOTPAGE
Lloh1:
	ldr	x8, [x8, ___stack_chk_guard@GOTPAGEOFF]
Lloh2:
	ldr	x8, [x8]
	stur	x8, [x29, #-88]
Ltmp0:
	.loc	2 63 33 prologue_end            ; fma.c:63:33
	and	x23, x1, #0x1ff
Ltmp1:
	;DEBUG_VALUE: emulate_AMX_FMA64:y_offset <- $x23
	.loc	2 64 41                         ; fma.c:64:41
	ubfx	x8, x1, #10, #9
Ltmp2:
	;DEBUG_VALUE: emulate_AMX_FMA64:x_offset <- $x8
	.loc	2 65 38                         ; fma.c:65:38
	ubfx	x15, x1, #20, #6
Ltmp3:
	;DEBUG_VALUE: emulate_AMX_FMA64:z_row <- $x15
	.loc	2 66 49                         ; fma.c:66:49
	lsr	x9, x1, #41
	mov	w10, #3
Ltmp4:
	;DEBUG_VALUE: parse_writemask:maskbits <- 7
	;DEBUG_VALUE: parse_writemask:g <- 8
	;DEBUG_VALUE: parse_writemask:val <- $w9
	.file	3 "/Users/tarindujayatilaka/Documents/superopt/apple-amx" "./emulate.h"
	.loc	3 67 9                          ; ./emulate.h:67:9
	ands	w11, w10, w9, lsr #5
Ltmp5:
	;DEBUG_VALUE: parse_writemask:mode <- $w11
	.loc	3 0 9 is_stmt 0                 ; ./emulate.h:0:9
	mov	w10, #8
	.loc	3 67 9                          ; ./emulate.h:67:9
	csinc	w10, w10, wzr, ne
	mul	w10, w10, w9
Ltmp6:
	;DEBUG_VALUE: parse_writemask:val <- $w10
	.loc	3 68 9 is_stmt 1                ; ./emulate.h:68:9
	and	w9, w10, #0x3f
Ltmp7:
	;DEBUG_VALUE: parse_writemask:all <- -1
	;DEBUG_VALUE: parse_writemask:val <- $w9
	.loc	3 0 9 is_stmt 0                 ; ./emulate.h:0:9
	mov	x19, x1
Ltmp8:
	;DEBUG_VALUE: emulate_AMX_FMA64:operand <- $x19
	mov	x20, x0
Ltmp9:
	;DEBUG_VALUE: emulate_AMX_FMA64:state <- $x20
Lloh3:
	adrp	x12, lJTI0_0@PAGE
Lloh4:
	add	x12, x12, lJTI0_0@PAGEOFF
Ltmp10:
	adr	x13, Ltmp10
	ldrsw	x14, [x12, x11, lsl #2]
	add	x13, x13, x14
	br	x13
Ltmp11:
LBB0_1:
	;DEBUG_VALUE: emulate_AMX_FMA64:state <- $x20
	;DEBUG_VALUE: emulate_AMX_FMA64:operand <- $x19
	;DEBUG_VALUE: parse_writemask:all <- -1
	;DEBUG_VALUE: parse_writemask:mode <- $w11
	;DEBUG_VALUE: parse_writemask:val <- $w9
	;DEBUG_VALUE: parse_writemask:g <- 8
	;DEBUG_VALUE: parse_writemask:maskbits <- 7
	;DEBUG_VALUE: emulate_AMX_FMA64:z_row <- $x15
	;DEBUG_VALUE: emulate_AMX_FMA64:x_offset <- $x8
	;DEBUG_VALUE: emulate_AMX_FMA64:y_offset <- $x23
	.loc	3 72 22 is_stmt 1               ; ./emulate.h:72:22
	sub	w11, w9, #1
Ltmp12:
	ubfiz	w10, w10, #3, #1
	mov	x12, #71777214294589695
	lsl	x10, x12, x10
	cmp	w11, #2
	csinv	x10, x10, xzr, lo
Ltmp13:
	;DEBUG_VALUE: parse_writemask:all <- $x10
	.loc	3 83 16                         ; ./emulate.h:83:16
	cmp	w9, #3
	csel	x24, x10, xzr, lo
	b	LBB0_8
Ltmp14:
LBB0_2:
	;DEBUG_VALUE: emulate_AMX_FMA64:state <- $x20
	;DEBUG_VALUE: emulate_AMX_FMA64:operand <- $x19
	;DEBUG_VALUE: parse_writemask:all <- -1
	;DEBUG_VALUE: parse_writemask:mode <- $w11
	;DEBUG_VALUE: parse_writemask:val <- $w9
	;DEBUG_VALUE: parse_writemask:g <- 8
	;DEBUG_VALUE: parse_writemask:maskbits <- 7
	;DEBUG_VALUE: emulate_AMX_FMA64:z_row <- $x15
	;DEBUG_VALUE: emulate_AMX_FMA64:x_offset <- $x8
	;DEBUG_VALUE: emulate_AMX_FMA64:y_offset <- $x23
	.loc	3 0 16 is_stmt 0                ; ./emulate.h:0:16
	mov	x24, #-1
	.loc	3 88 13 is_stmt 1               ; ./emulate.h:88:13
	cbz	w9, LBB0_8
Ltmp15:
; %bb.3:
	;DEBUG_VALUE: emulate_AMX_FMA64:state <- $x20
	;DEBUG_VALUE: emulate_AMX_FMA64:operand <- $x19
	;DEBUG_VALUE: parse_writemask:all <- -1
	;DEBUG_VALUE: parse_writemask:mode <- $w11
	;DEBUG_VALUE: parse_writemask:val <- $w9
	;DEBUG_VALUE: parse_writemask:g <- 8
	;DEBUG_VALUE: parse_writemask:maskbits <- 7
	;DEBUG_VALUE: emulate_AMX_FMA64:z_row <- $x15
	;DEBUG_VALUE: emulate_AMX_FMA64:x_offset <- $x8
	;DEBUG_VALUE: emulate_AMX_FMA64:y_offset <- $x23
	.loc	3 91 22                         ; ./emulate.h:91:22
	lsl	x9, x24, x9
Ltmp16:
	.loc	3 0 22 is_stmt 0                ; ./emulate.h:0:22
	b	LBB0_6
Ltmp17:
LBB0_4:
	;DEBUG_VALUE: emulate_AMX_FMA64:state <- $x20
	;DEBUG_VALUE: emulate_AMX_FMA64:operand <- $x19
	;DEBUG_VALUE: parse_writemask:all <- -1
	;DEBUG_VALUE: parse_writemask:mode <- $w11
	;DEBUG_VALUE: parse_writemask:val <- $w9
	;DEBUG_VALUE: parse_writemask:g <- 8
	;DEBUG_VALUE: parse_writemask:maskbits <- 7
	;DEBUG_VALUE: emulate_AMX_FMA64:z_row <- $x15
	;DEBUG_VALUE: emulate_AMX_FMA64:x_offset <- $x8
	;DEBUG_VALUE: emulate_AMX_FMA64:y_offset <- $x23
	mov	x24, #-1
	.loc	3 93 13 is_stmt 1               ; ./emulate.h:93:13
	cbz	w9, LBB0_8
Ltmp18:
; %bb.5:
	;DEBUG_VALUE: emulate_AMX_FMA64:state <- $x20
	;DEBUG_VALUE: emulate_AMX_FMA64:operand <- $x19
	;DEBUG_VALUE: parse_writemask:all <- -1
	;DEBUG_VALUE: parse_writemask:mode <- $w11
	;DEBUG_VALUE: parse_writemask:val <- $w9
	;DEBUG_VALUE: parse_writemask:g <- 8
	;DEBUG_VALUE: parse_writemask:maskbits <- 7
	;DEBUG_VALUE: emulate_AMX_FMA64:z_row <- $x15
	;DEBUG_VALUE: emulate_AMX_FMA64:x_offset <- $x8
	;DEBUG_VALUE: emulate_AMX_FMA64:y_offset <- $x23
	.loc	3 96 22                         ; ./emulate.h:96:22
	lsr	x9, x24, x9
Ltmp19:
LBB0_6:
	;DEBUG_VALUE: emulate_AMX_FMA64:state <- $x20
	;DEBUG_VALUE: emulate_AMX_FMA64:operand <- $x19
	;DEBUG_VALUE: parse_writemask:all <- -1
	;DEBUG_VALUE: parse_writemask:mode <- $w11
	;DEBUG_VALUE: parse_writemask:g <- 8
	;DEBUG_VALUE: parse_writemask:maskbits <- 7
	;DEBUG_VALUE: emulate_AMX_FMA64:z_row <- $x15
	;DEBUG_VALUE: emulate_AMX_FMA64:x_offset <- $x8
	;DEBUG_VALUE: emulate_AMX_FMA64:y_offset <- $x23
	.loc	3 0 0 is_stmt 0                 ; ./emulate.h:0:0
	mvn	x24, x9
	b	LBB0_8
Ltmp20:
LBB0_7:
	;DEBUG_VALUE: emulate_AMX_FMA64:state <- $x20
	;DEBUG_VALUE: emulate_AMX_FMA64:operand <- $x19
	;DEBUG_VALUE: parse_writemask:all <- -1
	;DEBUG_VALUE: parse_writemask:mode <- $w11
	;DEBUG_VALUE: parse_writemask:val <- $w9
	;DEBUG_VALUE: parse_writemask:g <- 8
	;DEBUG_VALUE: parse_writemask:maskbits <- 7
	;DEBUG_VALUE: emulate_AMX_FMA64:z_row <- $x15
	;DEBUG_VALUE: emulate_AMX_FMA64:x_offset <- $x8
	;DEBUG_VALUE: emulate_AMX_FMA64:y_offset <- $x23
	mov	w10, #255
	.loc	3 86 30 is_stmt 1               ; ./emulate.h:86:30
	lsl	x24, x10, x9
Ltmp21:
LBB0_8:
	;DEBUG_VALUE: emulate_AMX_FMA64:state <- $x20
	;DEBUG_VALUE: emulate_AMX_FMA64:operand <- $x19
	;DEBUG_VALUE: emulate_AMX_FMA64:z_row <- $x15
	;DEBUG_VALUE: emulate_AMX_FMA64:x_offset <- $x8
	;DEBUG_VALUE: emulate_AMX_FMA64:y_offset <- $x23
	;DEBUG_VALUE: emulate_AMX_FMA64:x_enable <- $x24
	.loc	2 67 49                         ; fma.c:67:49
	lsr	x9, x19, #32
Ltmp22:
	;DEBUG_VALUE: parse_writemask:maskbits <- 7
	;DEBUG_VALUE: parse_writemask:g <- 8
	;DEBUG_VALUE: parse_writemask:val <- $w9
	.loc	3 66 61                         ; ./emulate.h:66:61
	lsr	x10, x19, #37
	.loc	3 67 9                          ; ./emulate.h:67:9
	ands	w11, w10, #0x3
Ltmp23:
	;DEBUG_VALUE: parse_writemask:mode <- $w11
	.loc	3 0 9 is_stmt 0                 ; ./emulate.h:0:9
	mov	w10, #8
	.loc	3 67 9                          ; ./emulate.h:67:9
	csinc	w10, w10, wzr, ne
	mul	w10, w10, w9
Ltmp24:
	;DEBUG_VALUE: parse_writemask:val <- $w10
	.loc	3 68 9 is_stmt 1                ; ./emulate.h:68:9
	and	w9, w10, #0x3f
Ltmp25:
	;DEBUG_VALUE: parse_writemask:all <- -1
	;DEBUG_VALUE: parse_writemask:val <- $w9
	.loc	3 0 9 is_stmt 0                 ; ./emulate.h:0:9
Lloh5:
	adrp	x12, lJTI0_1@PAGE
Lloh6:
	add	x12, x12, lJTI0_1@PAGEOFF
Ltmp26:
	adr	x13, Ltmp26
	ldrsw	x14, [x12, x11, lsl #2]
	add	x13, x13, x14
	str	x15, [sp]                       ; 8-byte Folded Spill
Ltmp27:
	;DEBUG_VALUE: emulate_AMX_FMA64:z_row <- [$sp+0]
	br	x13
Ltmp28:
LBB0_9:
	;DEBUG_VALUE: emulate_AMX_FMA64:z_row <- [$sp+0]
	;DEBUG_VALUE: parse_writemask:all <- -1
	;DEBUG_VALUE: parse_writemask:mode <- $w11
	;DEBUG_VALUE: parse_writemask:val <- $w9
	;DEBUG_VALUE: parse_writemask:g <- 8
	;DEBUG_VALUE: parse_writemask:maskbits <- 7
	;DEBUG_VALUE: emulate_AMX_FMA64:x_enable <- $x24
	;DEBUG_VALUE: emulate_AMX_FMA64:state <- $x20
	;DEBUG_VALUE: emulate_AMX_FMA64:operand <- $x19
	;DEBUG_VALUE: emulate_AMX_FMA64:x_offset <- $x8
	;DEBUG_VALUE: emulate_AMX_FMA64:y_offset <- $x23
	.loc	3 72 22 is_stmt 1               ; ./emulate.h:72:22
	sub	w11, w9, #1
Ltmp29:
	ubfiz	w10, w10, #3, #1
	mov	x12, #71777214294589695
	lsl	x10, x12, x10
	cmp	w11, #2
	csinv	x10, x10, xzr, lo
Ltmp30:
	;DEBUG_VALUE: parse_writemask:all <- $x10
	.loc	3 83 16                         ; ./emulate.h:83:16
	cmp	w9, #3
	csel	x25, x10, xzr, lo
	b	LBB0_16
Ltmp31:
LBB0_10:
	;DEBUG_VALUE: emulate_AMX_FMA64:z_row <- [$sp+0]
	;DEBUG_VALUE: parse_writemask:all <- -1
	;DEBUG_VALUE: parse_writemask:mode <- $w11
	;DEBUG_VALUE: parse_writemask:val <- $w9
	;DEBUG_VALUE: parse_writemask:g <- 8
	;DEBUG_VALUE: parse_writemask:maskbits <- 7
	;DEBUG_VALUE: emulate_AMX_FMA64:x_enable <- $x24
	;DEBUG_VALUE: emulate_AMX_FMA64:state <- $x20
	;DEBUG_VALUE: emulate_AMX_FMA64:operand <- $x19
	;DEBUG_VALUE: emulate_AMX_FMA64:x_offset <- $x8
	;DEBUG_VALUE: emulate_AMX_FMA64:y_offset <- $x23
	.loc	3 0 16 is_stmt 0                ; ./emulate.h:0:16
	mov	x25, #-1
	.loc	3 88 13 is_stmt 1               ; ./emulate.h:88:13
	cbz	w9, LBB0_16
Ltmp32:
; %bb.11:
	;DEBUG_VALUE: emulate_AMX_FMA64:z_row <- [$sp+0]
	;DEBUG_VALUE: parse_writemask:all <- -1
	;DEBUG_VALUE: parse_writemask:mode <- $w11
	;DEBUG_VALUE: parse_writemask:val <- $w9
	;DEBUG_VALUE: parse_writemask:g <- 8
	;DEBUG_VALUE: parse_writemask:maskbits <- 7
	;DEBUG_VALUE: emulate_AMX_FMA64:x_enable <- $x24
	;DEBUG_VALUE: emulate_AMX_FMA64:state <- $x20
	;DEBUG_VALUE: emulate_AMX_FMA64:operand <- $x19
	;DEBUG_VALUE: emulate_AMX_FMA64:x_offset <- $x8
	;DEBUG_VALUE: emulate_AMX_FMA64:y_offset <- $x23
	.loc	3 91 22                         ; ./emulate.h:91:22
	lsl	x9, x25, x9
Ltmp33:
	.loc	3 0 22 is_stmt 0                ; ./emulate.h:0:22
	b	LBB0_14
Ltmp34:
LBB0_12:
	;DEBUG_VALUE: emulate_AMX_FMA64:z_row <- [$sp+0]
	;DEBUG_VALUE: parse_writemask:all <- -1
	;DEBUG_VALUE: parse_writemask:mode <- $w11
	;DEBUG_VALUE: parse_writemask:val <- $w9
	;DEBUG_VALUE: parse_writemask:g <- 8
	;DEBUG_VALUE: parse_writemask:maskbits <- 7
	;DEBUG_VALUE: emulate_AMX_FMA64:x_enable <- $x24
	;DEBUG_VALUE: emulate_AMX_FMA64:state <- $x20
	;DEBUG_VALUE: emulate_AMX_FMA64:operand <- $x19
	;DEBUG_VALUE: emulate_AMX_FMA64:x_offset <- $x8
	;DEBUG_VALUE: emulate_AMX_FMA64:y_offset <- $x23
	mov	x25, #-1
	.loc	3 93 13 is_stmt 1               ; ./emulate.h:93:13
	cbz	w9, LBB0_16
Ltmp35:
; %bb.13:
	;DEBUG_VALUE: emulate_AMX_FMA64:z_row <- [$sp+0]
	;DEBUG_VALUE: parse_writemask:all <- -1
	;DEBUG_VALUE: parse_writemask:mode <- $w11
	;DEBUG_VALUE: parse_writemask:val <- $w9
	;DEBUG_VALUE: parse_writemask:g <- 8
	;DEBUG_VALUE: parse_writemask:maskbits <- 7
	;DEBUG_VALUE: emulate_AMX_FMA64:x_enable <- $x24
	;DEBUG_VALUE: emulate_AMX_FMA64:state <- $x20
	;DEBUG_VALUE: emulate_AMX_FMA64:operand <- $x19
	;DEBUG_VALUE: emulate_AMX_FMA64:x_offset <- $x8
	;DEBUG_VALUE: emulate_AMX_FMA64:y_offset <- $x23
	.loc	3 96 22                         ; ./emulate.h:96:22
	lsr	x9, x25, x9
Ltmp36:
LBB0_14:
	;DEBUG_VALUE: emulate_AMX_FMA64:z_row <- [$sp+0]
	;DEBUG_VALUE: parse_writemask:all <- -1
	;DEBUG_VALUE: parse_writemask:mode <- $w11
	;DEBUG_VALUE: parse_writemask:g <- 8
	;DEBUG_VALUE: parse_writemask:maskbits <- 7
	;DEBUG_VALUE: emulate_AMX_FMA64:x_enable <- $x24
	;DEBUG_VALUE: emulate_AMX_FMA64:state <- $x20
	;DEBUG_VALUE: emulate_AMX_FMA64:operand <- $x19
	;DEBUG_VALUE: emulate_AMX_FMA64:x_offset <- $x8
	;DEBUG_VALUE: emulate_AMX_FMA64:y_offset <- $x23
	.loc	3 0 0 is_stmt 0                 ; ./emulate.h:0:0
	mvn	x25, x9
	b	LBB0_16
Ltmp37:
LBB0_15:
	;DEBUG_VALUE: emulate_AMX_FMA64:z_row <- [$sp+0]
	;DEBUG_VALUE: parse_writemask:all <- -1
	;DEBUG_VALUE: parse_writemask:mode <- $w11
	;DEBUG_VALUE: parse_writemask:val <- $w9
	;DEBUG_VALUE: parse_writemask:g <- 8
	;DEBUG_VALUE: parse_writemask:maskbits <- 7
	;DEBUG_VALUE: emulate_AMX_FMA64:x_enable <- $x24
	;DEBUG_VALUE: emulate_AMX_FMA64:state <- $x20
	;DEBUG_VALUE: emulate_AMX_FMA64:operand <- $x19
	;DEBUG_VALUE: emulate_AMX_FMA64:x_offset <- $x8
	;DEBUG_VALUE: emulate_AMX_FMA64:y_offset <- $x23
	mov	w10, #255
	.loc	3 86 30 is_stmt 1               ; ./emulate.h:86:30
	lsl	x25, x10, x9
Ltmp38:
LBB0_16:
	;DEBUG_VALUE: emulate_AMX_FMA64:z_row <- [$sp+0]
	;DEBUG_VALUE: emulate_AMX_FMA64:x_enable <- $x24
	;DEBUG_VALUE: emulate_AMX_FMA64:state <- $x20
	;DEBUG_VALUE: emulate_AMX_FMA64:operand <- $x19
	;DEBUG_VALUE: emulate_AMX_FMA64:x_offset <- $x8
	;DEBUG_VALUE: emulate_AMX_FMA64:y_offset <- $x23
	;DEBUG_VALUE: emulate_AMX_FMA64:y_enable <- $x25
	.loc	3 0 30 is_stmt 0                ; ./emulate.h:0:30
	mov	w28, #512
Ltmp39:
	;DEBUG_VALUE: load_xy_reg:offset <- $x8
	;DEBUG_VALUE: load_xy_reg:src <- $x20
	;DEBUG_VALUE: load_xy_reg:dst <- [DW_OP_plus_uconst 72, DW_OP_stack_value] $sp
	.loc	3 42 26 is_stmt 1               ; ./emulate.h:42:26
	sub	x9, x28, x8
Ltmp40:
	;DEBUG_VALUE: load_xy_reg:avail <- $x9
	.loc	3 43 5                          ; ./emulate.h:43:5
	add	x1, x20, x8
	.loc	3 44 5                          ; ./emulate.h:44:5
	sub	x10, x8, #448
	mov	w26, #64
	.loc	3 43 5                          ; ./emulate.h:43:5
	cmp	x8, #449
	csel	x2, x26, x9, lo
	add	x27, sp, #72
	.loc	3 44 5                          ; ./emulate.h:44:5
	add	x21, x27, x9
	csel	x22, xzr, x10, lo
	.loc	3 43 5                          ; ./emulate.h:43:5
	add	x0, sp, #72
	mov	w3, #64
	bl	___memcpy_chk
Ltmp41:
	.loc	3 44 5                          ; ./emulate.h:44:5
	mov	x0, x21
	mov	x1, x20
	mov	x2, x22
	bl	_memcpy
Ltmp42:
	.loc	2 72 27                         ; fma.c:72:27
	add	x21, x20, #512
Ltmp43:
	;DEBUG_VALUE: load_xy_reg:offset <- $x23
	;DEBUG_VALUE: load_xy_reg:dst <- [DW_OP_plus_uconst 8, DW_OP_stack_value] $sp
	;DEBUG_VALUE: load_xy_reg:src <- $x21
	.loc	3 42 26                         ; ./emulate.h:42:26
	sub	x8, x28, x23
Ltmp44:
	;DEBUG_VALUE: load_xy_reg:avail <- $x8
	.loc	3 43 5                          ; ./emulate.h:43:5
	add	x1, x21, x23
	.loc	3 44 5                          ; ./emulate.h:44:5
	sub	x9, x23, #448
	.loc	3 43 5                          ; ./emulate.h:43:5
	cmp	x23, #449
	csel	x2, x26, x8, lo
	add	x28, sp, #8
	.loc	3 44 5                          ; ./emulate.h:44:5
	add	x22, x28, x8
	csel	x23, xzr, x9, lo
Ltmp45:
	.loc	3 43 5                          ; ./emulate.h:43:5
	add	x0, sp, #8
	mov	w3, #64
	bl	___memcpy_chk
Ltmp46:
	.loc	3 44 5                          ; ./emulate.h:44:5
	mov	x0, x22
	mov	x1, x21
	mov	x2, x23
	bl	_memcpy
Ltmp47:
	;DEBUG_VALUE: i <- 0
	.loc	3 0 5 is_stmt 0                 ; ./emulate.h:0:5
	mov	x8, #0
	ldr	x9, [sp]                        ; 8-byte Folded Reload
	add	x9, x20, x9, lsl #6
	add	x9, x9, #1024
	ubfx	x11, x19, #27, #3
	ubfx	x10, x19, #20, #3
	sub	x11, x11, #1
Lloh7:
	adrp	x12, lJTI0_3@PAGE
Lloh8:
	add	x12, x12, lJTI0_3@PAGEOFF
Lloh9:
	adrp	x13, lJTI0_2@PAGE
Lloh10:
	add	x13, x13, lJTI0_2@PAGEOFF
	b	LBB0_19
Ltmp48:
LBB0_17:                                ;   in Loop: Header=BB0_19 Depth=1
	;DEBUG_VALUE: i <- $x8
	;DEBUG_VALUE: emulate_AMX_FMA64:y_enable <- $x25
	;DEBUG_VALUE: emulate_AMX_FMA64:z_row <- [$sp+0]
	;DEBUG_VALUE: emulate_AMX_FMA64:x_enable <- $x24
	;DEBUG_VALUE: emulate_AMX_FMA64:state <- $x20
	;DEBUG_VALUE: emulate_AMX_FMA64:operand <- $x19
	fmov	d0, d1
Ltmp49:
	.loc	2 78 16 is_stmt 1               ; fma.c:78:16
	str	d1, [x9, x8, lsl #3]
Ltmp50:
LBB0_18:                                ;   in Loop: Header=BB0_19 Depth=1
	;DEBUG_VALUE: i <- $x8
	;DEBUG_VALUE: emulate_AMX_FMA64:y_enable <- $x25
	;DEBUG_VALUE: emulate_AMX_FMA64:z_row <- [$sp+0]
	;DEBUG_VALUE: emulate_AMX_FMA64:x_enable <- $x24
	;DEBUG_VALUE: emulate_AMX_FMA64:state <- $x20
	;DEBUG_VALUE: emulate_AMX_FMA64:operand <- $x19
	.loc	2 74 29                         ; fma.c:74:29
	add	x8, x8, #1
Ltmp51:
	;DEBUG_VALUE: i <- $x8
	.loc	2 74 5 is_stmt 0                ; fma.c:74:5
	cmp	x8, #8
	b.eq	LBB0_43
Ltmp52:
LBB0_19:                                ; =>This Loop Header: Depth=1
                                        ;     Child Loop BB0_25 Depth 2
	;DEBUG_VALUE: emulate_AMX_FMA64:y_enable <- $x25
	;DEBUG_VALUE: emulate_AMX_FMA64:z_row <- [$sp+0]
	;DEBUG_VALUE: emulate_AMX_FMA64:x_enable <- $x24
	;DEBUG_VALUE: emulate_AMX_FMA64:state <- $x20
	;DEBUG_VALUE: emulate_AMX_FMA64:operand <- $x19
	;DEBUG_VALUE: i <- $x8
	.loc	2 75 31 is_stmt 1               ; fma.c:75:31
	lsl	x14, x8, #3
Ltmp53:
	.loc	2 75 13 is_stmt 0               ; fma.c:75:13
	lsr	x15, x24, x14
	tbz	w15, #0, LBB0_18
Ltmp54:
; %bb.20:                               ;   in Loop: Header=BB0_19 Depth=1
	;DEBUG_VALUE: i <- $x8
	;DEBUG_VALUE: emulate_AMX_FMA64:y_enable <- $x25
	;DEBUG_VALUE: emulate_AMX_FMA64:z_row <- [$sp+0]
	;DEBUG_VALUE: emulate_AMX_FMA64:x_enable <- $x24
	;DEBUG_VALUE: emulate_AMX_FMA64:state <- $x20
	;DEBUG_VALUE: emulate_AMX_FMA64:operand <- $x19
	.loc	2 76 13 is_stmt 1               ; fma.c:76:13
	tbnz	x19, #63, LBB0_34
Ltmp55:
; %bb.21:                               ;   in Loop: Header=BB0_19 Depth=1
	;DEBUG_VALUE: i <- $x8
	;DEBUG_VALUE: emulate_AMX_FMA64:y_enable <- $x25
	;DEBUG_VALUE: emulate_AMX_FMA64:z_row <- [$sp+0]
	;DEBUG_VALUE: emulate_AMX_FMA64:x_enable <- $x24
	;DEBUG_VALUE: emulate_AMX_FMA64:state <- $x20
	;DEBUG_VALUE: emulate_AMX_FMA64:operand <- $x19
	;DEBUG_VALUE: j <- 0
	.loc	2 0 13 is_stmt 0                ; fma.c:0:13
	mov	x15, #0
	b	LBB0_25
Ltmp56:
LBB0_22:                                ;   in Loop: Header=BB0_25 Depth=2
	;DEBUG_VALUE: fma64_alu:z <- $d2
	;DEBUG_VALUE: fma64_alu:x <- $d0
	;DEBUG_VALUE: fma64_alu:y <- $d1
	;DEBUG_VALUE: fma64_alu:operand <- $x19
	;DEBUG_VALUE: j <- [DW_OP_consts 8, DW_OP_div, DW_OP_stack_value] $x15
	;DEBUG_VALUE: i <- $x8
	;DEBUG_VALUE: emulate_AMX_FMA64:y_enable <- $x25
	;DEBUG_VALUE: emulate_AMX_FMA64:z_row <- [$sp+0]
	;DEBUG_VALUE: emulate_AMX_FMA64:x_enable <- $x24
	;DEBUG_VALUE: emulate_AMX_FMA64:state <- $x20
	;DEBUG_VALUE: emulate_AMX_FMA64:operand <- $x19
	fmov	d0, d1
Ltmp57:
LBB0_23:                                ;   in Loop: Header=BB0_25 Depth=2
	;DEBUG_VALUE: j <- [DW_OP_consts 8, DW_OP_div, DW_OP_stack_value] $x15
	;DEBUG_VALUE: i <- $x8
	;DEBUG_VALUE: emulate_AMX_FMA64:y_enable <- $x25
	;DEBUG_VALUE: emulate_AMX_FMA64:z_row <- [$sp+0]
	;DEBUG_VALUE: emulate_AMX_FMA64:x_enable <- $x24
	;DEBUG_VALUE: emulate_AMX_FMA64:state <- $x20
	;DEBUG_VALUE: emulate_AMX_FMA64:operand <- $x19
	.loc	2 83 20 is_stmt 1               ; fma.c:83:20
	str	d0, [x16, x8, lsl #3]
Ltmp58:
LBB0_24:                                ;   in Loop: Header=BB0_25 Depth=2
	;DEBUG_VALUE: j <- [DW_OP_consts 8, DW_OP_div, DW_OP_stack_value] $x15
	;DEBUG_VALUE: i <- $x8
	;DEBUG_VALUE: emulate_AMX_FMA64:y_enable <- $x25
	;DEBUG_VALUE: emulate_AMX_FMA64:z_row <- [$sp+0]
	;DEBUG_VALUE: emulate_AMX_FMA64:x_enable <- $x24
	;DEBUG_VALUE: emulate_AMX_FMA64:state <- $x20
	;DEBUG_VALUE: emulate_AMX_FMA64:operand <- $x19
	;DEBUG_VALUE: j <- [DW_OP_consts 8, DW_OP_div, DW_OP_consts 1, DW_OP_plus, DW_OP_stack_value] $x15
	.loc	2 80 31                         ; fma.c:80:31
	add	x15, x15, #8
Ltmp59:
	.loc	2 80 13 is_stmt 0               ; fma.c:80:13
	cmp	x15, #64
	b.eq	LBB0_18
Ltmp60:
LBB0_25:                                ;   Parent Loop BB0_19 Depth=1
                                        ; =>  This Inner Loop Header: Depth=2
	;DEBUG_VALUE: i <- $x8
	;DEBUG_VALUE: emulate_AMX_FMA64:y_enable <- $x25
	;DEBUG_VALUE: emulate_AMX_FMA64:z_row <- [$sp+0]
	;DEBUG_VALUE: emulate_AMX_FMA64:x_enable <- $x24
	;DEBUG_VALUE: emulate_AMX_FMA64:state <- $x20
	;DEBUG_VALUE: emulate_AMX_FMA64:operand <- $x19
	;DEBUG_VALUE: j <- [DW_OP_consts 8, DW_OP_div, DW_OP_stack_value] $x15
	.loc	2 81 21 is_stmt 1               ; fma.c:81:21
	lsr	x16, x25, x15
	tbz	w16, #0, LBB0_24
Ltmp61:
; %bb.26:                               ;   in Loop: Header=BB0_25 Depth=2
	;DEBUG_VALUE: j <- [DW_OP_consts 8, DW_OP_div, DW_OP_stack_value] $x15
	;DEBUG_VALUE: i <- $x8
	;DEBUG_VALUE: emulate_AMX_FMA64:y_enable <- $x25
	;DEBUG_VALUE: emulate_AMX_FMA64:z_row <- [$sp+0]
	;DEBUG_VALUE: emulate_AMX_FMA64:x_enable <- $x24
	;DEBUG_VALUE: emulate_AMX_FMA64:state <- $x20
	;DEBUG_VALUE: emulate_AMX_FMA64:operand <- $x19
	.loc	2 82 47                         ; fma.c:82:47
	orr	x16, x10, x15
	.loc	2 82 30 is_stmt 0               ; fma.c:82:30
	add	x16, x20, x16, lsl #6
	.loc	2 83 32 is_stmt 1               ; fma.c:83:32
	ldr	d0, [x27, x14]
	.loc	2 82 30                         ; fma.c:82:30
	add	x16, x16, #1024
Ltmp62:
	;DEBUG_VALUE: z <- undef
	.loc	2 83 38                         ; fma.c:83:38
	ldr	d1, [x28, x15]
	.loc	2 83 44 is_stmt 0               ; fma.c:83:44
	ldr	d2, [x16, x14]
Ltmp63:
	;DEBUG_VALUE: fma64_alu:operand <- $x19
	;DEBUG_VALUE: fma64_alu:y <- $d1
	;DEBUG_VALUE: fma64_alu:x <- $d0
	;DEBUG_VALUE: fma64_alu:z <- $d2
	.loc	2 7 5 is_stmt 1                 ; fma.c:7:5
	cmp	x11, #6
	b.hi	LBB0_31
Ltmp64:
; %bb.27:                               ;   in Loop: Header=BB0_25 Depth=2
	;DEBUG_VALUE: fma64_alu:z <- $d2
	;DEBUG_VALUE: fma64_alu:x <- $d0
	;DEBUG_VALUE: fma64_alu:y <- $d1
	;DEBUG_VALUE: fma64_alu:operand <- $x19
	;DEBUG_VALUE: j <- [DW_OP_consts 8, DW_OP_div, DW_OP_stack_value] $x15
	;DEBUG_VALUE: i <- $x8
	;DEBUG_VALUE: emulate_AMX_FMA64:y_enable <- $x25
	;DEBUG_VALUE: emulate_AMX_FMA64:z_row <- [$sp+0]
	;DEBUG_VALUE: emulate_AMX_FMA64:x_enable <- $x24
	;DEBUG_VALUE: emulate_AMX_FMA64:state <- $x20
	;DEBUG_VALUE: emulate_AMX_FMA64:operand <- $x19
	.loc	2 0 5 is_stmt 0                 ; fma.c:0:5
Ltmp65:
	adr	x17, Ltmp65
	ldrsw	x0, [x12, x11, lsl #2]
	add	x17, x17, x0
	br	x17
Ltmp66:
LBB0_28:                                ;   in Loop: Header=BB0_25 Depth=2
	;DEBUG_VALUE: fma64_alu:z <- $d2
	;DEBUG_VALUE: fma64_alu:x <- $d0
	;DEBUG_VALUE: fma64_alu:y <- $d1
	;DEBUG_VALUE: fma64_alu:operand <- $x19
	;DEBUG_VALUE: j <- [DW_OP_consts 8, DW_OP_div, DW_OP_stack_value] $x15
	;DEBUG_VALUE: i <- $x8
	;DEBUG_VALUE: emulate_AMX_FMA64:y_enable <- $x25
	;DEBUG_VALUE: emulate_AMX_FMA64:z_row <- [$sp+0]
	;DEBUG_VALUE: emulate_AMX_FMA64:x_enable <- $x24
	;DEBUG_VALUE: emulate_AMX_FMA64:state <- $x20
	;DEBUG_VALUE: emulate_AMX_FMA64:operand <- $x19
	.loc	2 8 22 is_stmt 1                ; fma.c:8:22
	fmul	d0, d0, d1
Ltmp67:
	.loc	2 0 22 is_stmt 0                ; fma.c:0:22
	b	LBB0_23
Ltmp68:
LBB0_29:                                ;   in Loop: Header=BB0_25 Depth=2
	;DEBUG_VALUE: fma64_alu:z <- $d2
	;DEBUG_VALUE: fma64_alu:x <- $d0
	;DEBUG_VALUE: fma64_alu:y <- $d1
	;DEBUG_VALUE: fma64_alu:operand <- $x19
	;DEBUG_VALUE: j <- [DW_OP_consts 8, DW_OP_div, DW_OP_stack_value] $x15
	;DEBUG_VALUE: i <- $x8
	;DEBUG_VALUE: emulate_AMX_FMA64:y_enable <- $x25
	;DEBUG_VALUE: emulate_AMX_FMA64:z_row <- [$sp+0]
	;DEBUG_VALUE: emulate_AMX_FMA64:x_enable <- $x24
	;DEBUG_VALUE: emulate_AMX_FMA64:state <- $x20
	;DEBUG_VALUE: emulate_AMX_FMA64:operand <- $x19
	.loc	2 9 22 is_stmt 1                ; fma.c:9:22
	fadd	d0, d0, d2
Ltmp69:
	.loc	2 0 22 is_stmt 0                ; fma.c:0:22
	b	LBB0_23
Ltmp70:
LBB0_30:                                ;   in Loop: Header=BB0_25 Depth=2
	;DEBUG_VALUE: fma64_alu:z <- $d2
	;DEBUG_VALUE: fma64_alu:x <- $d0
	;DEBUG_VALUE: fma64_alu:y <- $d1
	;DEBUG_VALUE: fma64_alu:operand <- $x19
	;DEBUG_VALUE: j <- [DW_OP_consts 8, DW_OP_div, DW_OP_stack_value] $x15
	;DEBUG_VALUE: i <- $x8
	;DEBUG_VALUE: emulate_AMX_FMA64:y_enable <- $x25
	;DEBUG_VALUE: emulate_AMX_FMA64:z_row <- [$sp+0]
	;DEBUG_VALUE: emulate_AMX_FMA64:x_enable <- $x24
	;DEBUG_VALUE: emulate_AMX_FMA64:state <- $x20
	;DEBUG_VALUE: emulate_AMX_FMA64:operand <- $x19
	.loc	2 11 22 is_stmt 1               ; fma.c:11:22
	fadd	d0, d1, d2
Ltmp71:
	.loc	2 0 22 is_stmt 0                ; fma.c:0:22
	b	LBB0_23
Ltmp72:
LBB0_31:                                ;   in Loop: Header=BB0_25 Depth=2
	;DEBUG_VALUE: fma64_alu:z <- $d2
	;DEBUG_VALUE: fma64_alu:x <- $d0
	;DEBUG_VALUE: fma64_alu:y <- $d1
	;DEBUG_VALUE: fma64_alu:operand <- $x19
	;DEBUG_VALUE: j <- [DW_OP_consts 8, DW_OP_div, DW_OP_stack_value] $x15
	;DEBUG_VALUE: i <- $x8
	;DEBUG_VALUE: emulate_AMX_FMA64:y_enable <- $x25
	;DEBUG_VALUE: emulate_AMX_FMA64:z_row <- [$sp+0]
	;DEBUG_VALUE: emulate_AMX_FMA64:x_enable <- $x24
	;DEBUG_VALUE: emulate_AMX_FMA64:state <- $x20
	;DEBUG_VALUE: emulate_AMX_FMA64:operand <- $x19
	.loc	2 17 5 is_stmt 1                ; fma.c:17:5
	; InlineAsm Start
	fmadd	d0, d0, d1, d2
	; InlineAsm End
Ltmp73:
	;DEBUG_VALUE: fma64_alu:result <- $d0
	.loc	2 0 5 is_stmt 0                 ; fma.c:0:5
	b	LBB0_23
Ltmp74:
LBB0_32:                                ;   in Loop: Header=BB0_25 Depth=2
	;DEBUG_VALUE: fma64_alu:z <- $d2
	;DEBUG_VALUE: fma64_alu:x <- $d0
	;DEBUG_VALUE: fma64_alu:y <- $d1
	;DEBUG_VALUE: fma64_alu:operand <- $x19
	;DEBUG_VALUE: j <- [DW_OP_consts 8, DW_OP_div, DW_OP_stack_value] $x15
	;DEBUG_VALUE: i <- $x8
	;DEBUG_VALUE: emulate_AMX_FMA64:y_enable <- $x25
	;DEBUG_VALUE: emulate_AMX_FMA64:z_row <- [$sp+0]
	;DEBUG_VALUE: emulate_AMX_FMA64:x_enable <- $x24
	;DEBUG_VALUE: emulate_AMX_FMA64:state <- $x20
	;DEBUG_VALUE: emulate_AMX_FMA64:operand <- $x19
	fmov	d0, d2
	b	LBB0_23
Ltmp75:
LBB0_33:                                ;   in Loop: Header=BB0_25 Depth=2
	;DEBUG_VALUE: fma64_alu:z <- $d2
	;DEBUG_VALUE: fma64_alu:x <- $d0
	;DEBUG_VALUE: fma64_alu:y <- $d1
	;DEBUG_VALUE: fma64_alu:operand <- $x19
	;DEBUG_VALUE: j <- [DW_OP_consts 8, DW_OP_div, DW_OP_stack_value] $x15
	;DEBUG_VALUE: i <- $x8
	;DEBUG_VALUE: emulate_AMX_FMA64:y_enable <- $x25
	;DEBUG_VALUE: emulate_AMX_FMA64:z_row <- [$sp+0]
	;DEBUG_VALUE: emulate_AMX_FMA64:x_enable <- $x24
	;DEBUG_VALUE: emulate_AMX_FMA64:state <- $x20
	;DEBUG_VALUE: emulate_AMX_FMA64:operand <- $x19
	movi	d0, #0000000000000000
	b	LBB0_23
Ltmp76:
LBB0_34:                                ;   in Loop: Header=BB0_19 Depth=1
	;DEBUG_VALUE: i <- $x8
	;DEBUG_VALUE: emulate_AMX_FMA64:y_enable <- $x25
	;DEBUG_VALUE: emulate_AMX_FMA64:z_row <- [$sp+0]
	;DEBUG_VALUE: emulate_AMX_FMA64:x_enable <- $x24
	;DEBUG_VALUE: emulate_AMX_FMA64:state <- $x20
	;DEBUG_VALUE: emulate_AMX_FMA64:operand <- $x19
	;DEBUG_VALUE: z <- undef
	.loc	2 78 28 is_stmt 1               ; fma.c:78:28
	ldr	d0, [x27, x14]
	.loc	2 78 34 is_stmt 0               ; fma.c:78:34
	ldr	d1, [x28, x14]
	.loc	2 78 40                         ; fma.c:78:40
	ldr	d2, [x9, x14]
Ltmp77:
	;DEBUG_VALUE: fma64_alu:operand <- $x19
	;DEBUG_VALUE: fma64_alu:y <- $d1
	;DEBUG_VALUE: fma64_alu:x <- $d0
	;DEBUG_VALUE: fma64_alu:z <- $d2
	.loc	2 7 5 is_stmt 1                 ; fma.c:7:5
	cmp	x11, #6
	b.hi	LBB0_37
Ltmp78:
; %bb.35:                               ;   in Loop: Header=BB0_19 Depth=1
	;DEBUG_VALUE: fma64_alu:z <- $d2
	;DEBUG_VALUE: fma64_alu:x <- $d0
	;DEBUG_VALUE: fma64_alu:y <- $d1
	;DEBUG_VALUE: fma64_alu:operand <- $x19
	;DEBUG_VALUE: i <- $x8
	;DEBUG_VALUE: emulate_AMX_FMA64:y_enable <- $x25
	;DEBUG_VALUE: emulate_AMX_FMA64:z_row <- [$sp+0]
	;DEBUG_VALUE: emulate_AMX_FMA64:x_enable <- $x24
	;DEBUG_VALUE: emulate_AMX_FMA64:state <- $x20
	;DEBUG_VALUE: emulate_AMX_FMA64:operand <- $x19
	.loc	2 0 5 is_stmt 0                 ; fma.c:0:5
Ltmp79:
	adr	x14, Ltmp79
	ldrsw	x15, [x13, x11, lsl #2]
	add	x14, x14, x15
	br	x14
Ltmp80:
LBB0_36:                                ;   in Loop: Header=BB0_19 Depth=1
	;DEBUG_VALUE: fma64_alu:z <- $d2
	;DEBUG_VALUE: fma64_alu:x <- $d0
	;DEBUG_VALUE: fma64_alu:y <- $d1
	;DEBUG_VALUE: fma64_alu:operand <- $x19
	;DEBUG_VALUE: i <- $x8
	;DEBUG_VALUE: emulate_AMX_FMA64:y_enable <- $x25
	;DEBUG_VALUE: emulate_AMX_FMA64:z_row <- [$sp+0]
	;DEBUG_VALUE: emulate_AMX_FMA64:x_enable <- $x24
	;DEBUG_VALUE: emulate_AMX_FMA64:state <- $x20
	;DEBUG_VALUE: emulate_AMX_FMA64:operand <- $x19
	.loc	2 8 22 is_stmt 1                ; fma.c:8:22
	fmul	d0, d0, d1
Ltmp81:
	.loc	2 78 16                         ; fma.c:78:16
	str	d0, [x9, x8, lsl #3]
	b	LBB0_18
Ltmp82:
LBB0_37:                                ;   in Loop: Header=BB0_19 Depth=1
	;DEBUG_VALUE: fma64_alu:z <- $d2
	;DEBUG_VALUE: fma64_alu:x <- $d0
	;DEBUG_VALUE: fma64_alu:y <- $d1
	;DEBUG_VALUE: fma64_alu:operand <- $x19
	;DEBUG_VALUE: i <- $x8
	;DEBUG_VALUE: emulate_AMX_FMA64:y_enable <- $x25
	;DEBUG_VALUE: emulate_AMX_FMA64:z_row <- [$sp+0]
	;DEBUG_VALUE: emulate_AMX_FMA64:x_enable <- $x24
	;DEBUG_VALUE: emulate_AMX_FMA64:state <- $x20
	;DEBUG_VALUE: emulate_AMX_FMA64:operand <- $x19
	.loc	2 17 5                          ; fma.c:17:5
	; InlineAsm Start
	fmadd	d0, d0, d1, d2
	; InlineAsm End
Ltmp83:
	;DEBUG_VALUE: fma64_alu:result <- $d0
LBB0_38:                                ;   in Loop: Header=BB0_19 Depth=1
	;DEBUG_VALUE: i <- $x8
	;DEBUG_VALUE: emulate_AMX_FMA64:y_enable <- $x25
	;DEBUG_VALUE: emulate_AMX_FMA64:z_row <- [$sp+0]
	;DEBUG_VALUE: emulate_AMX_FMA64:x_enable <- $x24
	;DEBUG_VALUE: emulate_AMX_FMA64:state <- $x20
	;DEBUG_VALUE: emulate_AMX_FMA64:operand <- $x19
	.loc	2 78 16                         ; fma.c:78:16
	str	d0, [x9, x8, lsl #3]
	b	LBB0_18
Ltmp84:
LBB0_39:                                ;   in Loop: Header=BB0_19 Depth=1
	;DEBUG_VALUE: fma64_alu:z <- $d2
	;DEBUG_VALUE: fma64_alu:x <- $d0
	;DEBUG_VALUE: fma64_alu:y <- $d1
	;DEBUG_VALUE: fma64_alu:operand <- $x19
	;DEBUG_VALUE: i <- $x8
	;DEBUG_VALUE: emulate_AMX_FMA64:y_enable <- $x25
	;DEBUG_VALUE: emulate_AMX_FMA64:z_row <- [$sp+0]
	;DEBUG_VALUE: emulate_AMX_FMA64:x_enable <- $x24
	;DEBUG_VALUE: emulate_AMX_FMA64:state <- $x20
	;DEBUG_VALUE: emulate_AMX_FMA64:operand <- $x19
	.loc	2 9 22                          ; fma.c:9:22
	fadd	d0, d0, d2
Ltmp85:
	.loc	2 78 16                         ; fma.c:78:16
	str	d0, [x9, x8, lsl #3]
	b	LBB0_18
Ltmp86:
LBB0_40:                                ;   in Loop: Header=BB0_19 Depth=1
	;DEBUG_VALUE: fma64_alu:z <- $d2
	;DEBUG_VALUE: fma64_alu:x <- $d0
	;DEBUG_VALUE: fma64_alu:y <- $d1
	;DEBUG_VALUE: fma64_alu:operand <- $x19
	;DEBUG_VALUE: i <- $x8
	;DEBUG_VALUE: emulate_AMX_FMA64:y_enable <- $x25
	;DEBUG_VALUE: emulate_AMX_FMA64:z_row <- [$sp+0]
	;DEBUG_VALUE: emulate_AMX_FMA64:x_enable <- $x24
	;DEBUG_VALUE: emulate_AMX_FMA64:state <- $x20
	;DEBUG_VALUE: emulate_AMX_FMA64:operand <- $x19
	.loc	2 11 22                         ; fma.c:11:22
	fadd	d0, d1, d2
Ltmp87:
	.loc	2 78 16                         ; fma.c:78:16
	str	d0, [x9, x8, lsl #3]
	b	LBB0_18
Ltmp88:
LBB0_41:                                ;   in Loop: Header=BB0_19 Depth=1
	;DEBUG_VALUE: i <- $x8
	;DEBUG_VALUE: emulate_AMX_FMA64:y_enable <- $x25
	;DEBUG_VALUE: emulate_AMX_FMA64:z_row <- [$sp+0]
	;DEBUG_VALUE: emulate_AMX_FMA64:x_enable <- $x24
	;DEBUG_VALUE: emulate_AMX_FMA64:state <- $x20
	;DEBUG_VALUE: emulate_AMX_FMA64:operand <- $x19
	.loc	2 0 16 is_stmt 0                ; fma.c:0:16
	fmov	d0, d2
	.loc	2 78 16                         ; fma.c:78:16
	str	d2, [x9, x8, lsl #3]
	b	LBB0_18
Ltmp89:
LBB0_42:                                ;   in Loop: Header=BB0_19 Depth=1
	;DEBUG_VALUE: i <- $x8
	;DEBUG_VALUE: emulate_AMX_FMA64:y_enable <- $x25
	;DEBUG_VALUE: emulate_AMX_FMA64:z_row <- [$sp+0]
	;DEBUG_VALUE: emulate_AMX_FMA64:x_enable <- $x24
	;DEBUG_VALUE: emulate_AMX_FMA64:state <- $x20
	;DEBUG_VALUE: emulate_AMX_FMA64:operand <- $x19
	.loc	2 0 16                          ; fma.c:0:16
	movi	d0, #0000000000000000
	.loc	2 78 16                         ; fma.c:78:16
	str	d0, [x9, x8, lsl #3]
	b	LBB0_18
Ltmp90:
LBB0_43:
	;DEBUG_VALUE: i <- $x8
	;DEBUG_VALUE: emulate_AMX_FMA64:y_enable <- $x25
	;DEBUG_VALUE: emulate_AMX_FMA64:z_row <- [$sp+0]
	;DEBUG_VALUE: emulate_AMX_FMA64:x_enable <- $x24
	;DEBUG_VALUE: emulate_AMX_FMA64:state <- $x20
	;DEBUG_VALUE: emulate_AMX_FMA64:operand <- $x19
	.loc	2 0 16                          ; fma.c:0:16
	ldur	x8, [x29, #-88]
Lloh11:
	adrp	x9, ___stack_chk_guard@GOTPAGE
Lloh12:
	ldr	x9, [x9, ___stack_chk_guard@GOTPAGEOFF]
Lloh13:
	ldr	x9, [x9]
	cmp	x9, x8
	b.ne	LBB0_45
Ltmp91:
; %bb.44:
	;DEBUG_VALUE: emulate_AMX_FMA64:y_enable <- $x25
	;DEBUG_VALUE: emulate_AMX_FMA64:z_row <- [$sp+0]
	;DEBUG_VALUE: emulate_AMX_FMA64:x_enable <- $x24
	;DEBUG_VALUE: emulate_AMX_FMA64:state <- $x20
	;DEBUG_VALUE: emulate_AMX_FMA64:operand <- $x19
	.loc	2 87 1 is_stmt 1                ; fma.c:87:1
	ldp	x29, x30, [sp, #224]            ; 16-byte Folded Reload
	ldp	x20, x19, [sp, #208]            ; 16-byte Folded Reload
Ltmp92:
	;DEBUG_VALUE: emulate_AMX_FMA64:state <- [DW_OP_LLVM_entry_value 1] $x0
	;DEBUG_VALUE: emulate_AMX_FMA64:operand <- [DW_OP_LLVM_entry_value 1] $x1
	ldp	x22, x21, [sp, #192]            ; 16-byte Folded Reload
	ldp	x24, x23, [sp, #176]            ; 16-byte Folded Reload
Ltmp93:
	ldp	x26, x25, [sp, #160]            ; 16-byte Folded Reload
Ltmp94:
	ldp	x28, x27, [sp, #144]            ; 16-byte Folded Reload
	add	sp, sp, #240
Ltmp95:
	ret
Ltmp96:
LBB0_45:
	;DEBUG_VALUE: emulate_AMX_FMA64:y_enable <- $x25
	;DEBUG_VALUE: emulate_AMX_FMA64:z_row <- [$sp+0]
	;DEBUG_VALUE: emulate_AMX_FMA64:x_enable <- $x24
	;DEBUG_VALUE: emulate_AMX_FMA64:state <- $x20
	;DEBUG_VALUE: emulate_AMX_FMA64:operand <- $x19
	.loc	2 0 1 is_stmt 0                 ; fma.c:0:1
	bl	___stack_chk_fail
Ltmp97:
	.loh AdrpAdd	Lloh3, Lloh4
	.loh AdrpLdrGotLdr	Lloh0, Lloh1, Lloh2
	.loh AdrpAdd	Lloh5, Lloh6
	.loh AdrpAdd	Lloh9, Lloh10
	.loh AdrpAdd	Lloh7, Lloh8
	.loh AdrpLdrGotLdr	Lloh11, Lloh12, Lloh13
Lfunc_end0:
	.cfi_endproc
	.p2align	2
lJTI0_0:
	.long	LBB0_1-Ltmp10
	.long	LBB0_7-Ltmp10
	.long	LBB0_2-Ltmp10
	.long	LBB0_4-Ltmp10
	.p2align	2
lJTI0_1:
	.long	LBB0_9-Ltmp26
	.long	LBB0_15-Ltmp26
	.long	LBB0_10-Ltmp26
	.long	LBB0_12-Ltmp26
	.p2align	2
lJTI0_2:
	.long	LBB0_36-Ltmp79
	.long	LBB0_39-Ltmp79
	.long	LBB0_38-Ltmp79
	.long	LBB0_40-Ltmp79
	.long	LBB0_17-Ltmp79
	.long	LBB0_41-Ltmp79
	.long	LBB0_42-Ltmp79
	.p2align	2
lJTI0_3:
	.long	LBB0_28-Ltmp65
	.long	LBB0_29-Ltmp65
	.long	LBB0_23-Ltmp65
	.long	LBB0_30-Ltmp65
	.long	LBB0_22-Ltmp65
	.long	LBB0_32-Ltmp65
	.long	LBB0_33-Ltmp65
	.file	4 "/Library/Developer/CommandLineTools/SDKs/MacOSX.sdk/usr/include/_types" "_uint64_t.h"
	.file	5 "/Library/Developer/CommandLineTools/SDKs/MacOSX.sdk/usr/include/_types" "_uint32_t.h"
                                        ; -- End function
	.globl	_emulate_AMX_FMA32              ; -- Begin function emulate_AMX_FMA32
	.p2align	2
_emulate_AMX_FMA32:                     ; @emulate_AMX_FMA32
Lfunc_begin1:
	.loc	2 89 0 is_stmt 1                ; fma.c:89:0
	.cfi_startproc
; %bb.0:
	;DEBUG_VALUE: emulate_AMX_FMA32:state <- $x0
	;DEBUG_VALUE: emulate_AMX_FMA32:operand <- $x1
	;DEBUG_VALUE: emulate_AMX_FMA32:operand <- $x1
	;DEBUG_VALUE: emulate_AMX_FMA32:state <- $x0
	sub	sp, sp, #224
	.cfi_def_cfa_offset 224
	stp	x26, x25, [sp, #144]            ; 16-byte Folded Spill
	stp	x24, x23, [sp, #160]            ; 16-byte Folded Spill
	stp	x22, x21, [sp, #176]            ; 16-byte Folded Spill
	stp	x20, x19, [sp, #192]            ; 16-byte Folded Spill
	stp	x29, x30, [sp, #208]            ; 16-byte Folded Spill
	add	x29, sp, #208
	.cfi_def_cfa w29, 16
	.cfi_offset w30, -8
	.cfi_offset w29, -16
	.cfi_offset w19, -24
	.cfi_offset w20, -32
	.cfi_offset w21, -40
	.cfi_offset w22, -48
	.cfi_offset w23, -56
	.cfi_offset w24, -64
	.cfi_offset w25, -72
	.cfi_offset w26, -80
Lloh14:
	adrp	x8, ___stack_chk_guard@GOTPAGE
Lloh15:
	ldr	x8, [x8, ___stack_chk_guard@GOTPAGEOFF]
Lloh16:
	ldr	x8, [x8]
	stur	x8, [x29, #-72]
Ltmp98:
	.loc	2 90 33 prologue_end            ; fma.c:90:33
	and	x21, x1, #0x1ff
Ltmp99:
	;DEBUG_VALUE: emulate_AMX_FMA32:y_offset <- $x21
	.loc	2 91 41                         ; fma.c:91:41
	ubfx	x2, x1, #10, #9
Ltmp100:
	;DEBUG_VALUE: emulate_AMX_FMA32:x_offset <- $x2
	.loc	2 92 38                         ; fma.c:92:38
	ubfx	x26, x1, #20, #6
Ltmp101:
	;DEBUG_VALUE: emulate_AMX_FMA32:z_row <- $x26
	.loc	2 93 49                         ; fma.c:93:49
	lsr	x8, x1, #41
	mov	w9, #3
Ltmp102:
	;DEBUG_VALUE: parse_writemask:maskbits <- 7
	;DEBUG_VALUE: parse_writemask:g <- 4
	;DEBUG_VALUE: parse_writemask:val <- $w8
	.loc	3 67 9                          ; ./emulate.h:67:9
	ands	w10, w9, w8, lsr #5
Ltmp103:
	;DEBUG_VALUE: parse_writemask:mode <- $w10
	.loc	3 0 9 is_stmt 0                 ; ./emulate.h:0:9
	mov	w9, #4
	.loc	3 67 9                          ; ./emulate.h:67:9
	csinc	w9, w9, wzr, ne
	mul	w9, w9, w8
Ltmp104:
	;DEBUG_VALUE: parse_writemask:val <- $w9
	.loc	3 68 9 is_stmt 1                ; ./emulate.h:68:9
	and	w8, w9, #0x3f
Ltmp105:
	;DEBUG_VALUE: parse_writemask:all <- -1
	;DEBUG_VALUE: parse_writemask:val <- $w8
	.loc	3 0 9 is_stmt 0                 ; ./emulate.h:0:9
	mov	x19, x1
Ltmp106:
	;DEBUG_VALUE: emulate_AMX_FMA32:operand <- $x19
	mov	x20, x0
Ltmp107:
	;DEBUG_VALUE: emulate_AMX_FMA32:state <- $x20
Lloh17:
	adrp	x11, lJTI1_0@PAGE
Lloh18:
	add	x11, x11, lJTI1_0@PAGEOFF
Ltmp108:
	adr	x12, Ltmp108
	ldrsw	x13, [x11, x10, lsl #2]
	add	x12, x12, x13
	br	x12
Ltmp109:
LBB1_1:
	;DEBUG_VALUE: emulate_AMX_FMA32:state <- $x20
	;DEBUG_VALUE: emulate_AMX_FMA32:operand <- $x19
	;DEBUG_VALUE: parse_writemask:all <- -1
	;DEBUG_VALUE: parse_writemask:mode <- $w10
	;DEBUG_VALUE: parse_writemask:val <- $w8
	;DEBUG_VALUE: parse_writemask:g <- 4
	;DEBUG_VALUE: parse_writemask:maskbits <- 7
	;DEBUG_VALUE: emulate_AMX_FMA32:z_row <- $x26
	;DEBUG_VALUE: emulate_AMX_FMA32:x_offset <- $x2
	;DEBUG_VALUE: emulate_AMX_FMA32:y_offset <- $x21
	.loc	3 72 22 is_stmt 1               ; ./emulate.h:72:22
	sub	w10, w8, #1
Ltmp110:
	ubfiz	w9, w9, #2, #1
	mov	x11, #1085102592571150095
	lsl	x9, x11, x9
	cmp	w10, #2
	csinv	x9, x9, xzr, lo
Ltmp111:
	;DEBUG_VALUE: parse_writemask:all <- $x9
	.loc	3 83 16                         ; ./emulate.h:83:16
	cmp	w8, #3
	csel	x22, x9, xzr, lo
	b	LBB1_6
Ltmp112:
LBB1_2:
	;DEBUG_VALUE: emulate_AMX_FMA32:state <- $x20
	;DEBUG_VALUE: emulate_AMX_FMA32:operand <- $x19
	;DEBUG_VALUE: parse_writemask:all <- -1
	;DEBUG_VALUE: parse_writemask:mode <- $w10
	;DEBUG_VALUE: parse_writemask:val <- $w8
	;DEBUG_VALUE: parse_writemask:g <- 4
	;DEBUG_VALUE: parse_writemask:maskbits <- 7
	;DEBUG_VALUE: emulate_AMX_FMA32:z_row <- $x26
	;DEBUG_VALUE: emulate_AMX_FMA32:x_offset <- $x2
	;DEBUG_VALUE: emulate_AMX_FMA32:y_offset <- $x21
	.loc	3 0 16 is_stmt 0                ; ./emulate.h:0:16
	mov	x9, #-1
	.loc	3 91 22 is_stmt 1               ; ./emulate.h:91:22
	lsl	x10, x9, x8
Ltmp113:
	.loc	3 0 22 is_stmt 0                ; ./emulate.h:0:22
	b	LBB1_4
Ltmp114:
LBB1_3:
	;DEBUG_VALUE: emulate_AMX_FMA32:state <- $x20
	;DEBUG_VALUE: emulate_AMX_FMA32:operand <- $x19
	;DEBUG_VALUE: parse_writemask:all <- -1
	;DEBUG_VALUE: parse_writemask:mode <- $w10
	;DEBUG_VALUE: parse_writemask:val <- $w8
	;DEBUG_VALUE: parse_writemask:g <- 4
	;DEBUG_VALUE: parse_writemask:maskbits <- 7
	;DEBUG_VALUE: emulate_AMX_FMA32:z_row <- $x26
	;DEBUG_VALUE: emulate_AMX_FMA32:x_offset <- $x2
	;DEBUG_VALUE: emulate_AMX_FMA32:y_offset <- $x21
	mov	x9, #-1
	.loc	3 96 22 is_stmt 1               ; ./emulate.h:96:22
	lsr	x10, x9, x8
Ltmp115:
LBB1_4:
	;DEBUG_VALUE: emulate_AMX_FMA32:state <- $x20
	;DEBUG_VALUE: emulate_AMX_FMA32:operand <- $x19
	;DEBUG_VALUE: parse_writemask:all <- -1
	;DEBUG_VALUE: parse_writemask:val <- $w8
	;DEBUG_VALUE: parse_writemask:g <- 4
	;DEBUG_VALUE: parse_writemask:maskbits <- 7
	;DEBUG_VALUE: emulate_AMX_FMA32:z_row <- $x26
	;DEBUG_VALUE: emulate_AMX_FMA32:x_offset <- $x2
	;DEBUG_VALUE: emulate_AMX_FMA32:y_offset <- $x21
	.loc	3 0 0 is_stmt 0                 ; ./emulate.h:0:0
	cmp	w8, #0
	csinv	x22, x9, x10, eq
	b	LBB1_6
Ltmp116:
LBB1_5:
	;DEBUG_VALUE: emulate_AMX_FMA32:state <- $x20
	;DEBUG_VALUE: emulate_AMX_FMA32:operand <- $x19
	;DEBUG_VALUE: parse_writemask:all <- -1
	;DEBUG_VALUE: parse_writemask:mode <- $w10
	;DEBUG_VALUE: parse_writemask:val <- $w8
	;DEBUG_VALUE: parse_writemask:g <- 4
	;DEBUG_VALUE: parse_writemask:maskbits <- 7
	;DEBUG_VALUE: emulate_AMX_FMA32:z_row <- $x26
	;DEBUG_VALUE: emulate_AMX_FMA32:x_offset <- $x2
	;DEBUG_VALUE: emulate_AMX_FMA32:y_offset <- $x21
	mov	w9, #15
	.loc	3 86 30 is_stmt 1               ; ./emulate.h:86:30
	lsl	x22, x9, x8
Ltmp117:
LBB1_6:
	;DEBUG_VALUE: emulate_AMX_FMA32:state <- $x20
	;DEBUG_VALUE: emulate_AMX_FMA32:operand <- $x19
	;DEBUG_VALUE: emulate_AMX_FMA32:z_row <- $x26
	;DEBUG_VALUE: emulate_AMX_FMA32:x_offset <- $x2
	;DEBUG_VALUE: emulate_AMX_FMA32:y_offset <- $x21
	;DEBUG_VALUE: emulate_AMX_FMA32:x_enable <- $x22
	.loc	2 94 49                         ; fma.c:94:49
	lsr	x8, x19, #32
Ltmp118:
	;DEBUG_VALUE: parse_writemask:maskbits <- 7
	;DEBUG_VALUE: parse_writemask:g <- 4
	;DEBUG_VALUE: parse_writemask:val <- $w8
	.loc	3 66 61                         ; ./emulate.h:66:61
	lsr	x9, x19, #37
	.loc	3 67 9                          ; ./emulate.h:67:9
	ands	w10, w9, #0x3
Ltmp119:
	;DEBUG_VALUE: parse_writemask:mode <- $w10
	.loc	3 0 9 is_stmt 0                 ; ./emulate.h:0:9
	mov	w9, #4
	.loc	3 67 9                          ; ./emulate.h:67:9
	csinc	w9, w9, wzr, ne
	mul	w9, w9, w8
Ltmp120:
	;DEBUG_VALUE: parse_writemask:val <- $w9
	.loc	3 68 9 is_stmt 1                ; ./emulate.h:68:9
	and	w8, w9, #0x3f
Ltmp121:
	;DEBUG_VALUE: parse_writemask:all <- -1
	;DEBUG_VALUE: parse_writemask:val <- $w8
	.loc	3 0 9 is_stmt 0                 ; ./emulate.h:0:9
Lloh19:
	adrp	x11, lJTI1_1@PAGE
Lloh20:
	add	x11, x11, lJTI1_1@PAGEOFF
Ltmp122:
	adr	x12, Ltmp122
	ldrsw	x13, [x11, x10, lsl #2]
	add	x12, x12, x13
	br	x12
Ltmp123:
LBB1_7:
	;DEBUG_VALUE: parse_writemask:all <- -1
	;DEBUG_VALUE: parse_writemask:mode <- $w10
	;DEBUG_VALUE: parse_writemask:val <- $w8
	;DEBUG_VALUE: parse_writemask:g <- 4
	;DEBUG_VALUE: parse_writemask:maskbits <- 7
	;DEBUG_VALUE: emulate_AMX_FMA32:x_enable <- $x22
	;DEBUG_VALUE: emulate_AMX_FMA32:state <- $x20
	;DEBUG_VALUE: emulate_AMX_FMA32:operand <- $x19
	;DEBUG_VALUE: emulate_AMX_FMA32:z_row <- $x26
	;DEBUG_VALUE: emulate_AMX_FMA32:x_offset <- $x2
	;DEBUG_VALUE: emulate_AMX_FMA32:y_offset <- $x21
	.loc	3 72 22 is_stmt 1               ; ./emulate.h:72:22
	sub	w10, w8, #1
Ltmp124:
	ubfiz	w9, w9, #2, #1
	mov	x11, #1085102592571150095
	lsl	x9, x11, x9
	cmp	w10, #2
	csinv	x9, x9, xzr, lo
Ltmp125:
	;DEBUG_VALUE: parse_writemask:all <- $x9
	.loc	3 83 16                         ; ./emulate.h:83:16
	cmp	w8, #3
	csel	x23, x9, xzr, lo
	b	LBB1_12
Ltmp126:
LBB1_8:
	;DEBUG_VALUE: parse_writemask:all <- -1
	;DEBUG_VALUE: parse_writemask:mode <- $w10
	;DEBUG_VALUE: parse_writemask:val <- $w8
	;DEBUG_VALUE: parse_writemask:g <- 4
	;DEBUG_VALUE: parse_writemask:maskbits <- 7
	;DEBUG_VALUE: emulate_AMX_FMA32:x_enable <- $x22
	;DEBUG_VALUE: emulate_AMX_FMA32:state <- $x20
	;DEBUG_VALUE: emulate_AMX_FMA32:operand <- $x19
	;DEBUG_VALUE: emulate_AMX_FMA32:z_row <- $x26
	;DEBUG_VALUE: emulate_AMX_FMA32:x_offset <- $x2
	;DEBUG_VALUE: emulate_AMX_FMA32:y_offset <- $x21
	.loc	3 0 16 is_stmt 0                ; ./emulate.h:0:16
	mov	x9, #-1
	.loc	3 91 22 is_stmt 1               ; ./emulate.h:91:22
	lsl	x10, x9, x8
Ltmp127:
	.loc	3 0 22 is_stmt 0                ; ./emulate.h:0:22
	b	LBB1_10
Ltmp128:
LBB1_9:
	;DEBUG_VALUE: parse_writemask:all <- -1
	;DEBUG_VALUE: parse_writemask:mode <- $w10
	;DEBUG_VALUE: parse_writemask:val <- $w8
	;DEBUG_VALUE: parse_writemask:g <- 4
	;DEBUG_VALUE: parse_writemask:maskbits <- 7
	;DEBUG_VALUE: emulate_AMX_FMA32:x_enable <- $x22
	;DEBUG_VALUE: emulate_AMX_FMA32:state <- $x20
	;DEBUG_VALUE: emulate_AMX_FMA32:operand <- $x19
	;DEBUG_VALUE: emulate_AMX_FMA32:z_row <- $x26
	;DEBUG_VALUE: emulate_AMX_FMA32:x_offset <- $x2
	;DEBUG_VALUE: emulate_AMX_FMA32:y_offset <- $x21
	mov	x9, #-1
	.loc	3 96 22 is_stmt 1               ; ./emulate.h:96:22
	lsr	x10, x9, x8
Ltmp129:
LBB1_10:
	;DEBUG_VALUE: parse_writemask:all <- -1
	;DEBUG_VALUE: parse_writemask:val <- $w8
	;DEBUG_VALUE: parse_writemask:g <- 4
	;DEBUG_VALUE: parse_writemask:maskbits <- 7
	;DEBUG_VALUE: emulate_AMX_FMA32:x_enable <- $x22
	;DEBUG_VALUE: emulate_AMX_FMA32:state <- $x20
	;DEBUG_VALUE: emulate_AMX_FMA32:operand <- $x19
	;DEBUG_VALUE: emulate_AMX_FMA32:z_row <- $x26
	;DEBUG_VALUE: emulate_AMX_FMA32:x_offset <- $x2
	;DEBUG_VALUE: emulate_AMX_FMA32:y_offset <- $x21
	.loc	3 0 0 is_stmt 0                 ; ./emulate.h:0:0
	cmp	w8, #0
	csinv	x23, x9, x10, eq
	b	LBB1_12
Ltmp130:
LBB1_11:
	;DEBUG_VALUE: parse_writemask:all <- -1
	;DEBUG_VALUE: parse_writemask:mode <- $w10
	;DEBUG_VALUE: parse_writemask:val <- $w8
	;DEBUG_VALUE: parse_writemask:g <- 4
	;DEBUG_VALUE: parse_writemask:maskbits <- 7
	;DEBUG_VALUE: emulate_AMX_FMA32:x_enable <- $x22
	;DEBUG_VALUE: emulate_AMX_FMA32:state <- $x20
	;DEBUG_VALUE: emulate_AMX_FMA32:operand <- $x19
	;DEBUG_VALUE: emulate_AMX_FMA32:z_row <- $x26
	;DEBUG_VALUE: emulate_AMX_FMA32:x_offset <- $x2
	;DEBUG_VALUE: emulate_AMX_FMA32:y_offset <- $x21
	mov	w9, #15
	.loc	3 86 30 is_stmt 1               ; ./emulate.h:86:30
	lsl	x23, x9, x8
Ltmp131:
LBB1_12:
	;DEBUG_VALUE: emulate_AMX_FMA32:x_enable <- $x22
	;DEBUG_VALUE: emulate_AMX_FMA32:state <- $x20
	;DEBUG_VALUE: emulate_AMX_FMA32:operand <- $x19
	;DEBUG_VALUE: emulate_AMX_FMA32:z_row <- $x26
	;DEBUG_VALUE: emulate_AMX_FMA32:x_offset <- $x2
	;DEBUG_VALUE: emulate_AMX_FMA32:y_offset <- $x21
	;DEBUG_VALUE: emulate_AMX_FMA32:y_enable <- $x23
	.loc	2 98 54                         ; fma.c:98:54
	and	x3, x19, #0x2000000000000000
	add	x24, sp, #72
	.loc	2 98 5 is_stmt 0                ; fma.c:98:5
	add	x0, sp, #72
	mov	x1, x20
	bl	_load_xy_reg_fma32
Ltmp132:
	.loc	2 99 33 is_stmt 1               ; fma.c:99:33
	add	x1, x20, #512
	.loc	2 99 54 is_stmt 0               ; fma.c:99:54
	and	x3, x19, #0x1000000000000000
	add	x25, sp, #8
	.loc	2 99 5                          ; fma.c:99:5
	add	x0, sp, #8
	mov	x2, x21
	bl	_load_xy_reg_fma32
Ltmp133:
	;DEBUG_VALUE: i <- 0
	.loc	2 0 5                           ; fma.c:0:5
	mov	x8, #0
	add	x9, x20, x26, lsl #6
	add	x9, x9, #1024
	ubfx	x11, x19, #27, #3
	ubfx	x10, x19, #20, #2
	sub	x11, x11, #1
Lloh21:
	adrp	x12, lJTI1_3@PAGE
Lloh22:
	add	x12, x12, lJTI1_3@PAGEOFF
Lloh23:
	adrp	x13, lJTI1_2@PAGE
Lloh24:
	add	x13, x13, lJTI1_2@PAGEOFF
	b	LBB1_15
Ltmp134:
LBB1_13:                                ;   in Loop: Header=BB1_15 Depth=1
	;DEBUG_VALUE: i <- $x8
	;DEBUG_VALUE: emulate_AMX_FMA32:y_enable <- $x23
	;DEBUG_VALUE: emulate_AMX_FMA32:x_enable <- $x22
	;DEBUG_VALUE: emulate_AMX_FMA32:state <- $x20
	;DEBUG_VALUE: emulate_AMX_FMA32:operand <- $x19
	;DEBUG_VALUE: emulate_AMX_FMA32:z_row <- $x26
	;DEBUG_VALUE: emulate_AMX_FMA32:y_offset <- $x21
	fmov	s0, s1
Ltmp135:
	.loc	2 105 16 is_stmt 1              ; fma.c:105:16
	str	s1, [x9, x8, lsl #2]
Ltmp136:
LBB1_14:                                ;   in Loop: Header=BB1_15 Depth=1
	;DEBUG_VALUE: i <- $x8
	;DEBUG_VALUE: emulate_AMX_FMA32:y_enable <- $x23
	;DEBUG_VALUE: emulate_AMX_FMA32:x_enable <- $x22
	;DEBUG_VALUE: emulate_AMX_FMA32:state <- $x20
	;DEBUG_VALUE: emulate_AMX_FMA32:operand <- $x19
	;DEBUG_VALUE: emulate_AMX_FMA32:z_row <- $x26
	;DEBUG_VALUE: emulate_AMX_FMA32:y_offset <- $x21
	.loc	2 101 30                        ; fma.c:101:30
	add	x8, x8, #1
Ltmp137:
	;DEBUG_VALUE: i <- $x8
	.loc	2 101 5 is_stmt 0               ; fma.c:101:5
	cmp	x8, #16
	b.eq	LBB1_39
Ltmp138:
LBB1_15:                                ; =>This Loop Header: Depth=1
                                        ;     Child Loop BB1_21 Depth 2
	;DEBUG_VALUE: emulate_AMX_FMA32:y_enable <- $x23
	;DEBUG_VALUE: emulate_AMX_FMA32:x_enable <- $x22
	;DEBUG_VALUE: emulate_AMX_FMA32:state <- $x20
	;DEBUG_VALUE: emulate_AMX_FMA32:operand <- $x19
	;DEBUG_VALUE: emulate_AMX_FMA32:z_row <- $x26
	;DEBUG_VALUE: emulate_AMX_FMA32:y_offset <- $x21
	;DEBUG_VALUE: i <- $x8
	.loc	2 102 31 is_stmt 1              ; fma.c:102:31
	lsl	x14, x8, #2
Ltmp139:
	.loc	2 102 13 is_stmt 0              ; fma.c:102:13
	lsr	x15, x22, x14
	tbz	w15, #0, LBB1_14
Ltmp140:
; %bb.16:                               ;   in Loop: Header=BB1_15 Depth=1
	;DEBUG_VALUE: i <- $x8
	;DEBUG_VALUE: emulate_AMX_FMA32:y_enable <- $x23
	;DEBUG_VALUE: emulate_AMX_FMA32:x_enable <- $x22
	;DEBUG_VALUE: emulate_AMX_FMA32:state <- $x20
	;DEBUG_VALUE: emulate_AMX_FMA32:operand <- $x19
	;DEBUG_VALUE: emulate_AMX_FMA32:z_row <- $x26
	;DEBUG_VALUE: emulate_AMX_FMA32:y_offset <- $x21
	.loc	2 103 13 is_stmt 1              ; fma.c:103:13
	tbnz	x19, #63, LBB1_30
Ltmp141:
; %bb.17:                               ;   in Loop: Header=BB1_15 Depth=1
	;DEBUG_VALUE: i <- $x8
	;DEBUG_VALUE: emulate_AMX_FMA32:y_enable <- $x23
	;DEBUG_VALUE: emulate_AMX_FMA32:x_enable <- $x22
	;DEBUG_VALUE: emulate_AMX_FMA32:state <- $x20
	;DEBUG_VALUE: emulate_AMX_FMA32:operand <- $x19
	;DEBUG_VALUE: emulate_AMX_FMA32:z_row <- $x26
	;DEBUG_VALUE: emulate_AMX_FMA32:y_offset <- $x21
	;DEBUG_VALUE: j <- 0
	.loc	2 0 13 is_stmt 0                ; fma.c:0:13
	mov	x15, #0
	b	LBB1_21
Ltmp142:
LBB1_18:                                ;   in Loop: Header=BB1_21 Depth=2
	;DEBUG_VALUE: fma32_alu:z <- $s2
	;DEBUG_VALUE: fma32_alu:x <- $s0
	;DEBUG_VALUE: fma32_alu:y <- $s1
	;DEBUG_VALUE: fma32_alu:operand <- $x19
	;DEBUG_VALUE: j <- [DW_OP_consts 4, DW_OP_div, DW_OP_stack_value] $x15
	;DEBUG_VALUE: i <- $x8
	;DEBUG_VALUE: emulate_AMX_FMA32:y_enable <- $x23
	;DEBUG_VALUE: emulate_AMX_FMA32:x_enable <- $x22
	;DEBUG_VALUE: emulate_AMX_FMA32:state <- $x20
	;DEBUG_VALUE: emulate_AMX_FMA32:operand <- $x19
	;DEBUG_VALUE: emulate_AMX_FMA32:z_row <- $x26
	;DEBUG_VALUE: emulate_AMX_FMA32:y_offset <- $x21
	fmov	s0, s1
Ltmp143:
LBB1_19:                                ;   in Loop: Header=BB1_21 Depth=2
	;DEBUG_VALUE: j <- [DW_OP_consts 4, DW_OP_div, DW_OP_stack_value] $x15
	;DEBUG_VALUE: i <- $x8
	;DEBUG_VALUE: emulate_AMX_FMA32:y_enable <- $x23
	;DEBUG_VALUE: emulate_AMX_FMA32:x_enable <- $x22
	;DEBUG_VALUE: emulate_AMX_FMA32:state <- $x20
	;DEBUG_VALUE: emulate_AMX_FMA32:operand <- $x19
	;DEBUG_VALUE: emulate_AMX_FMA32:z_row <- $x26
	;DEBUG_VALUE: emulate_AMX_FMA32:y_offset <- $x21
	.loc	2 110 20 is_stmt 1              ; fma.c:110:20
	str	s0, [x16, x8, lsl #2]
Ltmp144:
LBB1_20:                                ;   in Loop: Header=BB1_21 Depth=2
	;DEBUG_VALUE: j <- [DW_OP_consts 4, DW_OP_div, DW_OP_stack_value] $x15
	;DEBUG_VALUE: i <- $x8
	;DEBUG_VALUE: emulate_AMX_FMA32:y_enable <- $x23
	;DEBUG_VALUE: emulate_AMX_FMA32:x_enable <- $x22
	;DEBUG_VALUE: emulate_AMX_FMA32:state <- $x20
	;DEBUG_VALUE: emulate_AMX_FMA32:operand <- $x19
	;DEBUG_VALUE: emulate_AMX_FMA32:z_row <- $x26
	;DEBUG_VALUE: emulate_AMX_FMA32:y_offset <- $x21
	;DEBUG_VALUE: j <- [DW_OP_consts 4, DW_OP_div, DW_OP_consts 1, DW_OP_plus, DW_OP_stack_value] $x15
	.loc	2 107 31                        ; fma.c:107:31
	add	x15, x15, #4
Ltmp145:
	.loc	2 107 13 is_stmt 0              ; fma.c:107:13
	cmp	x15, #64
	b.eq	LBB1_14
Ltmp146:
LBB1_21:                                ;   Parent Loop BB1_15 Depth=1
                                        ; =>  This Inner Loop Header: Depth=2
	;DEBUG_VALUE: i <- $x8
	;DEBUG_VALUE: emulate_AMX_FMA32:y_enable <- $x23
	;DEBUG_VALUE: emulate_AMX_FMA32:x_enable <- $x22
	;DEBUG_VALUE: emulate_AMX_FMA32:state <- $x20
	;DEBUG_VALUE: emulate_AMX_FMA32:operand <- $x19
	;DEBUG_VALUE: emulate_AMX_FMA32:z_row <- $x26
	;DEBUG_VALUE: emulate_AMX_FMA32:y_offset <- $x21
	;DEBUG_VALUE: j <- [DW_OP_consts 4, DW_OP_div, DW_OP_stack_value] $x15
	.loc	2 108 21 is_stmt 1              ; fma.c:108:21
	lsr	x16, x23, x15
	tbz	w16, #0, LBB1_20
Ltmp147:
; %bb.22:                               ;   in Loop: Header=BB1_21 Depth=2
	;DEBUG_VALUE: j <- [DW_OP_consts 4, DW_OP_div, DW_OP_stack_value] $x15
	;DEBUG_VALUE: i <- $x8
	;DEBUG_VALUE: emulate_AMX_FMA32:y_enable <- $x23
	;DEBUG_VALUE: emulate_AMX_FMA32:x_enable <- $x22
	;DEBUG_VALUE: emulate_AMX_FMA32:state <- $x20
	;DEBUG_VALUE: emulate_AMX_FMA32:operand <- $x19
	;DEBUG_VALUE: emulate_AMX_FMA32:z_row <- $x26
	;DEBUG_VALUE: emulate_AMX_FMA32:y_offset <- $x21
	.loc	2 109 46                        ; fma.c:109:46
	orr	x16, x10, x15
	.loc	2 109 29 is_stmt 0              ; fma.c:109:29
	add	x16, x20, x16, lsl #6
	.loc	2 110 32 is_stmt 1              ; fma.c:110:32
	ldr	s0, [x24, x14]
	.loc	2 109 29                        ; fma.c:109:29
	add	x16, x16, #1024
Ltmp148:
	;DEBUG_VALUE: z <- undef
	.loc	2 110 38                        ; fma.c:110:38
	ldr	s1, [x25, x15]
	.loc	2 110 44 is_stmt 0              ; fma.c:110:44
	ldr	s2, [x16, x14]
Ltmp149:
	;DEBUG_VALUE: fma32_alu:operand <- $x19
	;DEBUG_VALUE: fma32_alu:y <- $s1
	;DEBUG_VALUE: fma32_alu:x <- $s0
	;DEBUG_VALUE: fma32_alu:z <- $s2
	.loc	2 22 5 is_stmt 1                ; fma.c:22:5
	cmp	x11, #6
	b.hi	LBB1_27
Ltmp150:
; %bb.23:                               ;   in Loop: Header=BB1_21 Depth=2
	;DEBUG_VALUE: fma32_alu:z <- $s2
	;DEBUG_VALUE: fma32_alu:x <- $s0
	;DEBUG_VALUE: fma32_alu:y <- $s1
	;DEBUG_VALUE: fma32_alu:operand <- $x19
	;DEBUG_VALUE: j <- [DW_OP_consts 4, DW_OP_div, DW_OP_stack_value] $x15
	;DEBUG_VALUE: i <- $x8
	;DEBUG_VALUE: emulate_AMX_FMA32:y_enable <- $x23
	;DEBUG_VALUE: emulate_AMX_FMA32:x_enable <- $x22
	;DEBUG_VALUE: emulate_AMX_FMA32:state <- $x20
	;DEBUG_VALUE: emulate_AMX_FMA32:operand <- $x19
	;DEBUG_VALUE: emulate_AMX_FMA32:z_row <- $x26
	;DEBUG_VALUE: emulate_AMX_FMA32:y_offset <- $x21
	.loc	2 0 5 is_stmt 0                 ; fma.c:0:5
Ltmp151:
	adr	x17, Ltmp151
	ldrsw	x0, [x12, x11, lsl #2]
	add	x17, x17, x0
	br	x17
Ltmp152:
LBB1_24:                                ;   in Loop: Header=BB1_21 Depth=2
	;DEBUG_VALUE: fma32_alu:z <- $s2
	;DEBUG_VALUE: fma32_alu:x <- $s0
	;DEBUG_VALUE: fma32_alu:y <- $s1
	;DEBUG_VALUE: fma32_alu:operand <- $x19
	;DEBUG_VALUE: j <- [DW_OP_consts 4, DW_OP_div, DW_OP_stack_value] $x15
	;DEBUG_VALUE: i <- $x8
	;DEBUG_VALUE: emulate_AMX_FMA32:y_enable <- $x23
	;DEBUG_VALUE: emulate_AMX_FMA32:x_enable <- $x22
	;DEBUG_VALUE: emulate_AMX_FMA32:state <- $x20
	;DEBUG_VALUE: emulate_AMX_FMA32:operand <- $x19
	;DEBUG_VALUE: emulate_AMX_FMA32:z_row <- $x26
	;DEBUG_VALUE: emulate_AMX_FMA32:y_offset <- $x21
	.loc	2 23 22 is_stmt 1               ; fma.c:23:22
	fmul	s0, s0, s1
Ltmp153:
	.loc	2 0 22 is_stmt 0                ; fma.c:0:22
	b	LBB1_19
Ltmp154:
LBB1_25:                                ;   in Loop: Header=BB1_21 Depth=2
	;DEBUG_VALUE: fma32_alu:z <- $s2
	;DEBUG_VALUE: fma32_alu:x <- $s0
	;DEBUG_VALUE: fma32_alu:y <- $s1
	;DEBUG_VALUE: fma32_alu:operand <- $x19
	;DEBUG_VALUE: j <- [DW_OP_consts 4, DW_OP_div, DW_OP_stack_value] $x15
	;DEBUG_VALUE: i <- $x8
	;DEBUG_VALUE: emulate_AMX_FMA32:y_enable <- $x23
	;DEBUG_VALUE: emulate_AMX_FMA32:x_enable <- $x22
	;DEBUG_VALUE: emulate_AMX_FMA32:state <- $x20
	;DEBUG_VALUE: emulate_AMX_FMA32:operand <- $x19
	;DEBUG_VALUE: emulate_AMX_FMA32:z_row <- $x26
	;DEBUG_VALUE: emulate_AMX_FMA32:y_offset <- $x21
	.loc	2 24 22 is_stmt 1               ; fma.c:24:22
	fadd	s0, s0, s2
Ltmp155:
	.loc	2 0 22 is_stmt 0                ; fma.c:0:22
	b	LBB1_19
Ltmp156:
LBB1_26:                                ;   in Loop: Header=BB1_21 Depth=2
	;DEBUG_VALUE: fma32_alu:z <- $s2
	;DEBUG_VALUE: fma32_alu:x <- $s0
	;DEBUG_VALUE: fma32_alu:y <- $s1
	;DEBUG_VALUE: fma32_alu:operand <- $x19
	;DEBUG_VALUE: j <- [DW_OP_consts 4, DW_OP_div, DW_OP_stack_value] $x15
	;DEBUG_VALUE: i <- $x8
	;DEBUG_VALUE: emulate_AMX_FMA32:y_enable <- $x23
	;DEBUG_VALUE: emulate_AMX_FMA32:x_enable <- $x22
	;DEBUG_VALUE: emulate_AMX_FMA32:state <- $x20
	;DEBUG_VALUE: emulate_AMX_FMA32:operand <- $x19
	;DEBUG_VALUE: emulate_AMX_FMA32:z_row <- $x26
	;DEBUG_VALUE: emulate_AMX_FMA32:y_offset <- $x21
	.loc	2 26 22 is_stmt 1               ; fma.c:26:22
	fadd	s0, s1, s2
Ltmp157:
	.loc	2 0 22 is_stmt 0                ; fma.c:0:22
	b	LBB1_19
Ltmp158:
LBB1_27:                                ;   in Loop: Header=BB1_21 Depth=2
	;DEBUG_VALUE: fma32_alu:z <- $s2
	;DEBUG_VALUE: fma32_alu:x <- $s0
	;DEBUG_VALUE: fma32_alu:y <- $s1
	;DEBUG_VALUE: fma32_alu:operand <- $x19
	;DEBUG_VALUE: j <- [DW_OP_consts 4, DW_OP_div, DW_OP_stack_value] $x15
	;DEBUG_VALUE: i <- $x8
	;DEBUG_VALUE: emulate_AMX_FMA32:y_enable <- $x23
	;DEBUG_VALUE: emulate_AMX_FMA32:x_enable <- $x22
	;DEBUG_VALUE: emulate_AMX_FMA32:state <- $x20
	;DEBUG_VALUE: emulate_AMX_FMA32:operand <- $x19
	;DEBUG_VALUE: emulate_AMX_FMA32:z_row <- $x26
	;DEBUG_VALUE: emulate_AMX_FMA32:y_offset <- $x21
	.loc	2 32 5 is_stmt 1                ; fma.c:32:5
	; InlineAsm Start
	fmadd	s0, s0, s1, s2
	; InlineAsm End
Ltmp159:
	;DEBUG_VALUE: fma32_alu:result <- $s0
	.loc	2 0 5 is_stmt 0                 ; fma.c:0:5
	b	LBB1_19
Ltmp160:
LBB1_28:                                ;   in Loop: Header=BB1_21 Depth=2
	;DEBUG_VALUE: fma32_alu:z <- $s2
	;DEBUG_VALUE: fma32_alu:x <- $s0
	;DEBUG_VALUE: fma32_alu:y <- $s1
	;DEBUG_VALUE: fma32_alu:operand <- $x19
	;DEBUG_VALUE: j <- [DW_OP_consts 4, DW_OP_div, DW_OP_stack_value] $x15
	;DEBUG_VALUE: i <- $x8
	;DEBUG_VALUE: emulate_AMX_FMA32:y_enable <- $x23
	;DEBUG_VALUE: emulate_AMX_FMA32:x_enable <- $x22
	;DEBUG_VALUE: emulate_AMX_FMA32:state <- $x20
	;DEBUG_VALUE: emulate_AMX_FMA32:operand <- $x19
	;DEBUG_VALUE: emulate_AMX_FMA32:z_row <- $x26
	;DEBUG_VALUE: emulate_AMX_FMA32:y_offset <- $x21
	fmov	s0, s2
	b	LBB1_19
Ltmp161:
LBB1_29:                                ;   in Loop: Header=BB1_21 Depth=2
	;DEBUG_VALUE: fma32_alu:z <- $s2
	;DEBUG_VALUE: fma32_alu:x <- $s0
	;DEBUG_VALUE: fma32_alu:y <- $s1
	;DEBUG_VALUE: fma32_alu:operand <- $x19
	;DEBUG_VALUE: j <- [DW_OP_consts 4, DW_OP_div, DW_OP_stack_value] $x15
	;DEBUG_VALUE: i <- $x8
	;DEBUG_VALUE: emulate_AMX_FMA32:y_enable <- $x23
	;DEBUG_VALUE: emulate_AMX_FMA32:x_enable <- $x22
	;DEBUG_VALUE: emulate_AMX_FMA32:state <- $x20
	;DEBUG_VALUE: emulate_AMX_FMA32:operand <- $x19
	;DEBUG_VALUE: emulate_AMX_FMA32:z_row <- $x26
	;DEBUG_VALUE: emulate_AMX_FMA32:y_offset <- $x21
	movi	d0, #0000000000000000
	b	LBB1_19
Ltmp162:
LBB1_30:                                ;   in Loop: Header=BB1_15 Depth=1
	;DEBUG_VALUE: i <- $x8
	;DEBUG_VALUE: emulate_AMX_FMA32:y_enable <- $x23
	;DEBUG_VALUE: emulate_AMX_FMA32:x_enable <- $x22
	;DEBUG_VALUE: emulate_AMX_FMA32:state <- $x20
	;DEBUG_VALUE: emulate_AMX_FMA32:operand <- $x19
	;DEBUG_VALUE: emulate_AMX_FMA32:z_row <- $x26
	;DEBUG_VALUE: emulate_AMX_FMA32:y_offset <- $x21
	;DEBUG_VALUE: z <- undef
	.loc	2 105 28 is_stmt 1              ; fma.c:105:28
	ldr	s0, [x24, x14]
	.loc	2 105 34 is_stmt 0              ; fma.c:105:34
	ldr	s1, [x25, x14]
	.loc	2 105 40                        ; fma.c:105:40
	ldr	s2, [x9, x14]
Ltmp163:
	;DEBUG_VALUE: fma32_alu:operand <- $x19
	;DEBUG_VALUE: fma32_alu:y <- $s1
	;DEBUG_VALUE: fma32_alu:x <- $s0
	;DEBUG_VALUE: fma32_alu:z <- $s2
	.loc	2 22 5 is_stmt 1                ; fma.c:22:5
	cmp	x11, #6
	b.hi	LBB1_33
Ltmp164:
; %bb.31:                               ;   in Loop: Header=BB1_15 Depth=1
	;DEBUG_VALUE: fma32_alu:z <- $s2
	;DEBUG_VALUE: fma32_alu:x <- $s0
	;DEBUG_VALUE: fma32_alu:y <- $s1
	;DEBUG_VALUE: fma32_alu:operand <- $x19
	;DEBUG_VALUE: i <- $x8
	;DEBUG_VALUE: emulate_AMX_FMA32:y_enable <- $x23
	;DEBUG_VALUE: emulate_AMX_FMA32:x_enable <- $x22
	;DEBUG_VALUE: emulate_AMX_FMA32:state <- $x20
	;DEBUG_VALUE: emulate_AMX_FMA32:operand <- $x19
	;DEBUG_VALUE: emulate_AMX_FMA32:z_row <- $x26
	;DEBUG_VALUE: emulate_AMX_FMA32:y_offset <- $x21
	.loc	2 0 5 is_stmt 0                 ; fma.c:0:5
Ltmp165:
	adr	x14, Ltmp165
	ldrsw	x15, [x13, x11, lsl #2]
	add	x14, x14, x15
	br	x14
Ltmp166:
LBB1_32:                                ;   in Loop: Header=BB1_15 Depth=1
	;DEBUG_VALUE: fma32_alu:z <- $s2
	;DEBUG_VALUE: fma32_alu:x <- $s0
	;DEBUG_VALUE: fma32_alu:y <- $s1
	;DEBUG_VALUE: fma32_alu:operand <- $x19
	;DEBUG_VALUE: i <- $x8
	;DEBUG_VALUE: emulate_AMX_FMA32:y_enable <- $x23
	;DEBUG_VALUE: emulate_AMX_FMA32:x_enable <- $x22
	;DEBUG_VALUE: emulate_AMX_FMA32:state <- $x20
	;DEBUG_VALUE: emulate_AMX_FMA32:operand <- $x19
	;DEBUG_VALUE: emulate_AMX_FMA32:z_row <- $x26
	;DEBUG_VALUE: emulate_AMX_FMA32:y_offset <- $x21
	.loc	2 23 22 is_stmt 1               ; fma.c:23:22
	fmul	s0, s0, s1
Ltmp167:
	.loc	2 105 16                        ; fma.c:105:16
	str	s0, [x9, x8, lsl #2]
	b	LBB1_14
Ltmp168:
LBB1_33:                                ;   in Loop: Header=BB1_15 Depth=1
	;DEBUG_VALUE: fma32_alu:z <- $s2
	;DEBUG_VALUE: fma32_alu:x <- $s0
	;DEBUG_VALUE: fma32_alu:y <- $s1
	;DEBUG_VALUE: fma32_alu:operand <- $x19
	;DEBUG_VALUE: i <- $x8
	;DEBUG_VALUE: emulate_AMX_FMA32:y_enable <- $x23
	;DEBUG_VALUE: emulate_AMX_FMA32:x_enable <- $x22
	;DEBUG_VALUE: emulate_AMX_FMA32:state <- $x20
	;DEBUG_VALUE: emulate_AMX_FMA32:operand <- $x19
	;DEBUG_VALUE: emulate_AMX_FMA32:z_row <- $x26
	;DEBUG_VALUE: emulate_AMX_FMA32:y_offset <- $x21
	.loc	2 32 5                          ; fma.c:32:5
	; InlineAsm Start
	fmadd	s0, s0, s1, s2
	; InlineAsm End
Ltmp169:
	;DEBUG_VALUE: fma32_alu:result <- $s0
LBB1_34:                                ;   in Loop: Header=BB1_15 Depth=1
	;DEBUG_VALUE: i <- $x8
	;DEBUG_VALUE: emulate_AMX_FMA32:y_enable <- $x23
	;DEBUG_VALUE: emulate_AMX_FMA32:x_enable <- $x22
	;DEBUG_VALUE: emulate_AMX_FMA32:state <- $x20
	;DEBUG_VALUE: emulate_AMX_FMA32:operand <- $x19
	;DEBUG_VALUE: emulate_AMX_FMA32:z_row <- $x26
	;DEBUG_VALUE: emulate_AMX_FMA32:y_offset <- $x21
	.loc	2 105 16                        ; fma.c:105:16
	str	s0, [x9, x8, lsl #2]
	b	LBB1_14
Ltmp170:
LBB1_35:                                ;   in Loop: Header=BB1_15 Depth=1
	;DEBUG_VALUE: fma32_alu:z <- $s2
	;DEBUG_VALUE: fma32_alu:x <- $s0
	;DEBUG_VALUE: fma32_alu:y <- $s1
	;DEBUG_VALUE: fma32_alu:operand <- $x19
	;DEBUG_VALUE: i <- $x8
	;DEBUG_VALUE: emulate_AMX_FMA32:y_enable <- $x23
	;DEBUG_VALUE: emulate_AMX_FMA32:x_enable <- $x22
	;DEBUG_VALUE: emulate_AMX_FMA32:state <- $x20
	;DEBUG_VALUE: emulate_AMX_FMA32:operand <- $x19
	;DEBUG_VALUE: emulate_AMX_FMA32:z_row <- $x26
	;DEBUG_VALUE: emulate_AMX_FMA32:y_offset <- $x21
	.loc	2 24 22                         ; fma.c:24:22
	fadd	s0, s0, s2
Ltmp171:
	.loc	2 105 16                        ; fma.c:105:16
	str	s0, [x9, x8, lsl #2]
	b	LBB1_14
Ltmp172:
LBB1_36:                                ;   in Loop: Header=BB1_15 Depth=1
	;DEBUG_VALUE: fma32_alu:z <- $s2
	;DEBUG_VALUE: fma32_alu:x <- $s0
	;DEBUG_VALUE: fma32_alu:y <- $s1
	;DEBUG_VALUE: fma32_alu:operand <- $x19
	;DEBUG_VALUE: i <- $x8
	;DEBUG_VALUE: emulate_AMX_FMA32:y_enable <- $x23
	;DEBUG_VALUE: emulate_AMX_FMA32:x_enable <- $x22
	;DEBUG_VALUE: emulate_AMX_FMA32:state <- $x20
	;DEBUG_VALUE: emulate_AMX_FMA32:operand <- $x19
	;DEBUG_VALUE: emulate_AMX_FMA32:z_row <- $x26
	;DEBUG_VALUE: emulate_AMX_FMA32:y_offset <- $x21
	.loc	2 26 22                         ; fma.c:26:22
	fadd	s0, s1, s2
Ltmp173:
	.loc	2 105 16                        ; fma.c:105:16
	str	s0, [x9, x8, lsl #2]
	b	LBB1_14
Ltmp174:
LBB1_37:                                ;   in Loop: Header=BB1_15 Depth=1
	;DEBUG_VALUE: i <- $x8
	;DEBUG_VALUE: emulate_AMX_FMA32:y_enable <- $x23
	;DEBUG_VALUE: emulate_AMX_FMA32:x_enable <- $x22
	;DEBUG_VALUE: emulate_AMX_FMA32:state <- $x20
	;DEBUG_VALUE: emulate_AMX_FMA32:operand <- $x19
	;DEBUG_VALUE: emulate_AMX_FMA32:z_row <- $x26
	;DEBUG_VALUE: emulate_AMX_FMA32:y_offset <- $x21
	.loc	2 0 16 is_stmt 0                ; fma.c:0:16
	fmov	s0, s2
	.loc	2 105 16                        ; fma.c:105:16
	str	s2, [x9, x8, lsl #2]
	b	LBB1_14
Ltmp175:
LBB1_38:                                ;   in Loop: Header=BB1_15 Depth=1
	;DEBUG_VALUE: i <- $x8
	;DEBUG_VALUE: emulate_AMX_FMA32:y_enable <- $x23
	;DEBUG_VALUE: emulate_AMX_FMA32:x_enable <- $x22
	;DEBUG_VALUE: emulate_AMX_FMA32:state <- $x20
	;DEBUG_VALUE: emulate_AMX_FMA32:operand <- $x19
	;DEBUG_VALUE: emulate_AMX_FMA32:z_row <- $x26
	;DEBUG_VALUE: emulate_AMX_FMA32:y_offset <- $x21
	.loc	2 0 16                          ; fma.c:0:16
	movi	d0, #0000000000000000
	.loc	2 105 16                        ; fma.c:105:16
	str	s0, [x9, x8, lsl #2]
	b	LBB1_14
Ltmp176:
LBB1_39:
	;DEBUG_VALUE: i <- $x8
	;DEBUG_VALUE: emulate_AMX_FMA32:y_enable <- $x23
	;DEBUG_VALUE: emulate_AMX_FMA32:x_enable <- $x22
	;DEBUG_VALUE: emulate_AMX_FMA32:state <- $x20
	;DEBUG_VALUE: emulate_AMX_FMA32:operand <- $x19
	;DEBUG_VALUE: emulate_AMX_FMA32:z_row <- $x26
	;DEBUG_VALUE: emulate_AMX_FMA32:y_offset <- $x21
	.loc	2 0 16                          ; fma.c:0:16
	ldur	x8, [x29, #-72]
Lloh25:
	adrp	x9, ___stack_chk_guard@GOTPAGE
Lloh26:
	ldr	x9, [x9, ___stack_chk_guard@GOTPAGEOFF]
Lloh27:
	ldr	x9, [x9]
	cmp	x9, x8
	b.ne	LBB1_41
Ltmp177:
; %bb.40:
	;DEBUG_VALUE: emulate_AMX_FMA32:y_enable <- $x23
	;DEBUG_VALUE: emulate_AMX_FMA32:x_enable <- $x22
	;DEBUG_VALUE: emulate_AMX_FMA32:state <- $x20
	;DEBUG_VALUE: emulate_AMX_FMA32:operand <- $x19
	;DEBUG_VALUE: emulate_AMX_FMA32:z_row <- $x26
	;DEBUG_VALUE: emulate_AMX_FMA32:y_offset <- $x21
	.loc	2 114 1 is_stmt 1               ; fma.c:114:1
	ldp	x29, x30, [sp, #208]            ; 16-byte Folded Reload
	ldp	x20, x19, [sp, #192]            ; 16-byte Folded Reload
Ltmp178:
	;DEBUG_VALUE: emulate_AMX_FMA32:state <- [DW_OP_LLVM_entry_value 1] $x0
	;DEBUG_VALUE: emulate_AMX_FMA32:operand <- [DW_OP_LLVM_entry_value 1] $x1
	ldp	x22, x21, [sp, #176]            ; 16-byte Folded Reload
Ltmp179:
	ldp	x24, x23, [sp, #160]            ; 16-byte Folded Reload
Ltmp180:
	ldp	x26, x25, [sp, #144]            ; 16-byte Folded Reload
Ltmp181:
	add	sp, sp, #224
	ret
Ltmp182:
LBB1_41:
	;DEBUG_VALUE: emulate_AMX_FMA32:y_enable <- $x23
	;DEBUG_VALUE: emulate_AMX_FMA32:x_enable <- $x22
	;DEBUG_VALUE: emulate_AMX_FMA32:state <- $x20
	;DEBUG_VALUE: emulate_AMX_FMA32:operand <- $x19
	;DEBUG_VALUE: emulate_AMX_FMA32:z_row <- $x26
	;DEBUG_VALUE: emulate_AMX_FMA32:y_offset <- $x21
	.loc	2 0 1 is_stmt 0                 ; fma.c:0:1
	bl	___stack_chk_fail
Ltmp183:
	.loh AdrpAdd	Lloh17, Lloh18
	.loh AdrpLdrGotLdr	Lloh14, Lloh15, Lloh16
	.loh AdrpAdd	Lloh19, Lloh20
	.loh AdrpAdd	Lloh23, Lloh24
	.loh AdrpAdd	Lloh21, Lloh22
	.loh AdrpLdrGotLdr	Lloh25, Lloh26, Lloh27
Lfunc_end1:
	.cfi_endproc
	.p2align	2
lJTI1_0:
	.long	LBB1_1-Ltmp108
	.long	LBB1_5-Ltmp108
	.long	LBB1_2-Ltmp108
	.long	LBB1_3-Ltmp108
	.p2align	2
lJTI1_1:
	.long	LBB1_7-Ltmp122
	.long	LBB1_11-Ltmp122
	.long	LBB1_8-Ltmp122
	.long	LBB1_9-Ltmp122
	.p2align	2
lJTI1_2:
	.long	LBB1_32-Ltmp165
	.long	LBB1_35-Ltmp165
	.long	LBB1_34-Ltmp165
	.long	LBB1_36-Ltmp165
	.long	LBB1_13-Ltmp165
	.long	LBB1_37-Ltmp165
	.long	LBB1_38-Ltmp165
	.p2align	2
lJTI1_3:
	.long	LBB1_24-Ltmp151
	.long	LBB1_25-Ltmp151
	.long	LBB1_19-Ltmp151
	.long	LBB1_26-Ltmp151
	.long	LBB1_18-Ltmp151
	.long	LBB1_28-Ltmp151
	.long	LBB1_29-Ltmp151
                                        ; -- End function
	.p2align	2                               ; -- Begin function load_xy_reg_fma32
_load_xy_reg_fma32:                     ; @load_xy_reg_fma32
Lfunc_begin2:
	.loc	2 51 0 is_stmt 1                ; fma.c:51:0
	.cfi_startproc
; %bb.0:
	;DEBUG_VALUE: load_xy_reg_fma32:dst <- $x0
	;DEBUG_VALUE: load_xy_reg_fma32:src <- $x1
	;DEBUG_VALUE: load_xy_reg_fma32:offset <- $x2
	;DEBUG_VALUE: load_xy_reg_fma32:fp16 <- $x3
	;DEBUG_VALUE: load_xy_reg:dst <- $x0
	;DEBUG_VALUE: load_xy_reg:src <- $x1
	;DEBUG_VALUE: load_xy_reg:offset <- $x2
	stp	x24, x23, [sp, #-64]!           ; 16-byte Folded Spill
	.cfi_def_cfa_offset 64
	stp	x22, x21, [sp, #16]             ; 16-byte Folded Spill
	stp	x20, x19, [sp, #32]             ; 16-byte Folded Spill
	stp	x29, x30, [sp, #48]             ; 16-byte Folded Spill
	add	x29, sp, #48
	.cfi_def_cfa w29, 16
	.cfi_offset w30, -8
	.cfi_offset w29, -16
	.cfi_offset w19, -24
	.cfi_offset w20, -32
	.cfi_offset w21, -40
	.cfi_offset w22, -48
	.cfi_offset w23, -56
	.cfi_offset w24, -64
	mov	x20, x3
Ltmp184:
	;DEBUG_VALUE: load_xy_reg_fma32:fp16 <- $x20
	mov	x21, x1
Ltmp185:
	;DEBUG_VALUE: load_xy_reg_fma32:src <- $x21
	mov	x19, x0
Ltmp186:
	;DEBUG_VALUE: load_xy_reg_fma32:dst <- $x19
	mov	w8, #512
Ltmp187:
	;DEBUG_VALUE: load_xy_reg:src <- $x21
	;DEBUG_VALUE: load_xy_reg:dst <- $x19
	.loc	3 42 26 prologue_end            ; ./emulate.h:42:26
	sub	x8, x8, x2
Ltmp188:
	;DEBUG_VALUE: load_xy_reg:avail <- $x8
	.loc	3 43 5                          ; ./emulate.h:43:5
	add	x1, x1, x2
	.loc	3 44 5                          ; ./emulate.h:44:5
	sub	x9, x2, #448
	mov	w10, #64
	.loc	3 43 5                          ; ./emulate.h:43:5
	cmp	x8, #63
	csel	x2, x10, x8, hi
Ltmp189:
	;DEBUG_VALUE: load_xy_reg_fma32:offset <- [DW_OP_LLVM_entry_value 1] $x2
	.loc	3 44 5                          ; ./emulate.h:44:5
	add	x22, x0, x8
	csel	x23, xzr, x9, hi
	.loc	3 43 5                          ; ./emulate.h:43:5
	bl	_memcpy
Ltmp190:
	.loc	3 44 5                          ; ./emulate.h:44:5
	mov	x0, x22
	mov	x1, x21
	mov	x2, x23
	bl	_memcpy
Ltmp191:
	.loc	2 53 9                          ; fma.c:53:9
	cbz	x20, LBB2_2
Ltmp192:
; %bb.1:
	;DEBUG_VALUE: load_xy_reg_fma32:offset <- [DW_OP_LLVM_entry_value 1] $x2
	;DEBUG_VALUE: load_xy_reg_fma32:dst <- $x19
	;DEBUG_VALUE: load_xy_reg_fma32:src <- $x21
	;DEBUG_VALUE: load_xy_reg_fma32:fp16 <- $x20
	;DEBUG_VALUE: i <- 0
	.loc	2 55 25                         ; fma.c:55:25
	ldp	s0, s1, [x19]
Ltmp193:
	;DEBUG_VALUE: val <- $s0
	;DEBUG_VALUE: val <- $s1
	.loc	2 56 13                         ; fma.c:56:13
	; InlineAsm Start
	fcvt	s0, h0
	; InlineAsm End
Ltmp194:
	;DEBUG_VALUE: val <- $s0
	.loc	2 57 20                         ; fma.c:57:20
	str	s0, [x19]
Ltmp195:
	;DEBUG_VALUE: i <- 1
	.loc	2 56 13                         ; fma.c:56:13
	; InlineAsm Start
	fcvt	s1, h1
	; InlineAsm End
Ltmp196:
	;DEBUG_VALUE: val <- $s1
	.loc	2 57 20                         ; fma.c:57:20
	str	s1, [x19, #4]
Ltmp197:
	;DEBUG_VALUE: i <- 2
	.loc	2 55 25                         ; fma.c:55:25
	ldp	s0, s1, [x19, #8]
Ltmp198:
	;DEBUG_VALUE: val <- $s0
	;DEBUG_VALUE: val <- $s1
	.loc	2 56 13                         ; fma.c:56:13
	; InlineAsm Start
	fcvt	s0, h0
	; InlineAsm End
Ltmp199:
	;DEBUG_VALUE: val <- $s0
	.loc	2 57 20                         ; fma.c:57:20
	str	s0, [x19, #8]
Ltmp200:
	;DEBUG_VALUE: i <- 3
	.loc	2 56 13                         ; fma.c:56:13
	; InlineAsm Start
	fcvt	s1, h1
	; InlineAsm End
Ltmp201:
	;DEBUG_VALUE: val <- $s1
	.loc	2 57 20                         ; fma.c:57:20
	str	s1, [x19, #12]
Ltmp202:
	;DEBUG_VALUE: i <- 4
	.loc	2 55 25                         ; fma.c:55:25
	ldp	s0, s1, [x19, #16]
Ltmp203:
	;DEBUG_VALUE: val <- $s0
	;DEBUG_VALUE: val <- $s1
	.loc	2 56 13                         ; fma.c:56:13
	; InlineAsm Start
	fcvt	s0, h0
	; InlineAsm End
Ltmp204:
	;DEBUG_VALUE: val <- $s0
	.loc	2 57 20                         ; fma.c:57:20
	str	s0, [x19, #16]
Ltmp205:
	;DEBUG_VALUE: i <- 5
	.loc	2 56 13                         ; fma.c:56:13
	; InlineAsm Start
	fcvt	s1, h1
	; InlineAsm End
Ltmp206:
	;DEBUG_VALUE: val <- $s1
	.loc	2 57 20                         ; fma.c:57:20
	str	s1, [x19, #20]
Ltmp207:
	;DEBUG_VALUE: i <- 6
	.loc	2 55 25                         ; fma.c:55:25
	ldp	s0, s1, [x19, #24]
Ltmp208:
	;DEBUG_VALUE: val <- $s0
	;DEBUG_VALUE: val <- $s1
	.loc	2 56 13                         ; fma.c:56:13
	; InlineAsm Start
	fcvt	s0, h0
	; InlineAsm End
Ltmp209:
	;DEBUG_VALUE: val <- $s0
	.loc	2 57 20                         ; fma.c:57:20
	str	s0, [x19, #24]
Ltmp210:
	;DEBUG_VALUE: i <- 7
	.loc	2 56 13                         ; fma.c:56:13
	; InlineAsm Start
	fcvt	s1, h1
	; InlineAsm End
Ltmp211:
	;DEBUG_VALUE: val <- $s1
	.loc	2 57 20                         ; fma.c:57:20
	str	s1, [x19, #28]
Ltmp212:
	;DEBUG_VALUE: i <- 8
	.loc	2 55 25                         ; fma.c:55:25
	ldp	s0, s1, [x19, #32]
Ltmp213:
	;DEBUG_VALUE: val <- $s0
	;DEBUG_VALUE: val <- $s1
	.loc	2 56 13                         ; fma.c:56:13
	; InlineAsm Start
	fcvt	s0, h0
	; InlineAsm End
Ltmp214:
	;DEBUG_VALUE: val <- $s0
	.loc	2 57 20                         ; fma.c:57:20
	str	s0, [x19, #32]
Ltmp215:
	;DEBUG_VALUE: i <- 9
	.loc	2 56 13                         ; fma.c:56:13
	; InlineAsm Start
	fcvt	s1, h1
	; InlineAsm End
Ltmp216:
	;DEBUG_VALUE: val <- $s1
	.loc	2 57 20                         ; fma.c:57:20
	str	s1, [x19, #36]
Ltmp217:
	;DEBUG_VALUE: i <- 10
	.loc	2 55 25                         ; fma.c:55:25
	ldp	s0, s1, [x19, #40]
Ltmp218:
	;DEBUG_VALUE: val <- $s0
	;DEBUG_VALUE: val <- $s1
	.loc	2 56 13                         ; fma.c:56:13
	; InlineAsm Start
	fcvt	s0, h0
	; InlineAsm End
Ltmp219:
	;DEBUG_VALUE: val <- $s0
	.loc	2 57 20                         ; fma.c:57:20
	str	s0, [x19, #40]
Ltmp220:
	;DEBUG_VALUE: i <- 11
	.loc	2 56 13                         ; fma.c:56:13
	; InlineAsm Start
	fcvt	s1, h1
	; InlineAsm End
Ltmp221:
	;DEBUG_VALUE: val <- $s1
	.loc	2 57 20                         ; fma.c:57:20
	str	s1, [x19, #44]
Ltmp222:
	;DEBUG_VALUE: i <- 12
	.loc	2 55 25                         ; fma.c:55:25
	ldp	s0, s1, [x19, #48]
Ltmp223:
	;DEBUG_VALUE: val <- $s0
	;DEBUG_VALUE: val <- $s1
	.loc	2 56 13                         ; fma.c:56:13
	; InlineAsm Start
	fcvt	s0, h0
	; InlineAsm End
Ltmp224:
	;DEBUG_VALUE: val <- $s0
	.loc	2 57 20                         ; fma.c:57:20
	str	s0, [x19, #48]
Ltmp225:
	;DEBUG_VALUE: i <- 13
	.loc	2 56 13                         ; fma.c:56:13
	; InlineAsm Start
	fcvt	s1, h1
	; InlineAsm End
Ltmp226:
	;DEBUG_VALUE: val <- $s1
	.loc	2 57 20                         ; fma.c:57:20
	str	s1, [x19, #52]
Ltmp227:
	;DEBUG_VALUE: i <- 14
	.loc	2 55 25                         ; fma.c:55:25
	ldp	s0, s1, [x19, #56]
Ltmp228:
	;DEBUG_VALUE: val <- $s0
	;DEBUG_VALUE: val <- $s1
	.loc	2 56 13                         ; fma.c:56:13
	; InlineAsm Start
	fcvt	s0, h0
	; InlineAsm End
Ltmp229:
	;DEBUG_VALUE: val <- $s0
	.loc	2 57 20                         ; fma.c:57:20
	str	s0, [x19, #56]
Ltmp230:
	;DEBUG_VALUE: i <- 15
	.loc	2 56 13                         ; fma.c:56:13
	; InlineAsm Start
	fcvt	s1, h1
	; InlineAsm End
Ltmp231:
	;DEBUG_VALUE: val <- $s1
	.loc	2 57 20                         ; fma.c:57:20
	str	s1, [x19, #60]
Ltmp232:
	;DEBUG_VALUE: i <- 16
LBB2_2:
	;DEBUG_VALUE: load_xy_reg_fma32:offset <- [DW_OP_LLVM_entry_value 1] $x2
	;DEBUG_VALUE: load_xy_reg_fma32:dst <- $x19
	;DEBUG_VALUE: load_xy_reg_fma32:src <- $x21
	;DEBUG_VALUE: load_xy_reg_fma32:fp16 <- $x20
	.loc	2 60 1                          ; fma.c:60:1
	ldp	x29, x30, [sp, #48]             ; 16-byte Folded Reload
	ldp	x20, x19, [sp, #32]             ; 16-byte Folded Reload
Ltmp233:
	;DEBUG_VALUE: load_xy_reg_fma32:fp16 <- [DW_OP_LLVM_entry_value 1] $x3
	;DEBUG_VALUE: load_xy_reg_fma32:dst <- [DW_OP_LLVM_entry_value 1] $x0
	ldp	x22, x21, [sp, #16]             ; 16-byte Folded Reload
Ltmp234:
	;DEBUG_VALUE: load_xy_reg_fma32:src <- [DW_OP_LLVM_entry_value 1] $x1
	ldp	x24, x23, [sp], #64             ; 16-byte Folded Reload
	ret
Ltmp235:
Lfunc_end2:
	.cfi_endproc
                                        ; -- End function
	.globl	_emulate_AMX_FMA16              ; -- Begin function emulate_AMX_FMA16
	.p2align	2
_emulate_AMX_FMA16:                     ; @emulate_AMX_FMA16
Lfunc_begin3:
	.loc	2 116 0                         ; fma.c:116:0
	.cfi_startproc
; %bb.0:
	;DEBUG_VALUE: emulate_AMX_FMA16:state <- $x0
	;DEBUG_VALUE: emulate_AMX_FMA16:operand <- $x1
	;DEBUG_VALUE: emulate_AMX_FMA16:operand <- $x1
	;DEBUG_VALUE: emulate_AMX_FMA16:state <- $x0
	sub	sp, sp, #240
	.cfi_def_cfa_offset 240
	stp	x28, x27, [sp, #144]            ; 16-byte Folded Spill
	stp	x26, x25, [sp, #160]            ; 16-byte Folded Spill
	stp	x24, x23, [sp, #176]            ; 16-byte Folded Spill
	stp	x22, x21, [sp, #192]            ; 16-byte Folded Spill
	stp	x20, x19, [sp, #208]            ; 16-byte Folded Spill
	stp	x29, x30, [sp, #224]            ; 16-byte Folded Spill
	add	x29, sp, #224
	.cfi_def_cfa w29, 16
	.cfi_offset w30, -8
	.cfi_offset w29, -16
	.cfi_offset w19, -24
	.cfi_offset w20, -32
	.cfi_offset w21, -40
	.cfi_offset w22, -48
	.cfi_offset w23, -56
	.cfi_offset w24, -64
	.cfi_offset w25, -72
	.cfi_offset w26, -80
	.cfi_offset w27, -88
	.cfi_offset w28, -96
Lloh28:
	adrp	x8, ___stack_chk_guard@GOTPAGE
Lloh29:
	ldr	x8, [x8, ___stack_chk_guard@GOTPAGEOFF]
Lloh30:
	ldr	x8, [x8]
	stur	x8, [x29, #-88]
Ltmp236:
	.loc	2 117 33 prologue_end           ; fma.c:117:33
	and	x23, x1, #0x1ff
Ltmp237:
	;DEBUG_VALUE: emulate_AMX_FMA16:y_offset <- $x23
	.loc	2 118 41                        ; fma.c:118:41
	ubfx	x8, x1, #10, #9
Ltmp238:
	;DEBUG_VALUE: emulate_AMX_FMA16:x_offset <- $x8
	.loc	2 119 38                        ; fma.c:119:38
	ubfx	x15, x1, #20, #6
Ltmp239:
	;DEBUG_VALUE: emulate_AMX_FMA16:z_row <- $x15
	.loc	2 120 49                        ; fma.c:120:49
	lsr	x9, x1, #41
	mov	w10, #3
Ltmp240:
	;DEBUG_VALUE: parse_writemask:maskbits <- 7
	;DEBUG_VALUE: parse_writemask:g <- 2
	;DEBUG_VALUE: parse_writemask:val <- $w9
	.loc	3 67 9                          ; ./emulate.h:67:9
	ands	w11, w10, w9, lsr #5
Ltmp241:
	;DEBUG_VALUE: parse_writemask:mode <- $w11
	.loc	3 0 9 is_stmt 0                 ; ./emulate.h:0:9
	mov	w10, #1
	.loc	3 67 9                          ; ./emulate.h:67:9
	cinc	w10, w10, ne
	mul	w10, w10, w9
Ltmp242:
	;DEBUG_VALUE: parse_writemask:val <- $w10
	.loc	3 68 9 is_stmt 1                ; ./emulate.h:68:9
	and	w9, w10, #0x3f
Ltmp243:
	;DEBUG_VALUE: parse_writemask:all <- -1
	;DEBUG_VALUE: parse_writemask:val <- $w9
	.loc	3 0 9 is_stmt 0                 ; ./emulate.h:0:9
	mov	x19, x1
Ltmp244:
	;DEBUG_VALUE: emulate_AMX_FMA16:operand <- $x19
	mov	x20, x0
Ltmp245:
	;DEBUG_VALUE: emulate_AMX_FMA16:state <- $x20
Lloh31:
	adrp	x12, lJTI3_0@PAGE
Lloh32:
	add	x12, x12, lJTI3_0@PAGEOFF
Ltmp246:
	adr	x13, Ltmp246
	ldrsw	x14, [x12, x11, lsl #2]
	add	x13, x13, x14
	br	x13
Ltmp247:
LBB3_1:
	;DEBUG_VALUE: emulate_AMX_FMA16:state <- $x20
	;DEBUG_VALUE: emulate_AMX_FMA16:operand <- $x19
	;DEBUG_VALUE: parse_writemask:all <- -1
	;DEBUG_VALUE: parse_writemask:mode <- $w11
	;DEBUG_VALUE: parse_writemask:val <- $w9
	;DEBUG_VALUE: parse_writemask:g <- 2
	;DEBUG_VALUE: parse_writemask:maskbits <- 7
	;DEBUG_VALUE: emulate_AMX_FMA16:z_row <- $x15
	;DEBUG_VALUE: emulate_AMX_FMA16:x_offset <- $x8
	;DEBUG_VALUE: emulate_AMX_FMA16:y_offset <- $x23
	.loc	3 72 22 is_stmt 1               ; ./emulate.h:72:22
	sub	w11, w9, #1
Ltmp248:
	ubfiz	w10, w10, #1, #1
	mov	x12, #3689348814741910323
	lsl	x10, x12, x10
	cmp	w11, #2
	csinv	x10, x10, xzr, lo
Ltmp249:
	;DEBUG_VALUE: parse_writemask:all <- $x10
	.loc	3 83 16                         ; ./emulate.h:83:16
	cmp	w9, #3
	csel	x24, x10, xzr, lo
	b	LBB3_8
Ltmp250:
LBB3_2:
	;DEBUG_VALUE: emulate_AMX_FMA16:state <- $x20
	;DEBUG_VALUE: emulate_AMX_FMA16:operand <- $x19
	;DEBUG_VALUE: parse_writemask:all <- -1
	;DEBUG_VALUE: parse_writemask:mode <- $w11
	;DEBUG_VALUE: parse_writemask:val <- $w9
	;DEBUG_VALUE: parse_writemask:g <- 2
	;DEBUG_VALUE: parse_writemask:maskbits <- 7
	;DEBUG_VALUE: emulate_AMX_FMA16:z_row <- $x15
	;DEBUG_VALUE: emulate_AMX_FMA16:x_offset <- $x8
	;DEBUG_VALUE: emulate_AMX_FMA16:y_offset <- $x23
	.loc	3 0 16 is_stmt 0                ; ./emulate.h:0:16
	mov	x24, #-1
	.loc	3 88 13 is_stmt 1               ; ./emulate.h:88:13
	cbz	w9, LBB3_8
Ltmp251:
; %bb.3:
	;DEBUG_VALUE: emulate_AMX_FMA16:state <- $x20
	;DEBUG_VALUE: emulate_AMX_FMA16:operand <- $x19
	;DEBUG_VALUE: parse_writemask:all <- -1
	;DEBUG_VALUE: parse_writemask:mode <- $w11
	;DEBUG_VALUE: parse_writemask:val <- $w9
	;DEBUG_VALUE: parse_writemask:g <- 2
	;DEBUG_VALUE: parse_writemask:maskbits <- 7
	;DEBUG_VALUE: emulate_AMX_FMA16:z_row <- $x15
	;DEBUG_VALUE: emulate_AMX_FMA16:x_offset <- $x8
	;DEBUG_VALUE: emulate_AMX_FMA16:y_offset <- $x23
	.loc	3 91 22                         ; ./emulate.h:91:22
	lsl	x9, x24, x9
Ltmp252:
	.loc	3 0 22 is_stmt 0                ; ./emulate.h:0:22
	b	LBB3_6
Ltmp253:
LBB3_4:
	;DEBUG_VALUE: emulate_AMX_FMA16:state <- $x20
	;DEBUG_VALUE: emulate_AMX_FMA16:operand <- $x19
	;DEBUG_VALUE: parse_writemask:all <- -1
	;DEBUG_VALUE: parse_writemask:mode <- $w11
	;DEBUG_VALUE: parse_writemask:val <- $w9
	;DEBUG_VALUE: parse_writemask:g <- 2
	;DEBUG_VALUE: parse_writemask:maskbits <- 7
	;DEBUG_VALUE: emulate_AMX_FMA16:z_row <- $x15
	;DEBUG_VALUE: emulate_AMX_FMA16:x_offset <- $x8
	;DEBUG_VALUE: emulate_AMX_FMA16:y_offset <- $x23
	mov	x24, #-1
	.loc	3 93 13 is_stmt 1               ; ./emulate.h:93:13
	cbz	w9, LBB3_8
Ltmp254:
; %bb.5:
	;DEBUG_VALUE: emulate_AMX_FMA16:state <- $x20
	;DEBUG_VALUE: emulate_AMX_FMA16:operand <- $x19
	;DEBUG_VALUE: parse_writemask:all <- -1
	;DEBUG_VALUE: parse_writemask:mode <- $w11
	;DEBUG_VALUE: parse_writemask:val <- $w9
	;DEBUG_VALUE: parse_writemask:g <- 2
	;DEBUG_VALUE: parse_writemask:maskbits <- 7
	;DEBUG_VALUE: emulate_AMX_FMA16:z_row <- $x15
	;DEBUG_VALUE: emulate_AMX_FMA16:x_offset <- $x8
	;DEBUG_VALUE: emulate_AMX_FMA16:y_offset <- $x23
	.loc	3 96 22                         ; ./emulate.h:96:22
	lsr	x9, x24, x9
Ltmp255:
LBB3_6:
	;DEBUG_VALUE: emulate_AMX_FMA16:state <- $x20
	;DEBUG_VALUE: emulate_AMX_FMA16:operand <- $x19
	;DEBUG_VALUE: parse_writemask:all <- -1
	;DEBUG_VALUE: parse_writemask:mode <- $w11
	;DEBUG_VALUE: parse_writemask:g <- 2
	;DEBUG_VALUE: parse_writemask:maskbits <- 7
	;DEBUG_VALUE: emulate_AMX_FMA16:z_row <- $x15
	;DEBUG_VALUE: emulate_AMX_FMA16:x_offset <- $x8
	;DEBUG_VALUE: emulate_AMX_FMA16:y_offset <- $x23
	.loc	3 0 0 is_stmt 0                 ; ./emulate.h:0:0
	mvn	x24, x9
	b	LBB3_8
Ltmp256:
LBB3_7:
	;DEBUG_VALUE: emulate_AMX_FMA16:state <- $x20
	;DEBUG_VALUE: emulate_AMX_FMA16:operand <- $x19
	;DEBUG_VALUE: parse_writemask:all <- -1
	;DEBUG_VALUE: parse_writemask:mode <- $w11
	;DEBUG_VALUE: parse_writemask:val <- $w9
	;DEBUG_VALUE: parse_writemask:g <- 2
	;DEBUG_VALUE: parse_writemask:maskbits <- 7
	;DEBUG_VALUE: emulate_AMX_FMA16:z_row <- $x15
	;DEBUG_VALUE: emulate_AMX_FMA16:x_offset <- $x8
	;DEBUG_VALUE: emulate_AMX_FMA16:y_offset <- $x23
	mov	w10, #3
	.loc	3 86 30 is_stmt 1               ; ./emulate.h:86:30
	lsl	x24, x10, x9
Ltmp257:
LBB3_8:
	;DEBUG_VALUE: emulate_AMX_FMA16:state <- $x20
	;DEBUG_VALUE: emulate_AMX_FMA16:operand <- $x19
	;DEBUG_VALUE: emulate_AMX_FMA16:z_row <- $x15
	;DEBUG_VALUE: emulate_AMX_FMA16:x_offset <- $x8
	;DEBUG_VALUE: emulate_AMX_FMA16:y_offset <- $x23
	;DEBUG_VALUE: emulate_AMX_FMA16:x_enable <- $x24
	.loc	2 121 49                        ; fma.c:121:49
	lsr	x9, x19, #32
Ltmp258:
	;DEBUG_VALUE: parse_writemask:maskbits <- 7
	;DEBUG_VALUE: parse_writemask:g <- 2
	;DEBUG_VALUE: parse_writemask:val <- $w9
	.loc	3 66 61                         ; ./emulate.h:66:61
	lsr	x10, x19, #37
	.loc	3 67 9                          ; ./emulate.h:67:9
	ands	w11, w10, #0x3
Ltmp259:
	;DEBUG_VALUE: parse_writemask:mode <- $w11
	.loc	3 0 9 is_stmt 0                 ; ./emulate.h:0:9
	mov	w10, #1
	.loc	3 67 9                          ; ./emulate.h:67:9
	cinc	w10, w10, ne
	mul	w10, w10, w9
Ltmp260:
	;DEBUG_VALUE: parse_writemask:val <- $w10
	.loc	3 68 9 is_stmt 1                ; ./emulate.h:68:9
	and	w9, w10, #0x3f
Ltmp261:
	;DEBUG_VALUE: parse_writemask:all <- -1
	;DEBUG_VALUE: parse_writemask:val <- $w9
	.loc	3 0 9 is_stmt 0                 ; ./emulate.h:0:9
Lloh33:
	adrp	x12, lJTI3_1@PAGE
Lloh34:
	add	x12, x12, lJTI3_1@PAGEOFF
Ltmp262:
	adr	x13, Ltmp262
	ldrsw	x14, [x12, x11, lsl #2]
	add	x13, x13, x14
	str	x15, [sp]                       ; 8-byte Folded Spill
Ltmp263:
	;DEBUG_VALUE: emulate_AMX_FMA16:z_row <- [$sp+0]
	br	x13
Ltmp264:
LBB3_9:
	;DEBUG_VALUE: emulate_AMX_FMA16:z_row <- [$sp+0]
	;DEBUG_VALUE: parse_writemask:all <- -1
	;DEBUG_VALUE: parse_writemask:mode <- $w11
	;DEBUG_VALUE: parse_writemask:val <- $w9
	;DEBUG_VALUE: parse_writemask:g <- 2
	;DEBUG_VALUE: parse_writemask:maskbits <- 7
	;DEBUG_VALUE: emulate_AMX_FMA16:x_enable <- $x24
	;DEBUG_VALUE: emulate_AMX_FMA16:state <- $x20
	;DEBUG_VALUE: emulate_AMX_FMA16:operand <- $x19
	;DEBUG_VALUE: emulate_AMX_FMA16:x_offset <- $x8
	;DEBUG_VALUE: emulate_AMX_FMA16:y_offset <- $x23
	.loc	3 72 22 is_stmt 1               ; ./emulate.h:72:22
	sub	w11, w9, #1
Ltmp265:
	ubfiz	w10, w10, #1, #1
	mov	x12, #3689348814741910323
	lsl	x10, x12, x10
	cmp	w11, #2
	csinv	x10, x10, xzr, lo
Ltmp266:
	;DEBUG_VALUE: parse_writemask:all <- $x10
	.loc	3 83 16                         ; ./emulate.h:83:16
	cmp	w9, #3
	csel	x25, x10, xzr, lo
	b	LBB3_16
Ltmp267:
LBB3_10:
	;DEBUG_VALUE: emulate_AMX_FMA16:z_row <- [$sp+0]
	;DEBUG_VALUE: parse_writemask:all <- -1
	;DEBUG_VALUE: parse_writemask:mode <- $w11
	;DEBUG_VALUE: parse_writemask:val <- $w9
	;DEBUG_VALUE: parse_writemask:g <- 2
	;DEBUG_VALUE: parse_writemask:maskbits <- 7
	;DEBUG_VALUE: emulate_AMX_FMA16:x_enable <- $x24
	;DEBUG_VALUE: emulate_AMX_FMA16:state <- $x20
	;DEBUG_VALUE: emulate_AMX_FMA16:operand <- $x19
	;DEBUG_VALUE: emulate_AMX_FMA16:x_offset <- $x8
	;DEBUG_VALUE: emulate_AMX_FMA16:y_offset <- $x23
	.loc	3 0 16 is_stmt 0                ; ./emulate.h:0:16
	mov	x25, #-1
	.loc	3 88 13 is_stmt 1               ; ./emulate.h:88:13
	cbz	w9, LBB3_16
Ltmp268:
; %bb.11:
	;DEBUG_VALUE: emulate_AMX_FMA16:z_row <- [$sp+0]
	;DEBUG_VALUE: parse_writemask:all <- -1
	;DEBUG_VALUE: parse_writemask:mode <- $w11
	;DEBUG_VALUE: parse_writemask:val <- $w9
	;DEBUG_VALUE: parse_writemask:g <- 2
	;DEBUG_VALUE: parse_writemask:maskbits <- 7
	;DEBUG_VALUE: emulate_AMX_FMA16:x_enable <- $x24
	;DEBUG_VALUE: emulate_AMX_FMA16:state <- $x20
	;DEBUG_VALUE: emulate_AMX_FMA16:operand <- $x19
	;DEBUG_VALUE: emulate_AMX_FMA16:x_offset <- $x8
	;DEBUG_VALUE: emulate_AMX_FMA16:y_offset <- $x23
	.loc	3 91 22                         ; ./emulate.h:91:22
	lsl	x9, x25, x9
Ltmp269:
	.loc	3 0 22 is_stmt 0                ; ./emulate.h:0:22
	b	LBB3_14
Ltmp270:
LBB3_12:
	;DEBUG_VALUE: emulate_AMX_FMA16:z_row <- [$sp+0]
	;DEBUG_VALUE: parse_writemask:all <- -1
	;DEBUG_VALUE: parse_writemask:mode <- $w11
	;DEBUG_VALUE: parse_writemask:val <- $w9
	;DEBUG_VALUE: parse_writemask:g <- 2
	;DEBUG_VALUE: parse_writemask:maskbits <- 7
	;DEBUG_VALUE: emulate_AMX_FMA16:x_enable <- $x24
	;DEBUG_VALUE: emulate_AMX_FMA16:state <- $x20
	;DEBUG_VALUE: emulate_AMX_FMA16:operand <- $x19
	;DEBUG_VALUE: emulate_AMX_FMA16:x_offset <- $x8
	;DEBUG_VALUE: emulate_AMX_FMA16:y_offset <- $x23
	mov	x25, #-1
	.loc	3 93 13 is_stmt 1               ; ./emulate.h:93:13
	cbz	w9, LBB3_16
Ltmp271:
; %bb.13:
	;DEBUG_VALUE: emulate_AMX_FMA16:z_row <- [$sp+0]
	;DEBUG_VALUE: parse_writemask:all <- -1
	;DEBUG_VALUE: parse_writemask:mode <- $w11
	;DEBUG_VALUE: parse_writemask:val <- $w9
	;DEBUG_VALUE: parse_writemask:g <- 2
	;DEBUG_VALUE: parse_writemask:maskbits <- 7
	;DEBUG_VALUE: emulate_AMX_FMA16:x_enable <- $x24
	;DEBUG_VALUE: emulate_AMX_FMA16:state <- $x20
	;DEBUG_VALUE: emulate_AMX_FMA16:operand <- $x19
	;DEBUG_VALUE: emulate_AMX_FMA16:x_offset <- $x8
	;DEBUG_VALUE: emulate_AMX_FMA16:y_offset <- $x23
	.loc	3 96 22                         ; ./emulate.h:96:22
	lsr	x9, x25, x9
Ltmp272:
LBB3_14:
	;DEBUG_VALUE: emulate_AMX_FMA16:z_row <- [$sp+0]
	;DEBUG_VALUE: parse_writemask:all <- -1
	;DEBUG_VALUE: parse_writemask:mode <- $w11
	;DEBUG_VALUE: parse_writemask:g <- 2
	;DEBUG_VALUE: parse_writemask:maskbits <- 7
	;DEBUG_VALUE: emulate_AMX_FMA16:x_enable <- $x24
	;DEBUG_VALUE: emulate_AMX_FMA16:state <- $x20
	;DEBUG_VALUE: emulate_AMX_FMA16:operand <- $x19
	;DEBUG_VALUE: emulate_AMX_FMA16:x_offset <- $x8
	;DEBUG_VALUE: emulate_AMX_FMA16:y_offset <- $x23
	.loc	3 0 0 is_stmt 0                 ; ./emulate.h:0:0
	mvn	x25, x9
	b	LBB3_16
Ltmp273:
LBB3_15:
	;DEBUG_VALUE: emulate_AMX_FMA16:z_row <- [$sp+0]
	;DEBUG_VALUE: parse_writemask:all <- -1
	;DEBUG_VALUE: parse_writemask:mode <- $w11
	;DEBUG_VALUE: parse_writemask:val <- $w9
	;DEBUG_VALUE: parse_writemask:g <- 2
	;DEBUG_VALUE: parse_writemask:maskbits <- 7
	;DEBUG_VALUE: emulate_AMX_FMA16:x_enable <- $x24
	;DEBUG_VALUE: emulate_AMX_FMA16:state <- $x20
	;DEBUG_VALUE: emulate_AMX_FMA16:operand <- $x19
	;DEBUG_VALUE: emulate_AMX_FMA16:x_offset <- $x8
	;DEBUG_VALUE: emulate_AMX_FMA16:y_offset <- $x23
	mov	w10, #3
	.loc	3 86 30 is_stmt 1               ; ./emulate.h:86:30
	lsl	x25, x10, x9
Ltmp274:
LBB3_16:
	;DEBUG_VALUE: emulate_AMX_FMA16:z_row <- [$sp+0]
	;DEBUG_VALUE: emulate_AMX_FMA16:x_enable <- $x24
	;DEBUG_VALUE: emulate_AMX_FMA16:state <- $x20
	;DEBUG_VALUE: emulate_AMX_FMA16:operand <- $x19
	;DEBUG_VALUE: emulate_AMX_FMA16:x_offset <- $x8
	;DEBUG_VALUE: emulate_AMX_FMA16:y_offset <- $x23
	;DEBUG_VALUE: emulate_AMX_FMA16:y_enable <- $x25
	.loc	3 0 30 is_stmt 0                ; ./emulate.h:0:30
	mov	w27, #512
Ltmp275:
	;DEBUG_VALUE: load_xy_reg:offset <- $x8
	;DEBUG_VALUE: load_xy_reg:src <- $x20
	;DEBUG_VALUE: load_xy_reg:dst <- [DW_OP_plus_uconst 72, DW_OP_stack_value] $sp
	.loc	3 42 26 is_stmt 1               ; ./emulate.h:42:26
	sub	x9, x27, x8
Ltmp276:
	;DEBUG_VALUE: load_xy_reg:avail <- $x9
	.loc	3 43 5                          ; ./emulate.h:43:5
	add	x1, x20, x8
	.loc	3 44 5                          ; ./emulate.h:44:5
	sub	x10, x8, #448
	mov	w28, #64
	.loc	3 43 5                          ; ./emulate.h:43:5
	cmp	x8, #449
	csel	x2, x28, x9, lo
	add	x26, sp, #72
	.loc	3 44 5                          ; ./emulate.h:44:5
	add	x21, x26, x9
	csel	x22, xzr, x10, lo
	.loc	3 43 5                          ; ./emulate.h:43:5
	add	x0, sp, #72
	mov	w3, #64
	bl	___memcpy_chk
Ltmp277:
	.loc	3 44 5                          ; ./emulate.h:44:5
	mov	x0, x21
	mov	x1, x20
	mov	x2, x22
	bl	_memcpy
Ltmp278:
	.loc	2 126 27                        ; fma.c:126:27
	add	x21, x20, #512
Ltmp279:
	;DEBUG_VALUE: load_xy_reg:offset <- $x23
	;DEBUG_VALUE: load_xy_reg:dst <- [DW_OP_plus_uconst 8, DW_OP_stack_value] $sp
	;DEBUG_VALUE: load_xy_reg:src <- $x21
	.loc	3 42 26                         ; ./emulate.h:42:26
	sub	x8, x27, x23
Ltmp280:
	;DEBUG_VALUE: load_xy_reg:avail <- $x8
	.loc	3 43 5                          ; ./emulate.h:43:5
	add	x1, x21, x23
	.loc	3 44 5                          ; ./emulate.h:44:5
	sub	x9, x23, #448
	.loc	3 43 5                          ; ./emulate.h:43:5
	cmp	x23, #449
	csel	x2, x28, x8, lo
	add	x27, sp, #8
	.loc	3 44 5                          ; ./emulate.h:44:5
	add	x22, x27, x8
	csel	x23, xzr, x9, lo
Ltmp281:
	.loc	3 43 5                          ; ./emulate.h:43:5
	add	x0, sp, #8
	mov	w3, #64
	bl	___memcpy_chk
Ltmp282:
	.loc	3 44 5                          ; ./emulate.h:44:5
	mov	x0, x22
	mov	x1, x21
	mov	x2, x23
	bl	_memcpy
Ltmp283:
	;DEBUG_VALUE: i <- 0
	.loc	3 0 5 is_stmt 0                 ; ./emulate.h:0:5
	mov	x8, #0
	ldr	x9, [sp]                        ; 8-byte Folded Reload
	add	x9, x20, x9, lsl #6
	add	x9, x9, #1024
	ubfx	x11, x19, #27, #3
	ubfx	x10, x19, #20, #1
	sub	x11, x11, #1
Lloh35:
	adrp	x12, lJTI3_4@PAGE
Lloh36:
	add	x12, x12, lJTI3_4@PAGEOFF
Lloh37:
	adrp	x13, lJTI3_3@PAGE
Lloh38:
	add	x13, x13, lJTI3_3@PAGEOFF
Lloh39:
	adrp	x14, lJTI3_2@PAGE
Lloh40:
	add	x14, x14, lJTI3_2@PAGEOFF
	b	LBB3_19
Ltmp284:
LBB3_17:                                ;   in Loop: Header=BB3_19 Depth=1
	;DEBUG_VALUE: i <- $x8
	;DEBUG_VALUE: emulate_AMX_FMA16:y_enable <- $x25
	;DEBUG_VALUE: emulate_AMX_FMA16:z_row <- [$sp+0]
	;DEBUG_VALUE: emulate_AMX_FMA16:x_enable <- $x24
	;DEBUG_VALUE: emulate_AMX_FMA16:state <- $x20
	;DEBUG_VALUE: emulate_AMX_FMA16:operand <- $x19
	fmov	s0, s1
Ltmp285:
	.loc	2 132 16 is_stmt 1              ; fma.c:132:16
	str	h1, [x9, x8, lsl #1]
Ltmp286:
LBB3_18:                                ;   in Loop: Header=BB3_19 Depth=1
	;DEBUG_VALUE: i <- $x8
	;DEBUG_VALUE: emulate_AMX_FMA16:y_enable <- $x25
	;DEBUG_VALUE: emulate_AMX_FMA16:z_row <- [$sp+0]
	;DEBUG_VALUE: emulate_AMX_FMA16:x_enable <- $x24
	;DEBUG_VALUE: emulate_AMX_FMA16:state <- $x20
	;DEBUG_VALUE: emulate_AMX_FMA16:operand <- $x19
	.loc	2 128 30                        ; fma.c:128:30
	add	x8, x8, #1
Ltmp287:
	;DEBUG_VALUE: i <- $x8
	.loc	2 128 5 is_stmt 0               ; fma.c:128:5
	cmp	x8, #32
	b.eq	LBB3_54
Ltmp288:
LBB3_19:                                ; =>This Loop Header: Depth=1
                                        ;     Child Loop BB3_25 Depth 2
	;DEBUG_VALUE: emulate_AMX_FMA16:y_enable <- $x25
	;DEBUG_VALUE: emulate_AMX_FMA16:z_row <- [$sp+0]
	;DEBUG_VALUE: emulate_AMX_FMA16:x_enable <- $x24
	;DEBUG_VALUE: emulate_AMX_FMA16:state <- $x20
	;DEBUG_VALUE: emulate_AMX_FMA16:operand <- $x19
	;DEBUG_VALUE: i <- $x8
	.loc	2 129 31 is_stmt 1              ; fma.c:129:31
	lsl	x15, x8, #1
Ltmp289:
	.loc	2 129 13 is_stmt 0              ; fma.c:129:13
	lsr	x16, x24, x15
	tbz	w16, #0, LBB3_18
Ltmp290:
; %bb.20:                               ;   in Loop: Header=BB3_19 Depth=1
	;DEBUG_VALUE: i <- $x8
	;DEBUG_VALUE: emulate_AMX_FMA16:y_enable <- $x25
	;DEBUG_VALUE: emulate_AMX_FMA16:z_row <- [$sp+0]
	;DEBUG_VALUE: emulate_AMX_FMA16:x_enable <- $x24
	;DEBUG_VALUE: emulate_AMX_FMA16:state <- $x20
	;DEBUG_VALUE: emulate_AMX_FMA16:operand <- $x19
	.loc	2 130 13 is_stmt 1              ; fma.c:130:13
	tbnz	x19, #63, LBB3_45
Ltmp291:
; %bb.21:                               ;   in Loop: Header=BB3_19 Depth=1
	;DEBUG_VALUE: i <- $x8
	;DEBUG_VALUE: emulate_AMX_FMA16:y_enable <- $x25
	;DEBUG_VALUE: emulate_AMX_FMA16:z_row <- [$sp+0]
	;DEBUG_VALUE: emulate_AMX_FMA16:x_enable <- $x24
	;DEBUG_VALUE: emulate_AMX_FMA16:state <- $x20
	;DEBUG_VALUE: emulate_AMX_FMA16:operand <- $x19
	;DEBUG_VALUE: j <- 0
	.loc	2 0 13 is_stmt 0                ; fma.c:0:13
	mov	x16, #0
	and	x17, x8, #0x1
	ubfx	x0, x8, #1, #31
	b	LBB3_25
Ltmp292:
LBB3_22:                                ;   in Loop: Header=BB3_25 Depth=2
	;DEBUG_VALUE: fma16_alu:z <- $h2
	;DEBUG_VALUE: fma16_alu:x <- $h0
	;DEBUG_VALUE: fma16_alu:y <- $h1
	;DEBUG_VALUE: fma16_alu:operand <- $x19
	;DEBUG_VALUE: j <- [DW_OP_consts 2, DW_OP_div, DW_OP_stack_value] $x16
	;DEBUG_VALUE: i <- $x8
	;DEBUG_VALUE: emulate_AMX_FMA16:y_enable <- $x25
	;DEBUG_VALUE: emulate_AMX_FMA16:z_row <- [$sp+0]
	;DEBUG_VALUE: emulate_AMX_FMA16:x_enable <- $x24
	;DEBUG_VALUE: emulate_AMX_FMA16:state <- $x20
	;DEBUG_VALUE: emulate_AMX_FMA16:operand <- $x19
	fmov	s0, s1
Ltmp293:
LBB3_23:                                ;   in Loop: Header=BB3_25 Depth=2
	;DEBUG_VALUE: j <- [DW_OP_consts 2, DW_OP_div, DW_OP_stack_value] $x16
	;DEBUG_VALUE: i <- $x8
	;DEBUG_VALUE: emulate_AMX_FMA16:y_enable <- $x25
	;DEBUG_VALUE: emulate_AMX_FMA16:z_row <- [$sp+0]
	;DEBUG_VALUE: emulate_AMX_FMA16:x_enable <- $x24
	;DEBUG_VALUE: emulate_AMX_FMA16:state <- $x20
	;DEBUG_VALUE: emulate_AMX_FMA16:operand <- $x19
	.loc	2 141 24 is_stmt 1              ; fma.c:141:24
	str	h0, [x1, x8, lsl #1]
Ltmp294:
LBB3_24:                                ;   in Loop: Header=BB3_25 Depth=2
	;DEBUG_VALUE: j <- [DW_OP_consts 2, DW_OP_div, DW_OP_stack_value] $x16
	;DEBUG_VALUE: i <- $x8
	;DEBUG_VALUE: emulate_AMX_FMA16:y_enable <- $x25
	;DEBUG_VALUE: emulate_AMX_FMA16:z_row <- [$sp+0]
	;DEBUG_VALUE: emulate_AMX_FMA16:x_enable <- $x24
	;DEBUG_VALUE: emulate_AMX_FMA16:state <- $x20
	;DEBUG_VALUE: emulate_AMX_FMA16:operand <- $x19
	;DEBUG_VALUE: j <- [DW_OP_consts 2, DW_OP_div, DW_OP_consts 1, DW_OP_plus, DW_OP_stack_value] $x16
	.loc	2 134 31                        ; fma.c:134:31
	add	x16, x16, #2
Ltmp295:
	.loc	2 134 13 is_stmt 0              ; fma.c:134:13
	cmp	x16, #64
	b.eq	LBB3_18
Ltmp296:
LBB3_25:                                ;   Parent Loop BB3_19 Depth=1
                                        ; =>  This Inner Loop Header: Depth=2
	;DEBUG_VALUE: i <- $x8
	;DEBUG_VALUE: emulate_AMX_FMA16:y_enable <- $x25
	;DEBUG_VALUE: emulate_AMX_FMA16:z_row <- [$sp+0]
	;DEBUG_VALUE: emulate_AMX_FMA16:x_enable <- $x24
	;DEBUG_VALUE: emulate_AMX_FMA16:state <- $x20
	;DEBUG_VALUE: emulate_AMX_FMA16:operand <- $x19
	;DEBUG_VALUE: j <- [DW_OP_consts 2, DW_OP_div, DW_OP_stack_value] $x16
	.loc	2 135 21 is_stmt 1              ; fma.c:135:21
	lsr	x1, x25, x16
	tbz	w1, #0, LBB3_24
Ltmp297:
; %bb.26:                               ;   in Loop: Header=BB3_25 Depth=2
	;DEBUG_VALUE: j <- [DW_OP_consts 2, DW_OP_div, DW_OP_stack_value] $x16
	;DEBUG_VALUE: i <- $x8
	;DEBUG_VALUE: emulate_AMX_FMA16:y_enable <- $x25
	;DEBUG_VALUE: emulate_AMX_FMA16:z_row <- [$sp+0]
	;DEBUG_VALUE: emulate_AMX_FMA16:x_enable <- $x24
	;DEBUG_VALUE: emulate_AMX_FMA16:state <- $x20
	;DEBUG_VALUE: emulate_AMX_FMA16:operand <- $x19
	.loc	2 136 21                        ; fma.c:136:21
	tbnz	x19, #62, LBB3_30
Ltmp298:
; %bb.27:                               ;   in Loop: Header=BB3_25 Depth=2
	;DEBUG_VALUE: j <- [DW_OP_consts 2, DW_OP_div, DW_OP_stack_value] $x16
	;DEBUG_VALUE: i <- $x8
	;DEBUG_VALUE: emulate_AMX_FMA16:y_enable <- $x25
	;DEBUG_VALUE: emulate_AMX_FMA16:z_row <- [$sp+0]
	;DEBUG_VALUE: emulate_AMX_FMA16:x_enable <- $x24
	;DEBUG_VALUE: emulate_AMX_FMA16:state <- $x20
	;DEBUG_VALUE: emulate_AMX_FMA16:operand <- $x19
	.loc	2 140 53                        ; fma.c:140:53
	orr	x1, x10, x16
	.loc	2 140 36 is_stmt 0              ; fma.c:140:36
	add	x1, x20, x1, lsl #6
	.loc	2 141 36 is_stmt 1              ; fma.c:141:36
	ldr	h0, [x26, x15]
	.loc	2 140 36                        ; fma.c:140:36
	add	x1, x1, #1024
Ltmp299:
	;DEBUG_VALUE: z <- undef
	.loc	2 141 42                        ; fma.c:141:42
	ldr	h1, [x27, x16]
	.loc	2 141 48 is_stmt 0              ; fma.c:141:48
	ldr	h2, [x1, x15]
Ltmp300:
	;DEBUG_VALUE: fma16_alu:operand <- $x19
	;DEBUG_VALUE: fma16_alu:y <- $h1
	;DEBUG_VALUE: fma16_alu:x <- $h0
	;DEBUG_VALUE: fma16_alu:z <- $h2
	.loc	2 37 5 is_stmt 1                ; fma.c:37:5
	cmp	x11, #6
	b.hi	LBB3_38
Ltmp301:
; %bb.28:                               ;   in Loop: Header=BB3_25 Depth=2
	;DEBUG_VALUE: fma16_alu:z <- $h2
	;DEBUG_VALUE: fma16_alu:x <- $h0
	;DEBUG_VALUE: fma16_alu:y <- $h1
	;DEBUG_VALUE: fma16_alu:operand <- $x19
	;DEBUG_VALUE: j <- [DW_OP_consts 2, DW_OP_div, DW_OP_stack_value] $x16
	;DEBUG_VALUE: i <- $x8
	;DEBUG_VALUE: emulate_AMX_FMA16:y_enable <- $x25
	;DEBUG_VALUE: emulate_AMX_FMA16:z_row <- [$sp+0]
	;DEBUG_VALUE: emulate_AMX_FMA16:x_enable <- $x24
	;DEBUG_VALUE: emulate_AMX_FMA16:state <- $x20
	;DEBUG_VALUE: emulate_AMX_FMA16:operand <- $x19
	.loc	2 0 5 is_stmt 0                 ; fma.c:0:5
Ltmp302:
	adr	x2, Ltmp302
	ldrsw	x3, [x12, x11, lsl #2]
	add	x2, x2, x3
	br	x2
Ltmp303:
LBB3_29:                                ;   in Loop: Header=BB3_25 Depth=2
	;DEBUG_VALUE: fma16_alu:z <- $h2
	;DEBUG_VALUE: fma16_alu:x <- $h0
	;DEBUG_VALUE: fma16_alu:y <- $h1
	;DEBUG_VALUE: fma16_alu:operand <- $x19
	;DEBUG_VALUE: j <- [DW_OP_consts 2, DW_OP_div, DW_OP_stack_value] $x16
	;DEBUG_VALUE: i <- $x8
	;DEBUG_VALUE: emulate_AMX_FMA16:y_enable <- $x25
	;DEBUG_VALUE: emulate_AMX_FMA16:z_row <- [$sp+0]
	;DEBUG_VALUE: emulate_AMX_FMA16:x_enable <- $x24
	;DEBUG_VALUE: emulate_AMX_FMA16:state <- $x20
	;DEBUG_VALUE: emulate_AMX_FMA16:operand <- $x19
	.loc	2 38 22 is_stmt 1               ; fma.c:38:22
	fmul	h0, h0, h1
Ltmp304:
	.loc	2 0 22 is_stmt 0                ; fma.c:0:22
	b	LBB3_23
Ltmp305:
LBB3_30:                                ;   in Loop: Header=BB3_25 Depth=2
	;DEBUG_VALUE: j <- [DW_OP_consts 2, DW_OP_div, DW_OP_stack_value] $x16
	;DEBUG_VALUE: i <- $x8
	;DEBUG_VALUE: emulate_AMX_FMA16:y_enable <- $x25
	;DEBUG_VALUE: emulate_AMX_FMA16:z_row <- [$sp+0]
	;DEBUG_VALUE: emulate_AMX_FMA16:x_enable <- $x24
	;DEBUG_VALUE: emulate_AMX_FMA16:state <- $x20
	;DEBUG_VALUE: emulate_AMX_FMA16:operand <- $x19
	.loc	2 137 33 is_stmt 1              ; fma.c:137:33
	orr	x1, x17, x16
	add	x1, x20, x1, lsl #6
	add	x1, x1, #1024
Ltmp306:
	;DEBUG_VALUE: z <- undef
	.loc	2 138 36                        ; fma.c:138:36
	ldr	h0, [x26, x8, lsl #1]
	fcvt	s0, h0
	.loc	2 138 42 is_stmt 0              ; fma.c:138:42
	ldr	h1, [x27, x16]
	fcvt	s1, h1
	.loc	2 138 48                        ; fma.c:138:48
	ldr	s2, [x1, x0, lsl #2]
Ltmp307:
	;DEBUG_VALUE: fma32_alu:operand <- $x19
	;DEBUG_VALUE: fma32_alu:y <- $s1
	;DEBUG_VALUE: fma32_alu:x <- $s0
	;DEBUG_VALUE: fma32_alu:z <- $s2
	.loc	2 22 5 is_stmt 1                ; fma.c:22:5
	cmp	x11, #6
	b.hi	LBB3_41
Ltmp308:
; %bb.31:                               ;   in Loop: Header=BB3_25 Depth=2
	;DEBUG_VALUE: fma32_alu:z <- $s2
	;DEBUG_VALUE: fma32_alu:x <- $s0
	;DEBUG_VALUE: fma32_alu:y <- $s1
	;DEBUG_VALUE: fma32_alu:operand <- $x19
	;DEBUG_VALUE: j <- [DW_OP_consts 2, DW_OP_div, DW_OP_stack_value] $x16
	;DEBUG_VALUE: i <- $x8
	;DEBUG_VALUE: emulate_AMX_FMA16:y_enable <- $x25
	;DEBUG_VALUE: emulate_AMX_FMA16:z_row <- [$sp+0]
	;DEBUG_VALUE: emulate_AMX_FMA16:x_enable <- $x24
	;DEBUG_VALUE: emulate_AMX_FMA16:state <- $x20
	;DEBUG_VALUE: emulate_AMX_FMA16:operand <- $x19
	.loc	2 0 5 is_stmt 0                 ; fma.c:0:5
Ltmp309:
	adr	x2, Ltmp309
	ldrsw	x3, [x13, x11, lsl #2]
	add	x2, x2, x3
	br	x2
Ltmp310:
LBB3_32:                                ;   in Loop: Header=BB3_25 Depth=2
	;DEBUG_VALUE: fma32_alu:z <- $s2
	;DEBUG_VALUE: fma32_alu:x <- $s0
	;DEBUG_VALUE: fma32_alu:y <- $s1
	;DEBUG_VALUE: fma32_alu:operand <- $x19
	;DEBUG_VALUE: j <- [DW_OP_consts 2, DW_OP_div, DW_OP_stack_value] $x16
	;DEBUG_VALUE: i <- $x8
	;DEBUG_VALUE: emulate_AMX_FMA16:y_enable <- $x25
	;DEBUG_VALUE: emulate_AMX_FMA16:z_row <- [$sp+0]
	;DEBUG_VALUE: emulate_AMX_FMA16:x_enable <- $x24
	;DEBUG_VALUE: emulate_AMX_FMA16:state <- $x20
	;DEBUG_VALUE: emulate_AMX_FMA16:operand <- $x19
	.loc	2 23 22 is_stmt 1               ; fma.c:23:22
	fmul	s0, s0, s1
Ltmp311:
	.loc	2 138 24                        ; fma.c:138:24
	str	s0, [x1, x0, lsl #2]
	b	LBB3_24
Ltmp312:
LBB3_33:                                ;   in Loop: Header=BB3_25 Depth=2
	;DEBUG_VALUE: fma16_alu:z <- $h2
	;DEBUG_VALUE: fma16_alu:x <- $h0
	;DEBUG_VALUE: fma16_alu:y <- $h1
	;DEBUG_VALUE: fma16_alu:operand <- $x19
	;DEBUG_VALUE: j <- [DW_OP_consts 2, DW_OP_div, DW_OP_stack_value] $x16
	;DEBUG_VALUE: i <- $x8
	;DEBUG_VALUE: emulate_AMX_FMA16:y_enable <- $x25
	;DEBUG_VALUE: emulate_AMX_FMA16:z_row <- [$sp+0]
	;DEBUG_VALUE: emulate_AMX_FMA16:x_enable <- $x24
	;DEBUG_VALUE: emulate_AMX_FMA16:state <- $x20
	;DEBUG_VALUE: emulate_AMX_FMA16:operand <- $x19
	.loc	2 39 22                         ; fma.c:39:22
	fadd	h0, h0, h2
Ltmp313:
	.loc	2 0 22 is_stmt 0                ; fma.c:0:22
	b	LBB3_23
Ltmp314:
LBB3_34:                                ;   in Loop: Header=BB3_25 Depth=2
	;DEBUG_VALUE: fma16_alu:z <- $h2
	;DEBUG_VALUE: fma16_alu:x <- $h0
	;DEBUG_VALUE: fma16_alu:y <- $h1
	;DEBUG_VALUE: fma16_alu:operand <- $x19
	;DEBUG_VALUE: j <- [DW_OP_consts 2, DW_OP_div, DW_OP_stack_value] $x16
	;DEBUG_VALUE: i <- $x8
	;DEBUG_VALUE: emulate_AMX_FMA16:y_enable <- $x25
	;DEBUG_VALUE: emulate_AMX_FMA16:z_row <- [$sp+0]
	;DEBUG_VALUE: emulate_AMX_FMA16:x_enable <- $x24
	;DEBUG_VALUE: emulate_AMX_FMA16:state <- $x20
	;DEBUG_VALUE: emulate_AMX_FMA16:operand <- $x19
	.loc	2 41 22 is_stmt 1               ; fma.c:41:22
	fadd	h0, h1, h2
Ltmp315:
	.loc	2 0 22 is_stmt 0                ; fma.c:0:22
	b	LBB3_23
Ltmp316:
LBB3_35:                                ;   in Loop: Header=BB3_25 Depth=2
	;DEBUG_VALUE: fma32_alu:z <- $s2
	;DEBUG_VALUE: fma32_alu:x <- $s0
	;DEBUG_VALUE: fma32_alu:y <- $s1
	;DEBUG_VALUE: fma32_alu:operand <- $x19
	;DEBUG_VALUE: j <- [DW_OP_consts 2, DW_OP_div, DW_OP_stack_value] $x16
	;DEBUG_VALUE: i <- $x8
	;DEBUG_VALUE: emulate_AMX_FMA16:y_enable <- $x25
	;DEBUG_VALUE: emulate_AMX_FMA16:z_row <- [$sp+0]
	;DEBUG_VALUE: emulate_AMX_FMA16:x_enable <- $x24
	;DEBUG_VALUE: emulate_AMX_FMA16:state <- $x20
	;DEBUG_VALUE: emulate_AMX_FMA16:operand <- $x19
	.loc	2 24 22 is_stmt 1               ; fma.c:24:22
	fadd	s0, s2, s0
Ltmp317:
	.loc	2 138 24                        ; fma.c:138:24
	str	s0, [x1, x0, lsl #2]
	b	LBB3_24
Ltmp318:
LBB3_36:                                ;   in Loop: Header=BB3_25 Depth=2
	;DEBUG_VALUE: fma32_alu:z <- $s2
	;DEBUG_VALUE: fma32_alu:x <- $s0
	;DEBUG_VALUE: fma32_alu:y <- $s1
	;DEBUG_VALUE: fma32_alu:operand <- $x19
	;DEBUG_VALUE: j <- [DW_OP_consts 2, DW_OP_div, DW_OP_stack_value] $x16
	;DEBUG_VALUE: i <- $x8
	;DEBUG_VALUE: emulate_AMX_FMA16:y_enable <- $x25
	;DEBUG_VALUE: emulate_AMX_FMA16:z_row <- [$sp+0]
	;DEBUG_VALUE: emulate_AMX_FMA16:x_enable <- $x24
	;DEBUG_VALUE: emulate_AMX_FMA16:state <- $x20
	;DEBUG_VALUE: emulate_AMX_FMA16:operand <- $x19
	.loc	2 26 22                         ; fma.c:26:22
	fadd	s0, s2, s1
Ltmp319:
	.loc	2 138 24                        ; fma.c:138:24
	str	s0, [x1, x0, lsl #2]
	b	LBB3_24
Ltmp320:
LBB3_37:                                ;   in Loop: Header=BB3_25 Depth=2
	;DEBUG_VALUE: j <- [DW_OP_consts 2, DW_OP_div, DW_OP_stack_value] $x16
	;DEBUG_VALUE: i <- $x8
	;DEBUG_VALUE: emulate_AMX_FMA16:y_enable <- $x25
	;DEBUG_VALUE: emulate_AMX_FMA16:z_row <- [$sp+0]
	;DEBUG_VALUE: emulate_AMX_FMA16:x_enable <- $x24
	;DEBUG_VALUE: emulate_AMX_FMA16:state <- $x20
	;DEBUG_VALUE: emulate_AMX_FMA16:operand <- $x19
	.loc	2 0 24 is_stmt 0                ; fma.c:0:24
	fmov	s0, s1
	.loc	2 138 24                        ; fma.c:138:24
	str	s1, [x1, x0, lsl #2]
	b	LBB3_24
Ltmp321:
LBB3_38:                                ;   in Loop: Header=BB3_25 Depth=2
	;DEBUG_VALUE: fma16_alu:z <- $h2
	;DEBUG_VALUE: fma16_alu:x <- $h0
	;DEBUG_VALUE: fma16_alu:y <- $h1
	;DEBUG_VALUE: fma16_alu:operand <- $x19
	;DEBUG_VALUE: j <- [DW_OP_consts 2, DW_OP_div, DW_OP_stack_value] $x16
	;DEBUG_VALUE: i <- $x8
	;DEBUG_VALUE: emulate_AMX_FMA16:y_enable <- $x25
	;DEBUG_VALUE: emulate_AMX_FMA16:z_row <- [$sp+0]
	;DEBUG_VALUE: emulate_AMX_FMA16:x_enable <- $x24
	;DEBUG_VALUE: emulate_AMX_FMA16:state <- $x20
	;DEBUG_VALUE: emulate_AMX_FMA16:operand <- $x19
	.loc	2 47 5 is_stmt 1                ; fma.c:47:5
	; InlineAsm Start
	fmadd	h0, h0, h1, h2
	; InlineAsm End
Ltmp322:
	;DEBUG_VALUE: fma16_alu:result <- $h0
	.loc	2 0 5 is_stmt 0                 ; fma.c:0:5
	b	LBB3_23
Ltmp323:
LBB3_39:                                ;   in Loop: Header=BB3_25 Depth=2
	;DEBUG_VALUE: fma16_alu:z <- $h2
	;DEBUG_VALUE: fma16_alu:x <- $h0
	;DEBUG_VALUE: fma16_alu:y <- $h1
	;DEBUG_VALUE: fma16_alu:operand <- $x19
	;DEBUG_VALUE: j <- [DW_OP_consts 2, DW_OP_div, DW_OP_stack_value] $x16
	;DEBUG_VALUE: i <- $x8
	;DEBUG_VALUE: emulate_AMX_FMA16:y_enable <- $x25
	;DEBUG_VALUE: emulate_AMX_FMA16:z_row <- [$sp+0]
	;DEBUG_VALUE: emulate_AMX_FMA16:x_enable <- $x24
	;DEBUG_VALUE: emulate_AMX_FMA16:state <- $x20
	;DEBUG_VALUE: emulate_AMX_FMA16:operand <- $x19
	fmov	s0, s2
	b	LBB3_23
Ltmp324:
LBB3_40:                                ;   in Loop: Header=BB3_25 Depth=2
	;DEBUG_VALUE: fma16_alu:z <- $h2
	;DEBUG_VALUE: fma16_alu:x <- $h0
	;DEBUG_VALUE: fma16_alu:y <- $h1
	;DEBUG_VALUE: fma16_alu:operand <- $x19
	;DEBUG_VALUE: j <- [DW_OP_consts 2, DW_OP_div, DW_OP_stack_value] $x16
	;DEBUG_VALUE: i <- $x8
	;DEBUG_VALUE: emulate_AMX_FMA16:y_enable <- $x25
	;DEBUG_VALUE: emulate_AMX_FMA16:z_row <- [$sp+0]
	;DEBUG_VALUE: emulate_AMX_FMA16:x_enable <- $x24
	;DEBUG_VALUE: emulate_AMX_FMA16:state <- $x20
	;DEBUG_VALUE: emulate_AMX_FMA16:operand <- $x19
	movi	d0, #0000000000000000
	b	LBB3_23
Ltmp325:
LBB3_41:                                ;   in Loop: Header=BB3_25 Depth=2
	;DEBUG_VALUE: fma32_alu:z <- $s2
	;DEBUG_VALUE: fma32_alu:x <- $s0
	;DEBUG_VALUE: fma32_alu:y <- $s1
	;DEBUG_VALUE: fma32_alu:operand <- $x19
	;DEBUG_VALUE: j <- [DW_OP_consts 2, DW_OP_div, DW_OP_stack_value] $x16
	;DEBUG_VALUE: i <- $x8
	;DEBUG_VALUE: emulate_AMX_FMA16:y_enable <- $x25
	;DEBUG_VALUE: emulate_AMX_FMA16:z_row <- [$sp+0]
	;DEBUG_VALUE: emulate_AMX_FMA16:x_enable <- $x24
	;DEBUG_VALUE: emulate_AMX_FMA16:state <- $x20
	;DEBUG_VALUE: emulate_AMX_FMA16:operand <- $x19
	.loc	2 32 5 is_stmt 1                ; fma.c:32:5
	; InlineAsm Start
	fmadd	s0, s0, s1, s2
	; InlineAsm End
Ltmp326:
	;DEBUG_VALUE: fma32_alu:result <- $s0
LBB3_42:                                ;   in Loop: Header=BB3_25 Depth=2
	;DEBUG_VALUE: j <- [DW_OP_consts 2, DW_OP_div, DW_OP_stack_value] $x16
	;DEBUG_VALUE: i <- $x8
	;DEBUG_VALUE: emulate_AMX_FMA16:y_enable <- $x25
	;DEBUG_VALUE: emulate_AMX_FMA16:z_row <- [$sp+0]
	;DEBUG_VALUE: emulate_AMX_FMA16:x_enable <- $x24
	;DEBUG_VALUE: emulate_AMX_FMA16:state <- $x20
	;DEBUG_VALUE: emulate_AMX_FMA16:operand <- $x19
	.loc	2 138 24                        ; fma.c:138:24
	str	s0, [x1, x0, lsl #2]
	b	LBB3_24
Ltmp327:
LBB3_43:                                ;   in Loop: Header=BB3_25 Depth=2
	;DEBUG_VALUE: j <- [DW_OP_consts 2, DW_OP_div, DW_OP_stack_value] $x16
	;DEBUG_VALUE: i <- $x8
	;DEBUG_VALUE: emulate_AMX_FMA16:y_enable <- $x25
	;DEBUG_VALUE: emulate_AMX_FMA16:z_row <- [$sp+0]
	;DEBUG_VALUE: emulate_AMX_FMA16:x_enable <- $x24
	;DEBUG_VALUE: emulate_AMX_FMA16:state <- $x20
	;DEBUG_VALUE: emulate_AMX_FMA16:operand <- $x19
	.loc	2 0 24 is_stmt 0                ; fma.c:0:24
	fmov	s0, s2
	.loc	2 138 24                        ; fma.c:138:24
	str	s2, [x1, x0, lsl #2]
	b	LBB3_24
Ltmp328:
LBB3_44:                                ;   in Loop: Header=BB3_25 Depth=2
	;DEBUG_VALUE: j <- [DW_OP_consts 2, DW_OP_div, DW_OP_stack_value] $x16
	;DEBUG_VALUE: i <- $x8
	;DEBUG_VALUE: emulate_AMX_FMA16:y_enable <- $x25
	;DEBUG_VALUE: emulate_AMX_FMA16:z_row <- [$sp+0]
	;DEBUG_VALUE: emulate_AMX_FMA16:x_enable <- $x24
	;DEBUG_VALUE: emulate_AMX_FMA16:state <- $x20
	;DEBUG_VALUE: emulate_AMX_FMA16:operand <- $x19
	.loc	2 0 24                          ; fma.c:0:24
	movi	d0, #0000000000000000
	.loc	2 138 24                        ; fma.c:138:24
	str	s0, [x1, x0, lsl #2]
	b	LBB3_24
Ltmp329:
LBB3_45:                                ;   in Loop: Header=BB3_19 Depth=1
	;DEBUG_VALUE: i <- $x8
	;DEBUG_VALUE: emulate_AMX_FMA16:y_enable <- $x25
	;DEBUG_VALUE: emulate_AMX_FMA16:z_row <- [$sp+0]
	;DEBUG_VALUE: emulate_AMX_FMA16:x_enable <- $x24
	;DEBUG_VALUE: emulate_AMX_FMA16:state <- $x20
	;DEBUG_VALUE: emulate_AMX_FMA16:operand <- $x19
	;DEBUG_VALUE: z <- undef
	.loc	2 132 28 is_stmt 1              ; fma.c:132:28
	ldr	h0, [x26, x15]
	.loc	2 132 34 is_stmt 0              ; fma.c:132:34
	ldr	h1, [x27, x15]
	.loc	2 132 40                        ; fma.c:132:40
	ldr	h2, [x9, x15]
Ltmp330:
	;DEBUG_VALUE: fma16_alu:operand <- $x19
	;DEBUG_VALUE: fma16_alu:y <- $h1
	;DEBUG_VALUE: fma16_alu:x <- $h0
	;DEBUG_VALUE: fma16_alu:z <- $h2
	.loc	2 37 5 is_stmt 1                ; fma.c:37:5
	cmp	x11, #6
	b.hi	LBB3_48
Ltmp331:
; %bb.46:                               ;   in Loop: Header=BB3_19 Depth=1
	;DEBUG_VALUE: fma16_alu:z <- $h2
	;DEBUG_VALUE: fma16_alu:x <- $h0
	;DEBUG_VALUE: fma16_alu:y <- $h1
	;DEBUG_VALUE: fma16_alu:operand <- $x19
	;DEBUG_VALUE: i <- $x8
	;DEBUG_VALUE: emulate_AMX_FMA16:y_enable <- $x25
	;DEBUG_VALUE: emulate_AMX_FMA16:z_row <- [$sp+0]
	;DEBUG_VALUE: emulate_AMX_FMA16:x_enable <- $x24
	;DEBUG_VALUE: emulate_AMX_FMA16:state <- $x20
	;DEBUG_VALUE: emulate_AMX_FMA16:operand <- $x19
	.loc	2 0 5 is_stmt 0                 ; fma.c:0:5
Ltmp332:
	adr	x15, Ltmp332
	ldrsw	x16, [x14, x11, lsl #2]
	add	x15, x15, x16
	br	x15
Ltmp333:
LBB3_47:                                ;   in Loop: Header=BB3_19 Depth=1
	;DEBUG_VALUE: fma16_alu:z <- $h2
	;DEBUG_VALUE: fma16_alu:x <- $h0
	;DEBUG_VALUE: fma16_alu:y <- $h1
	;DEBUG_VALUE: fma16_alu:operand <- $x19
	;DEBUG_VALUE: i <- $x8
	;DEBUG_VALUE: emulate_AMX_FMA16:y_enable <- $x25
	;DEBUG_VALUE: emulate_AMX_FMA16:z_row <- [$sp+0]
	;DEBUG_VALUE: emulate_AMX_FMA16:x_enable <- $x24
	;DEBUG_VALUE: emulate_AMX_FMA16:state <- $x20
	;DEBUG_VALUE: emulate_AMX_FMA16:operand <- $x19
	.loc	2 38 22 is_stmt 1               ; fma.c:38:22
	fmul	h0, h0, h1
Ltmp334:
	.loc	2 132 16                        ; fma.c:132:16
	str	h0, [x9, x8, lsl #1]
	b	LBB3_18
Ltmp335:
LBB3_48:                                ;   in Loop: Header=BB3_19 Depth=1
	;DEBUG_VALUE: fma16_alu:z <- $h2
	;DEBUG_VALUE: fma16_alu:x <- $h0
	;DEBUG_VALUE: fma16_alu:y <- $h1
	;DEBUG_VALUE: fma16_alu:operand <- $x19
	;DEBUG_VALUE: i <- $x8
	;DEBUG_VALUE: emulate_AMX_FMA16:y_enable <- $x25
	;DEBUG_VALUE: emulate_AMX_FMA16:z_row <- [$sp+0]
	;DEBUG_VALUE: emulate_AMX_FMA16:x_enable <- $x24
	;DEBUG_VALUE: emulate_AMX_FMA16:state <- $x20
	;DEBUG_VALUE: emulate_AMX_FMA16:operand <- $x19
	.loc	2 47 5                          ; fma.c:47:5
	; InlineAsm Start
	fmadd	h0, h0, h1, h2
	; InlineAsm End
Ltmp336:
	;DEBUG_VALUE: fma16_alu:result <- $h0
LBB3_49:                                ;   in Loop: Header=BB3_19 Depth=1
	;DEBUG_VALUE: i <- $x8
	;DEBUG_VALUE: emulate_AMX_FMA16:y_enable <- $x25
	;DEBUG_VALUE: emulate_AMX_FMA16:z_row <- [$sp+0]
	;DEBUG_VALUE: emulate_AMX_FMA16:x_enable <- $x24
	;DEBUG_VALUE: emulate_AMX_FMA16:state <- $x20
	;DEBUG_VALUE: emulate_AMX_FMA16:operand <- $x19
	.loc	2 132 16                        ; fma.c:132:16
	str	h0, [x9, x8, lsl #1]
	b	LBB3_18
Ltmp337:
LBB3_50:                                ;   in Loop: Header=BB3_19 Depth=1
	;DEBUG_VALUE: fma16_alu:z <- $h2
	;DEBUG_VALUE: fma16_alu:x <- $h0
	;DEBUG_VALUE: fma16_alu:y <- $h1
	;DEBUG_VALUE: fma16_alu:operand <- $x19
	;DEBUG_VALUE: i <- $x8
	;DEBUG_VALUE: emulate_AMX_FMA16:y_enable <- $x25
	;DEBUG_VALUE: emulate_AMX_FMA16:z_row <- [$sp+0]
	;DEBUG_VALUE: emulate_AMX_FMA16:x_enable <- $x24
	;DEBUG_VALUE: emulate_AMX_FMA16:state <- $x20
	;DEBUG_VALUE: emulate_AMX_FMA16:operand <- $x19
	.loc	2 39 22                         ; fma.c:39:22
	fadd	h0, h0, h2
Ltmp338:
	.loc	2 132 16                        ; fma.c:132:16
	str	h0, [x9, x8, lsl #1]
	b	LBB3_18
Ltmp339:
LBB3_51:                                ;   in Loop: Header=BB3_19 Depth=1
	;DEBUG_VALUE: fma16_alu:z <- $h2
	;DEBUG_VALUE: fma16_alu:x <- $h0
	;DEBUG_VALUE: fma16_alu:y <- $h1
	;DEBUG_VALUE: fma16_alu:operand <- $x19
	;DEBUG_VALUE: i <- $x8
	;DEBUG_VALUE: emulate_AMX_FMA16:y_enable <- $x25
	;DEBUG_VALUE: emulate_AMX_FMA16:z_row <- [$sp+0]
	;DEBUG_VALUE: emulate_AMX_FMA16:x_enable <- $x24
	;DEBUG_VALUE: emulate_AMX_FMA16:state <- $x20
	;DEBUG_VALUE: emulate_AMX_FMA16:operand <- $x19
	.loc	2 41 22                         ; fma.c:41:22
	fadd	h0, h1, h2
Ltmp340:
	.loc	2 132 16                        ; fma.c:132:16
	str	h0, [x9, x8, lsl #1]
	b	LBB3_18
Ltmp341:
LBB3_52:                                ;   in Loop: Header=BB3_19 Depth=1
	;DEBUG_VALUE: i <- $x8
	;DEBUG_VALUE: emulate_AMX_FMA16:y_enable <- $x25
	;DEBUG_VALUE: emulate_AMX_FMA16:z_row <- [$sp+0]
	;DEBUG_VALUE: emulate_AMX_FMA16:x_enable <- $x24
	;DEBUG_VALUE: emulate_AMX_FMA16:state <- $x20
	;DEBUG_VALUE: emulate_AMX_FMA16:operand <- $x19
	.loc	2 0 16 is_stmt 0                ; fma.c:0:16
	fmov	s0, s2
	.loc	2 132 16                        ; fma.c:132:16
	str	h2, [x9, x8, lsl #1]
	b	LBB3_18
Ltmp342:
LBB3_53:                                ;   in Loop: Header=BB3_19 Depth=1
	;DEBUG_VALUE: i <- $x8
	;DEBUG_VALUE: emulate_AMX_FMA16:y_enable <- $x25
	;DEBUG_VALUE: emulate_AMX_FMA16:z_row <- [$sp+0]
	;DEBUG_VALUE: emulate_AMX_FMA16:x_enable <- $x24
	;DEBUG_VALUE: emulate_AMX_FMA16:state <- $x20
	;DEBUG_VALUE: emulate_AMX_FMA16:operand <- $x19
	.loc	2 0 16                          ; fma.c:0:16
	movi	d0, #0000000000000000
	.loc	2 132 16                        ; fma.c:132:16
	str	h0, [x9, x8, lsl #1]
	b	LBB3_18
Ltmp343:
LBB3_54:
	;DEBUG_VALUE: i <- $x8
	;DEBUG_VALUE: emulate_AMX_FMA16:y_enable <- $x25
	;DEBUG_VALUE: emulate_AMX_FMA16:z_row <- [$sp+0]
	;DEBUG_VALUE: emulate_AMX_FMA16:x_enable <- $x24
	;DEBUG_VALUE: emulate_AMX_FMA16:state <- $x20
	;DEBUG_VALUE: emulate_AMX_FMA16:operand <- $x19
	.loc	2 0 16                          ; fma.c:0:16
	ldur	x8, [x29, #-88]
Lloh41:
	adrp	x9, ___stack_chk_guard@GOTPAGE
Lloh42:
	ldr	x9, [x9, ___stack_chk_guard@GOTPAGEOFF]
Lloh43:
	ldr	x9, [x9]
	cmp	x9, x8
	b.ne	LBB3_56
Ltmp344:
; %bb.55:
	;DEBUG_VALUE: emulate_AMX_FMA16:y_enable <- $x25
	;DEBUG_VALUE: emulate_AMX_FMA16:z_row <- [$sp+0]
	;DEBUG_VALUE: emulate_AMX_FMA16:x_enable <- $x24
	;DEBUG_VALUE: emulate_AMX_FMA16:state <- $x20
	;DEBUG_VALUE: emulate_AMX_FMA16:operand <- $x19
	.loc	2 146 1 is_stmt 1               ; fma.c:146:1
	ldp	x29, x30, [sp, #224]            ; 16-byte Folded Reload
	ldp	x20, x19, [sp, #208]            ; 16-byte Folded Reload
Ltmp345:
	;DEBUG_VALUE: emulate_AMX_FMA16:state <- [DW_OP_LLVM_entry_value 1] $x0
	;DEBUG_VALUE: emulate_AMX_FMA16:operand <- [DW_OP_LLVM_entry_value 1] $x1
	ldp	x22, x21, [sp, #192]            ; 16-byte Folded Reload
	ldp	x24, x23, [sp, #176]            ; 16-byte Folded Reload
Ltmp346:
	ldp	x26, x25, [sp, #160]            ; 16-byte Folded Reload
Ltmp347:
	ldp	x28, x27, [sp, #144]            ; 16-byte Folded Reload
	add	sp, sp, #240
Ltmp348:
	ret
Ltmp349:
LBB3_56:
	;DEBUG_VALUE: emulate_AMX_FMA16:y_enable <- $x25
	;DEBUG_VALUE: emulate_AMX_FMA16:z_row <- [$sp+0]
	;DEBUG_VALUE: emulate_AMX_FMA16:x_enable <- $x24
	;DEBUG_VALUE: emulate_AMX_FMA16:state <- $x20
	;DEBUG_VALUE: emulate_AMX_FMA16:operand <- $x19
	.loc	2 0 1 is_stmt 0                 ; fma.c:0:1
	bl	___stack_chk_fail
Ltmp350:
	.loh AdrpAdd	Lloh31, Lloh32
	.loh AdrpLdrGotLdr	Lloh28, Lloh29, Lloh30
	.loh AdrpAdd	Lloh33, Lloh34
	.loh AdrpAdd	Lloh39, Lloh40
	.loh AdrpAdd	Lloh37, Lloh38
	.loh AdrpAdd	Lloh35, Lloh36
	.loh AdrpLdrGotLdr	Lloh41, Lloh42, Lloh43
Lfunc_end3:
	.cfi_endproc
	.p2align	2
lJTI3_0:
	.long	LBB3_1-Ltmp246
	.long	LBB3_7-Ltmp246
	.long	LBB3_2-Ltmp246
	.long	LBB3_4-Ltmp246
	.p2align	2
lJTI3_1:
	.long	LBB3_9-Ltmp262
	.long	LBB3_15-Ltmp262
	.long	LBB3_10-Ltmp262
	.long	LBB3_12-Ltmp262
	.p2align	2
lJTI3_2:
	.long	LBB3_47-Ltmp332
	.long	LBB3_50-Ltmp332
	.long	LBB3_49-Ltmp332
	.long	LBB3_51-Ltmp332
	.long	LBB3_17-Ltmp332
	.long	LBB3_52-Ltmp332
	.long	LBB3_53-Ltmp332
	.p2align	2
lJTI3_3:
	.long	LBB3_32-Ltmp309
	.long	LBB3_35-Ltmp309
	.long	LBB3_42-Ltmp309
	.long	LBB3_36-Ltmp309
	.long	LBB3_37-Ltmp309
	.long	LBB3_43-Ltmp309
	.long	LBB3_44-Ltmp309
	.p2align	2
lJTI3_4:
	.long	LBB3_29-Ltmp302
	.long	LBB3_33-Ltmp302
	.long	LBB3_23-Ltmp302
	.long	LBB3_34-Ltmp302
	.long	LBB3_22-Ltmp302
	.long	LBB3_39-Ltmp302
	.long	LBB3_40-Ltmp302
                                        ; -- End function
	.file	6 "/Library/Developer/CommandLineTools/SDKs/MacOSX.sdk/usr/include/_types" "_uint16_t.h"
	.file	7 "/Library/Developer/CommandLineTools/SDKs/MacOSX.sdk/usr/include/sys/_types" "_int8_t.h"
	.file	8 "/Library/Developer/CommandLineTools/SDKs/MacOSX.sdk/usr/include/sys/_types" "_int16_t.h"
	.file	9 "/Library/Developer/CommandLineTools/SDKs/MacOSX.sdk/usr/include/sys/_types" "_int32_t.h"