	.section	__TEXT,__text,regular,pure_instructions
	.build_version macos, 14, 0	sdk_version 14, 4
	.file	1 "/Library/Developer/CommandLineTools/SDKs/MacOSX.sdk/usr/include/_types" "_uint8_t.h"
	.globl	_load_xy_reg_indexed            ; -- Begin function load_xy_reg_indexed
	.p2align	2
_load_xy_reg_indexed:                   ; @load_xy_reg_indexed
Lfunc_begin0:
	.file	2 "/Users/tarindujayatilaka/Documents/superopt/apple-amx" "genlut.c"
	.loc	2 45 0                          ; genlut.c:45:0
	.cfi_startproc
; %bb.0:
	;DEBUG_VALUE: load_xy_reg_indexed:dst <- $x0
	;DEBUG_VALUE: load_xy_reg_indexed:table <- $x1
	;DEBUG_VALUE: load_xy_reg_indexed:ibits <- $w2
	;DEBUG_VALUE: load_xy_reg_indexed:ebits <- $w3
	sub	sp, sp, #176
	.cfi_def_cfa_offset 176
	stp	x28, x27, [sp, #80]             ; 16-byte Folded Spill
	stp	x26, x25, [sp, #96]             ; 16-byte Folded Spill
	stp	x24, x23, [sp, #112]            ; 16-byte Folded Spill
	stp	x22, x21, [sp, #128]            ; 16-byte Folded Spill
	stp	x20, x19, [sp, #144]            ; 16-byte Folded Spill
	stp	x29, x30, [sp, #160]            ; 16-byte Folded Spill
	add	x29, sp, #160
	.cfi_def_cfa w29, 16
	.cfi_offset w30, -8
	.cfi_offset w29, -16
	.cfi_offset w19, -24
	.cfi_offset w20, -32
	.cfi_offset w21, -40
	.cfi_offset w22, -48
	.cfi_offset w23, -56
	.cfi_offset w24, -64
	.cfi_offset w25, -72
	.cfi_offset w26, -80
	.cfi_offset w27, -88
	.cfi_offset w28, -96
	mov	x20, x1
Ltmp0:
	;DEBUG_VALUE: load_xy_reg_indexed:table <- $x20
	mov	x21, x0
Ltmp1:
	;DEBUG_VALUE: load_xy_reg_indexed:dst <- $x21
	mov	w24, #0
	mov	w23, #0
Lloh0:
	adrp	x8, ___stack_chk_guard@GOTPAGE
Lloh1:
	ldr	x8, [x8, ___stack_chk_guard@GOTPAGEOFF]
Lloh2:
	ldr	x8, [x8]
	str	x8, [sp, #72]
Ltmp2:
	.loc	2 47 5 prologue_end             ; genlut.c:47:5
	ldp	q0, q1, [x0]
	stp	q0, q1, [sp, #32]
	.loc	2 49 29                         ; genlut.c:49:29
	lsr	w22, w3, #3
Ltmp3:
	;DEBUG_VALUE: load_xy_reg_indexed:ebytes <- $w22
	.loc	2 0 29 is_stmt 0                ; genlut.c:0:29
	mov	w8, #-1
	.loc	2 50 36 is_stmt 1               ; genlut.c:50:36
	lsl	w8, w8, w2
	.loc	2 47 5                          ; genlut.c:47:5
	ldr	x9, [x0, #32]
	str	x9, [sp, #64]
Ltmp4:
	;DEBUG_VALUE: load_xy_reg_indexed:ibits <- [DW_OP_plus_uconst 28] [$sp+0]
	.loc	2 50 36                         ; genlut.c:50:36
	mov	w25, w2
	mvn	w26, w8
Ltmp5:
	;DEBUG_VALUE: soff <- 0
	;DEBUG_VALUE: doff <- 0
	;DEBUG_VALUE: load_xy_reg_indexed:imask <- $w26
	.loc	2 51 5                          ; genlut.c:51:5
	lsl	w8, w22, #3
	sub	w8, w8, w22
	stp	w8, w2, [sp, #24]               ; 8-byte Folded Spill
	lsl	w8, w22, #1
	str	w8, [sp, #20]                   ; 4-byte Folded Spill
	add	w8, w8, w22
	str	w8, [sp, #16]                   ; 4-byte Folded Spill
	lsl	w9, w8, #1
	lsl	w27, w22, #2
	add	w8, w27, w22
	stp	w8, w9, [sp, #8]                ; 8-byte Folded Spill
Ltmp6:
LBB0_1:                                 ; =>This Inner Loop Header: Depth=1
	;DEBUG_VALUE: load_xy_reg_indexed:imask <- $w26
	;DEBUG_VALUE: load_xy_reg_indexed:ibits <- [DW_OP_plus_uconst 28] [$sp+0]
	;DEBUG_VALUE: load_xy_reg_indexed:ebytes <- $w22
	;DEBUG_VALUE: load_xy_reg_indexed:dst <- $x21
	;DEBUG_VALUE: load_xy_reg_indexed:table <- $x20
	;DEBUG_VALUE: doff <- $w24
	;DEBUG_VALUE: soff <- $w23
	.loc	2 53 9                          ; genlut.c:53:9
	add	x8, sp, #32
	ldr	x28, [x8, w23, uxtw]
Ltmp7:
	;DEBUG_VALUE: i <- 0
	;DEBUG_VALUE: bits <- $x28
	.loc	2 56 29                         ; genlut.c:56:29
	and	w8, w28, w26
	mul	w8, w8, w22
	and	w8, w8, #0x3f
Ltmp8:
	;DEBUG_VALUE: toff <- $w8
	.loc	2 57 13                         ; genlut.c:57:13
	add	x0, x21, w24, uxtw
	add	x1, x20, x8
	mov	x2, x22
	bl	_memcpy
Ltmp9:
	;DEBUG_VALUE: load_xy_reg_indexed:ebits <- [DW_OP_LLVM_entry_value 1] $w3
	.loc	2 58 18                         ; genlut.c:58:18
	lsr	x28, x28, x25
Ltmp10:
	;DEBUG_VALUE: bits <- $x28
	.loc	2 56 29                         ; genlut.c:56:29
	and	w8, w28, w26
	mul	w8, w8, w22
	and	w8, w8, #0x3f
Ltmp11:
	;DEBUG_VALUE: toff <- $w8
	.loc	2 59 18                         ; genlut.c:59:18
	add	w19, w24, w22
Ltmp12:
	;DEBUG_VALUE: i <- 1
	;DEBUG_VALUE: doff <- $w19
	.loc	2 57 13                         ; genlut.c:57:13
	add	x0, x21, x19
	add	x1, x20, x8
	mov	x2, x22
	bl	_memcpy
Ltmp13:
	.loc	2 58 18                         ; genlut.c:58:18
	lsr	x28, x28, x25
Ltmp14:
	;DEBUG_VALUE: bits <- $x28
	.loc	2 59 18                         ; genlut.c:59:18
	add	w19, w19, w22
Ltmp15:
	;DEBUG_VALUE: i <- 2
	;DEBUG_VALUE: doff <- $w19
	.loc	2 56 29                         ; genlut.c:56:29
	and	w8, w28, w26
	mul	w8, w8, w22
	and	w8, w8, #0x3f
Ltmp16:
	;DEBUG_VALUE: toff <- $w8
	.loc	2 0 29 is_stmt 0                ; genlut.c:0:29
	ldr	w9, [sp, #20]                   ; 4-byte Folded Reload
	.loc	2 56 29                         ; genlut.c:56:29
	add	w9, w9, w24
	.loc	2 57 13 is_stmt 1               ; genlut.c:57:13
	add	x0, x21, x9
	add	x1, x20, x8
	mov	x2, x22
	bl	_memcpy
Ltmp17:
	.loc	2 58 18                         ; genlut.c:58:18
	lsr	x28, x28, x25
Ltmp18:
	;DEBUG_VALUE: bits <- $x28
	.loc	2 59 18                         ; genlut.c:59:18
	add	w19, w19, w22
Ltmp19:
	;DEBUG_VALUE: i <- 3
	;DEBUG_VALUE: doff <- $w19
	.loc	2 56 29                         ; genlut.c:56:29
	and	w8, w28, w26
	mul	w8, w8, w22
	and	w8, w8, #0x3f
Ltmp20:
	;DEBUG_VALUE: toff <- $w8
	.loc	2 0 29 is_stmt 0                ; genlut.c:0:29
	ldr	w9, [sp, #16]                   ; 4-byte Folded Reload
	.loc	2 56 29                         ; genlut.c:56:29
	add	w9, w9, w24
	.loc	2 57 13 is_stmt 1               ; genlut.c:57:13
	add	x0, x21, x9
	add	x1, x20, x8
	mov	x2, x22
	bl	_memcpy
Ltmp21:
	.loc	2 58 18                         ; genlut.c:58:18
	lsr	x28, x28, x25
Ltmp22:
	;DEBUG_VALUE: bits <- $x28
	.loc	2 59 18                         ; genlut.c:59:18
	add	w19, w19, w22
Ltmp23:
	;DEBUG_VALUE: i <- 4
	;DEBUG_VALUE: doff <- $w19
	.loc	2 56 29                         ; genlut.c:56:29
	and	w8, w28, w26
	mul	w8, w8, w22
	and	w8, w8, #0x3f
Ltmp24:
	;DEBUG_VALUE: toff <- $w8
	add	w9, w27, w24
	.loc	2 57 13                         ; genlut.c:57:13
	add	x0, x21, x9
	add	x1, x20, x8
	mov	x2, x22
	bl	_memcpy
Ltmp25:
	.loc	2 58 18                         ; genlut.c:58:18
	lsr	x28, x28, x25
Ltmp26:
	;DEBUG_VALUE: bits <- $x28
	.loc	2 59 18                         ; genlut.c:59:18
	add	w19, w19, w22
Ltmp27:
	;DEBUG_VALUE: i <- 5
	;DEBUG_VALUE: doff <- $w19
	.loc	2 56 29                         ; genlut.c:56:29
	and	w8, w28, w26
	mul	w8, w8, w22
	and	w8, w8, #0x3f
Ltmp28:
	;DEBUG_VALUE: toff <- $w8
	.loc	2 0 29 is_stmt 0                ; genlut.c:0:29
	ldr	w9, [sp, #8]                    ; 4-byte Folded Reload
	.loc	2 56 29                         ; genlut.c:56:29
	add	w9, w9, w24
	.loc	2 57 13 is_stmt 1               ; genlut.c:57:13
	add	x0, x21, x9
	add	x1, x20, x8
	mov	x2, x22
	bl	_memcpy
Ltmp29:
	.loc	2 58 18                         ; genlut.c:58:18
	lsr	x28, x28, x25
Ltmp30:
	;DEBUG_VALUE: bits <- $x28
	.loc	2 59 18                         ; genlut.c:59:18
	add	w19, w19, w22
Ltmp31:
	;DEBUG_VALUE: i <- 6
	;DEBUG_VALUE: doff <- $w19
	.loc	2 56 29                         ; genlut.c:56:29
	and	w8, w28, w26
	mul	w8, w8, w22
	and	w8, w8, #0x3f
Ltmp32:
	;DEBUG_VALUE: toff <- $w8
	.loc	2 0 29 is_stmt 0                ; genlut.c:0:29
	ldr	w9, [sp, #12]                   ; 4-byte Folded Reload
	.loc	2 56 29                         ; genlut.c:56:29
	add	w9, w9, w24
	.loc	2 57 13 is_stmt 1               ; genlut.c:57:13
	add	x0, x21, x9
	add	x1, x20, x8
	mov	x2, x22
	bl	_memcpy
Ltmp33:
	.loc	2 58 18                         ; genlut.c:58:18
	lsr	x8, x28, x25
Ltmp34:
	;DEBUG_VALUE: bits <- $x8
	.loc	2 59 18                         ; genlut.c:59:18
	add	w19, w19, w22
Ltmp35:
	;DEBUG_VALUE: i <- 7
	;DEBUG_VALUE: doff <- $w19
	.loc	2 56 29                         ; genlut.c:56:29
	and	w8, w8, w26
Ltmp36:
	mul	w8, w8, w22
	and	w8, w8, #0x3f
Ltmp37:
	;DEBUG_VALUE: toff <- $w8
	.loc	2 0 29 is_stmt 0                ; genlut.c:0:29
	ldr	w9, [sp, #24]                   ; 4-byte Folded Reload
	.loc	2 56 29                         ; genlut.c:56:29
	add	w9, w9, w24
	.loc	2 57 13 is_stmt 1               ; genlut.c:57:13
	add	x0, x21, x9
	add	x1, x20, x8
	mov	x2, x22
	bl	_memcpy
Ltmp38:
	;DEBUG_VALUE: bits <- [DW_OP_LLVM_arg 0, DW_OP_LLVM_arg 0, DW_OP_shr, DW_OP_stack_value] undef
	.loc	2 59 18                         ; genlut.c:59:18
	add	w24, w19, w22
Ltmp39:
	;DEBUG_VALUE: i <- 8
	;DEBUG_VALUE: doff <- $w24
	.loc	2 0 18 is_stmt 0                ; genlut.c:0:18
	ldr	w8, [sp, #28]                   ; 4-byte Folded Reload
Ltmp40:
	.loc	2 54 14 is_stmt 1               ; genlut.c:54:14
	add	w23, w23, w8
Ltmp41:
	;DEBUG_VALUE: soff <- $w23
	.loc	2 51 5                          ; genlut.c:51:5
	cmp	w24, #64
	b.lo	LBB0_1
Ltmp42:
; %bb.2:
	;DEBUG_VALUE: i <- 8
	;DEBUG_VALUE: soff <- $w23
	;DEBUG_VALUE: doff <- $w24
	;DEBUG_VALUE: load_xy_reg_indexed:imask <- $w26
	;DEBUG_VALUE: load_xy_reg_indexed:ibits <- [DW_OP_plus_uconst 28] [$sp+0]
	;DEBUG_VALUE: load_xy_reg_indexed:ebytes <- $w22
	;DEBUG_VALUE: load_xy_reg_indexed:dst <- $x21
	;DEBUG_VALUE: load_xy_reg_indexed:table <- $x20
	.loc	2 0 5 is_stmt 0                 ; genlut.c:0:5
	ldr	x8, [sp, #72]
Lloh3:
	adrp	x9, ___stack_chk_guard@GOTPAGE
Lloh4:
	ldr	x9, [x9, ___stack_chk_guard@GOTPAGEOFF]
Lloh5:
	ldr	x9, [x9]
	cmp	x9, x8
	b.ne	LBB0_4
Ltmp43:
; %bb.3:
	;DEBUG_VALUE: load_xy_reg_indexed:imask <- $w26
	;DEBUG_VALUE: load_xy_reg_indexed:ibits <- [DW_OP_plus_uconst 28] [$sp+0]
	;DEBUG_VALUE: load_xy_reg_indexed:ebytes <- $w22
	;DEBUG_VALUE: load_xy_reg_indexed:dst <- $x21
	;DEBUG_VALUE: load_xy_reg_indexed:table <- $x20
	.loc	2 62 1 is_stmt 1                ; genlut.c:62:1
	ldp	x29, x30, [sp, #160]            ; 16-byte Folded Reload
	ldp	x20, x19, [sp, #144]            ; 16-byte Folded Reload
Ltmp44:
	;DEBUG_VALUE: load_xy_reg_indexed:table <- [DW_OP_LLVM_entry_value 1] $x1
	;DEBUG_VALUE: load_xy_reg_indexed:table <- [DW_OP_LLVM_entry_value 1] $x1
	ldp	x22, x21, [sp, #128]            ; 16-byte Folded Reload
Ltmp45:
	;DEBUG_VALUE: load_xy_reg_indexed:dst <- [DW_OP_LLVM_entry_value 1] $x0
	;DEBUG_VALUE: load_xy_reg_indexed:dst <- [DW_OP_LLVM_entry_value 1] $x0
	ldp	x24, x23, [sp, #112]            ; 16-byte Folded Reload
	ldp	x26, x25, [sp, #96]             ; 16-byte Folded Reload
Ltmp46:
	ldp	x28, x27, [sp, #80]             ; 16-byte Folded Reload
	add	sp, sp, #176
Ltmp47:
	ret
Ltmp48:
LBB0_4:
	;DEBUG_VALUE: i <- 8
	;DEBUG_VALUE: soff <- $w23
	;DEBUG_VALUE: doff <- $w24
	;DEBUG_VALUE: load_xy_reg_indexed:imask <- $w26
	;DEBUG_VALUE: load_xy_reg_indexed:ibits <- [DW_OP_plus_uconst 28] [$sp+0]
	;DEBUG_VALUE: load_xy_reg_indexed:ebytes <- $w22
	;DEBUG_VALUE: load_xy_reg_indexed:dst <- $x21
	;DEBUG_VALUE: load_xy_reg_indexed:table <- $x20
	.loc	2 0 1 is_stmt 0                 ; genlut.c:0:1
	bl	___stack_chk_fail
Ltmp49:
	.loh AdrpLdrGotLdr	Lloh0, Lloh1, Lloh2
	.loh AdrpLdrGotLdr	Lloh3, Lloh4, Lloh5
Lfunc_end0:
	.cfi_endproc
                                        ; -- End function
	.globl	_emulate_AMX_GENLUT             ; -- Begin function emulate_AMX_GENLUT
	.p2align	2
_emulate_AMX_GENLUT:                    ; @emulate_AMX_GENLUT
Lfunc_begin1:
	.loc	2 64 0 is_stmt 1                ; genlut.c:64:0
	.cfi_startproc
; %bb.0:
	;DEBUG_VALUE: emulate_AMX_GENLUT:state <- $x0
	;DEBUG_VALUE: emulate_AMX_GENLUT:operand <- $x1
	sub	sp, sp, #224
	.cfi_def_cfa_offset 224
	stp	d9, d8, [sp, #112]              ; 16-byte Folded Spill
	stp	x28, x27, [sp, #128]            ; 16-byte Folded Spill
	stp	x26, x25, [sp, #144]            ; 16-byte Folded Spill
	stp	x24, x23, [sp, #160]            ; 16-byte Folded Spill
	stp	x22, x21, [sp, #176]            ; 16-byte Folded Spill
	stp	x20, x19, [sp, #192]            ; 16-byte Folded Spill
	stp	x29, x30, [sp, #208]            ; 16-byte Folded Spill
	add	x29, sp, #208
	.cfi_def_cfa w29, 16
	.cfi_offset w30, -8
	.cfi_offset w29, -16
	.cfi_offset w19, -24
	.cfi_offset w20, -32
	.cfi_offset w21, -40
	.cfi_offset w22, -48
	.cfi_offset w23, -56
	.cfi_offset w24, -64
	.cfi_offset w25, -72
	.cfi_offset w26, -80
	.cfi_offset w27, -88
	.cfi_offset w28, -96
	.cfi_offset b8, -104
	.cfi_offset b9, -112
	mov	x19, x1
Ltmp50:
	;DEBUG_VALUE: emulate_AMX_GENLUT:operand <- $x19
	mov	x20, x0
Ltmp51:
	;DEBUG_VALUE: emulate_AMX_GENLUT:state <- $x20
Lloh6:
	adrp	x8, ___stack_chk_guard@GOTPAGE
Lloh7:
	ldr	x8, [x8, ___stack_chk_guard@GOTPAGEOFF]
Lloh8:
	ldr	x8, [x8]
	str	x8, [sp, #104]
Ltmp52:
	.loc	2 65 37 prologue_end            ; genlut.c:65:37
	ubfx	x26, x1, #53, #4
Ltmp53:
	;DEBUG_VALUE: emulate_AMX_GENLUT:mode <- $x26
	.loc	2 66 29                         ; genlut.c:66:29
	add	x25, x0, #512
	tst	x1, #0x400
	csel	x22, x0, x25, eq
Ltmp54:
	;DEBUG_VALUE: emulate_AMX_GENLUT:source <- $x22
	.loc	2 67 28                         ; genlut.c:67:28
	tst	x1, #0x800000000000000
	csel	x8, x0, x25, eq
Ltmp55:
	;DEBUG_VALUE: emulate_AMX_GENLUT:table <- $x8
	.loc	2 68 30                         ; genlut.c:68:30
	ubfx	x9, x1, #60, #3
	.loc	2 68 11 is_stmt 0               ; genlut.c:68:11
	add	x21, x8, x9, lsl #6
Ltmp56:
	;DEBUG_VALUE: emulate_AMX_GENLUT:table <- $x21
	.loc	2 70 38 is_stmt 1               ; genlut.c:70:38
	and	x8, x1, #0x1ff
	mov	w9, #512
Ltmp57:
	;DEBUG_VALUE: load_xy_reg:dst <- [DW_OP_plus_uconst 8, DW_OP_stack_value] $sp
	;DEBUG_VALUE: load_xy_reg:offset <- $x8
	;DEBUG_VALUE: load_xy_reg:src <- $x22
	.file	3 "/Users/tarindujayatilaka/Documents/superopt/apple-amx" "./emulate.h"
	.loc	3 42 26                         ; ./emulate.h:42:26
	sub	x9, x9, x8
Ltmp58:
	;DEBUG_VALUE: load_xy_reg:avail <- $x9
	.loc	3 43 5                          ; ./emulate.h:43:5
	add	x1, x22, x8
	.loc	3 44 5                          ; ./emulate.h:44:5
	sub	x10, x8, #448
	mov	w11, #64
	.loc	3 43 5                          ; ./emulate.h:43:5
	cmp	x8, #449
	csel	x2, x11, x9, lo
	add	x8, sp, #8
Ltmp59:
	.loc	3 44 5                          ; ./emulate.h:44:5
	add	x23, x8, x9
	csel	x24, xzr, x10, lo
	.loc	3 43 5                          ; ./emulate.h:43:5
	add	x0, sp, #8
	mov	w3, #64
	bl	___memcpy_chk
Ltmp60:
	.loc	3 44 5                          ; ./emulate.h:44:5
	mov	x0, x23
	mov	x1, x22
	mov	x2, x24
	bl	_memcpy
Ltmp61:
	.loc	3 0 5 is_stmt 0                 ; ./emulate.h:0:5
	mov	w2, #2
	mov	w3, #32
	mov	w23, #5
	mov	w22, #16
Ltmp62:
Lloh9:
	adrp	x8, lJTI1_0@PAGE
Lloh10:
	add	x8, x8, lJTI1_0@PAGEOFF
	adr	x9, LBB1_1
	ldrb	w10, [x8, x26]
	add	x9, x9, x10, lsl #2
	br	x9
Ltmp63:
LBB1_1:
	;DEBUG_VALUE: emulate_AMX_GENLUT:table <- $x21
	;DEBUG_VALUE: emulate_AMX_GENLUT:mode <- $x26
	;DEBUG_VALUE: emulate_AMX_GENLUT:state <- $x20
	;DEBUG_VALUE: emulate_AMX_GENLUT:operand <- $x19
	;DEBUG_VALUE: emulate_AMX_GENLUT:ibits <- 4
	;DEBUG_VALUE: emulate_AMX_GENLUT:ebits <- 32
	mov	w23, #4
	mov	w22, #32
	mov	w3, #32
	mov	w2, #4
	.loc	2 90 9 is_stmt 1                ; genlut.c:90:9
	cmp	x26, #6
	b.hi	LBB1_66
Ltmp64:
LBB1_2:
	;DEBUG_VALUE: emulate_AMX_GENLUT:table <- $x21
	;DEBUG_VALUE: emulate_AMX_GENLUT:mode <- $x26
	;DEBUG_VALUE: emulate_AMX_GENLUT:state <- $x20
	;DEBUG_VALUE: emulate_AMX_GENLUT:operand <- $x19
	;DEBUG_VALUE: find_first_greater_than:vs <- [DW_OP_plus_uconst 72, DW_OP_stack_value] $sp
	;DEBUG_VALUE: find_first_greater_than:xy <- [DW_OP_plus_uconst 8, DW_OP_stack_value] $sp
	;DEBUG_VALUE: find_first_greater_than:table <- $x21
	;DEBUG_VALUE: find_first_greater_than:operand <- $x19
	;DEBUG_VALUE: find_first_greater_than:mode <- $w26
	.loc	2 12 5                          ; genlut.c:12:5
	cmp	w26, #6
	b.hi	LBB1_337
Ltmp65:
; %bb.3:
	;DEBUG_VALUE: find_first_greater_than:mode <- $w26
	;DEBUG_VALUE: find_first_greater_than:vs <- [DW_OP_plus_uconst 72, DW_OP_stack_value] $sp
	;DEBUG_VALUE: find_first_greater_than:xy <- [DW_OP_plus_uconst 8, DW_OP_stack_value] $sp
	;DEBUG_VALUE: find_first_greater_than:table <- $x21
	;DEBUG_VALUE: find_first_greater_than:operand <- $x19
	;DEBUG_VALUE: emulate_AMX_GENLUT:table <- $x21
	;DEBUG_VALUE: emulate_AMX_GENLUT:mode <- $x26
	;DEBUG_VALUE: emulate_AMX_GENLUT:state <- $x20
	;DEBUG_VALUE: emulate_AMX_GENLUT:operand <- $x19
	.loc	2 0 5 is_stmt 0                 ; genlut.c:0:5
Lloh11:
	adrp	x8, lJTI1_1@PAGE
Lloh12:
	add	x8, x8, lJTI1_1@PAGEOFF
	adr	x9, LBB1_4
	ldrh	w10, [x8, x26, lsl #1]
	add	x9, x9, x10, lsl #2
	br	x9
Ltmp66:
LBB1_4:
	;DEBUG_VALUE: find_first_greater_than:mode <- $w26
	;DEBUG_VALUE: find_first_greater_than:vs <- [DW_OP_plus_uconst 72, DW_OP_stack_value] $sp
	;DEBUG_VALUE: find_first_greater_than:xy <- [DW_OP_plus_uconst 8, DW_OP_stack_value] $sp
	;DEBUG_VALUE: find_first_greater_than:table <- $x21
	;DEBUG_VALUE: find_first_greater_than:operand <- $x19
	;DEBUG_VALUE: emulate_AMX_GENLUT:table <- $x21
	;DEBUG_VALUE: emulate_AMX_GENLUT:mode <- $x26
	;DEBUG_VALUE: emulate_AMX_GENLUT:state <- $x20
	;DEBUG_VALUE: emulate_AMX_GENLUT:operand <- $x19
	mov	x8, #0
	ldr	s0, [x21]
	add	x9, sp, #8
	add	x10, sp, #72
	b	LBB1_7
Ltmp67:
LBB1_5:                                 ;   in Loop: Header=BB1_7 Depth=1
	;DEBUG_VALUE: i <- $x8
	;DEBUG_VALUE: v <- 0
	;DEBUG_VALUE: find_first_greater_than:mode <- $w26
	;DEBUG_VALUE: find_first_greater_than:vs <- [DW_OP_plus_uconst 72, DW_OP_stack_value] $sp
	;DEBUG_VALUE: find_first_greater_than:xy <- [DW_OP_plus_uconst 8, DW_OP_stack_value] $sp
	;DEBUG_VALUE: find_first_greater_than:table <- $x21
	;DEBUG_VALUE: find_first_greater_than:operand <- $x19
	;DEBUG_VALUE: emulate_AMX_GENLUT:table <- $x21
	;DEBUG_VALUE: emulate_AMX_GENLUT:mode <- $x26
	;DEBUG_VALUE: emulate_AMX_GENLUT:state <- $x20
	;DEBUG_VALUE: emulate_AMX_GENLUT:operand <- $x19
	mov	w11, #255
Ltmp68:
LBB1_6:                                 ;   in Loop: Header=BB1_7 Depth=1
	;DEBUG_VALUE: i <- $x8
	;DEBUG_VALUE: find_first_greater_than:mode <- $w26
	;DEBUG_VALUE: find_first_greater_than:vs <- [DW_OP_plus_uconst 72, DW_OP_stack_value] $sp
	;DEBUG_VALUE: find_first_greater_than:xy <- [DW_OP_plus_uconst 8, DW_OP_stack_value] $sp
	;DEBUG_VALUE: find_first_greater_than:table <- $x21
	;DEBUG_VALUE: find_first_greater_than:operand <- $x19
	;DEBUG_VALUE: emulate_AMX_GENLUT:table <- $x21
	;DEBUG_VALUE: emulate_AMX_GENLUT:mode <- $x26
	;DEBUG_VALUE: emulate_AMX_GENLUT:state <- $x20
	;DEBUG_VALUE: emulate_AMX_GENLUT:operand <- $x19
	.loc	2 19 13 is_stmt 1               ; genlut.c:19:13
	strb	w11, [x10, x8]
Ltmp69:
	.loc	2 19 13 is_stmt 0               ; genlut.c:19:13
	add	x8, x8, #1
Ltmp70:
	;DEBUG_VALUE: i <- $x8
	.loc	2 19 13                         ; genlut.c:19:13
	cmp	x8, #16
	b.eq	LBB1_337
Ltmp71:
LBB1_7:                                 ; =>This Inner Loop Header: Depth=1
	;DEBUG_VALUE: find_first_greater_than:mode <- $w26
	;DEBUG_VALUE: find_first_greater_than:vs <- [DW_OP_plus_uconst 72, DW_OP_stack_value] $sp
	;DEBUG_VALUE: find_first_greater_than:xy <- [DW_OP_plus_uconst 8, DW_OP_stack_value] $sp
	;DEBUG_VALUE: find_first_greater_than:table <- $x21
	;DEBUG_VALUE: find_first_greater_than:operand <- $x19
	;DEBUG_VALUE: emulate_AMX_GENLUT:table <- $x21
	;DEBUG_VALUE: emulate_AMX_GENLUT:mode <- $x26
	;DEBUG_VALUE: emulate_AMX_GENLUT:state <- $x20
	;DEBUG_VALUE: emulate_AMX_GENLUT:operand <- $x19
	.loc	2 0 13                          ; genlut.c:0:13
	ldr	s1, [x9, x8, lsl #2]
Ltmp72:
	;DEBUG_VALUE: v <- 0
	;DEBUG_VALUE: i <- $x8
	.loc	2 19 13                         ; genlut.c:19:13
	fcmp	s0, s1
	b.gt	LBB1_5
Ltmp73:
; %bb.8:                                ;   in Loop: Header=BB1_7 Depth=1
	;DEBUG_VALUE: i <- $x8
	;DEBUG_VALUE: v <- 0
	;DEBUG_VALUE: find_first_greater_than:mode <- $w26
	;DEBUG_VALUE: find_first_greater_than:vs <- [DW_OP_plus_uconst 72, DW_OP_stack_value] $sp
	;DEBUG_VALUE: find_first_greater_than:xy <- [DW_OP_plus_uconst 8, DW_OP_stack_value] $sp
	;DEBUG_VALUE: find_first_greater_than:table <- $x21
	;DEBUG_VALUE: find_first_greater_than:operand <- $x19
	;DEBUG_VALUE: emulate_AMX_GENLUT:table <- $x21
	;DEBUG_VALUE: emulate_AMX_GENLUT:mode <- $x26
	;DEBUG_VALUE: emulate_AMX_GENLUT:state <- $x20
	;DEBUG_VALUE: emulate_AMX_GENLUT:operand <- $x19
	;DEBUG_VALUE: v <- 1
	.loc	2 19 13                         ; genlut.c:19:13
	ldr	s2, [x21, #4]
Ltmp74:
	.loc	2 19 13                         ; genlut.c:19:13
	fcmp	s2, s1
	b.le	LBB1_10
Ltmp75:
; %bb.9:                                ;   in Loop: Header=BB1_7 Depth=1
	;DEBUG_VALUE: v <- 1
	;DEBUG_VALUE: i <- $x8
	;DEBUG_VALUE: find_first_greater_than:mode <- $w26
	;DEBUG_VALUE: find_first_greater_than:vs <- [DW_OP_plus_uconst 72, DW_OP_stack_value] $sp
	;DEBUG_VALUE: find_first_greater_than:xy <- [DW_OP_plus_uconst 8, DW_OP_stack_value] $sp
	;DEBUG_VALUE: find_first_greater_than:table <- $x21
	;DEBUG_VALUE: find_first_greater_than:operand <- $x19
	;DEBUG_VALUE: emulate_AMX_GENLUT:table <- $x21
	;DEBUG_VALUE: emulate_AMX_GENLUT:mode <- $x26
	;DEBUG_VALUE: emulate_AMX_GENLUT:state <- $x20
	;DEBUG_VALUE: emulate_AMX_GENLUT:operand <- $x19
	.loc	2 0 13                          ; genlut.c:0:13
	mov	w11, #0
	b	LBB1_6
Ltmp76:
LBB1_10:                                ;   in Loop: Header=BB1_7 Depth=1
	;DEBUG_VALUE: v <- 1
	;DEBUG_VALUE: i <- $x8
	;DEBUG_VALUE: find_first_greater_than:mode <- $w26
	;DEBUG_VALUE: find_first_greater_than:vs <- [DW_OP_plus_uconst 72, DW_OP_stack_value] $sp
	;DEBUG_VALUE: find_first_greater_than:xy <- [DW_OP_plus_uconst 8, DW_OP_stack_value] $sp
	;DEBUG_VALUE: find_first_greater_than:table <- $x21
	;DEBUG_VALUE: find_first_greater_than:operand <- $x19
	;DEBUG_VALUE: emulate_AMX_GENLUT:table <- $x21
	;DEBUG_VALUE: emulate_AMX_GENLUT:mode <- $x26
	;DEBUG_VALUE: emulate_AMX_GENLUT:state <- $x20
	;DEBUG_VALUE: emulate_AMX_GENLUT:operand <- $x19
	;DEBUG_VALUE: v <- 2
	.loc	2 19 13                         ; genlut.c:19:13
	ldr	s2, [x21, #8]
Ltmp77:
	.loc	2 19 13                         ; genlut.c:19:13
	fcmp	s2, s1
	b.le	LBB1_12
Ltmp78:
; %bb.11:                               ;   in Loop: Header=BB1_7 Depth=1
	;DEBUG_VALUE: v <- 2
	;DEBUG_VALUE: i <- $x8
	;DEBUG_VALUE: find_first_greater_than:mode <- $w26
	;DEBUG_VALUE: find_first_greater_than:vs <- [DW_OP_plus_uconst 72, DW_OP_stack_value] $sp
	;DEBUG_VALUE: find_first_greater_than:xy <- [DW_OP_plus_uconst 8, DW_OP_stack_value] $sp
	;DEBUG_VALUE: find_first_greater_than:table <- $x21
	;DEBUG_VALUE: find_first_greater_than:operand <- $x19
	;DEBUG_VALUE: emulate_AMX_GENLUT:table <- $x21
	;DEBUG_VALUE: emulate_AMX_GENLUT:mode <- $x26
	;DEBUG_VALUE: emulate_AMX_GENLUT:state <- $x20
	;DEBUG_VALUE: emulate_AMX_GENLUT:operand <- $x19
	.loc	2 0 13                          ; genlut.c:0:13
	mov	w11, #1
	b	LBB1_6
Ltmp79:
LBB1_12:                                ;   in Loop: Header=BB1_7 Depth=1
	;DEBUG_VALUE: v <- 2
	;DEBUG_VALUE: i <- $x8
	;DEBUG_VALUE: find_first_greater_than:mode <- $w26
	;DEBUG_VALUE: find_first_greater_than:vs <- [DW_OP_plus_uconst 72, DW_OP_stack_value] $sp
	;DEBUG_VALUE: find_first_greater_than:xy <- [DW_OP_plus_uconst 8, DW_OP_stack_value] $sp
	;DEBUG_VALUE: find_first_greater_than:table <- $x21
	;DEBUG_VALUE: find_first_greater_than:operand <- $x19
	;DEBUG_VALUE: emulate_AMX_GENLUT:table <- $x21
	;DEBUG_VALUE: emulate_AMX_GENLUT:mode <- $x26
	;DEBUG_VALUE: emulate_AMX_GENLUT:state <- $x20
	;DEBUG_VALUE: emulate_AMX_GENLUT:operand <- $x19
	;DEBUG_VALUE: v <- 3
	.loc	2 19 13                         ; genlut.c:19:13
	ldr	s2, [x21, #12]
Ltmp80:
	.loc	2 19 13                         ; genlut.c:19:13
	fcmp	s2, s1
	b.le	LBB1_14
Ltmp81:
; %bb.13:                               ;   in Loop: Header=BB1_7 Depth=1
	;DEBUG_VALUE: v <- 3
	;DEBUG_VALUE: i <- $x8
	;DEBUG_VALUE: find_first_greater_than:mode <- $w26
	;DEBUG_VALUE: find_first_greater_than:vs <- [DW_OP_plus_uconst 72, DW_OP_stack_value] $sp
	;DEBUG_VALUE: find_first_greater_than:xy <- [DW_OP_plus_uconst 8, DW_OP_stack_value] $sp
	;DEBUG_VALUE: find_first_greater_than:table <- $x21
	;DEBUG_VALUE: find_first_greater_than:operand <- $x19
	;DEBUG_VALUE: emulate_AMX_GENLUT:table <- $x21
	;DEBUG_VALUE: emulate_AMX_GENLUT:mode <- $x26
	;DEBUG_VALUE: emulate_AMX_GENLUT:state <- $x20
	;DEBUG_VALUE: emulate_AMX_GENLUT:operand <- $x19
	.loc	2 0 13                          ; genlut.c:0:13
	mov	w11, #2
	b	LBB1_6
Ltmp82:
LBB1_14:                                ;   in Loop: Header=BB1_7 Depth=1
	;DEBUG_VALUE: v <- 3
	;DEBUG_VALUE: i <- $x8
	;DEBUG_VALUE: find_first_greater_than:mode <- $w26
	;DEBUG_VALUE: find_first_greater_than:vs <- [DW_OP_plus_uconst 72, DW_OP_stack_value] $sp
	;DEBUG_VALUE: find_first_greater_than:xy <- [DW_OP_plus_uconst 8, DW_OP_stack_value] $sp
	;DEBUG_VALUE: find_first_greater_than:table <- $x21
	;DEBUG_VALUE: find_first_greater_than:operand <- $x19
	;DEBUG_VALUE: emulate_AMX_GENLUT:table <- $x21
	;DEBUG_VALUE: emulate_AMX_GENLUT:mode <- $x26
	;DEBUG_VALUE: emulate_AMX_GENLUT:state <- $x20
	;DEBUG_VALUE: emulate_AMX_GENLUT:operand <- $x19
	;DEBUG_VALUE: v <- 4
	.loc	2 19 13                         ; genlut.c:19:13
	ldr	s2, [x21, #16]
Ltmp83:
	.loc	2 19 13                         ; genlut.c:19:13
	fcmp	s2, s1
	b.le	LBB1_16
Ltmp84:
; %bb.15:                               ;   in Loop: Header=BB1_7 Depth=1
	;DEBUG_VALUE: v <- 4
	;DEBUG_VALUE: i <- $x8
	;DEBUG_VALUE: find_first_greater_than:mode <- $w26
	;DEBUG_VALUE: find_first_greater_than:vs <- [DW_OP_plus_uconst 72, DW_OP_stack_value] $sp
	;DEBUG_VALUE: find_first_greater_than:xy <- [DW_OP_plus_uconst 8, DW_OP_stack_value] $sp
	;DEBUG_VALUE: find_first_greater_than:table <- $x21
	;DEBUG_VALUE: find_first_greater_than:operand <- $x19
	;DEBUG_VALUE: emulate_AMX_GENLUT:table <- $x21
	;DEBUG_VALUE: emulate_AMX_GENLUT:mode <- $x26
	;DEBUG_VALUE: emulate_AMX_GENLUT:state <- $x20
	;DEBUG_VALUE: emulate_AMX_GENLUT:operand <- $x19
	.loc	2 0 13                          ; genlut.c:0:13
	mov	w11, #3
	b	LBB1_6
Ltmp85:
LBB1_16:                                ;   in Loop: Header=BB1_7 Depth=1
	;DEBUG_VALUE: v <- 4
	;DEBUG_VALUE: i <- $x8
	;DEBUG_VALUE: find_first_greater_than:mode <- $w26
	;DEBUG_VALUE: find_first_greater_than:vs <- [DW_OP_plus_uconst 72, DW_OP_stack_value] $sp
	;DEBUG_VALUE: find_first_greater_than:xy <- [DW_OP_plus_uconst 8, DW_OP_stack_value] $sp
	;DEBUG_VALUE: find_first_greater_than:table <- $x21
	;DEBUG_VALUE: find_first_greater_than:operand <- $x19
	;DEBUG_VALUE: emulate_AMX_GENLUT:table <- $x21
	;DEBUG_VALUE: emulate_AMX_GENLUT:mode <- $x26
	;DEBUG_VALUE: emulate_AMX_GENLUT:state <- $x20
	;DEBUG_VALUE: emulate_AMX_GENLUT:operand <- $x19
	;DEBUG_VALUE: v <- 5
	.loc	2 19 13                         ; genlut.c:19:13
	ldr	s2, [x21, #20]
Ltmp86:
	.loc	2 19 13                         ; genlut.c:19:13
	fcmp	s2, s1
	b.le	LBB1_18
Ltmp87:
; %bb.17:                               ;   in Loop: Header=BB1_7 Depth=1
	;DEBUG_VALUE: v <- 5
	;DEBUG_VALUE: i <- $x8
	;DEBUG_VALUE: find_first_greater_than:mode <- $w26
	;DEBUG_VALUE: find_first_greater_than:vs <- [DW_OP_plus_uconst 72, DW_OP_stack_value] $sp
	;DEBUG_VALUE: find_first_greater_than:xy <- [DW_OP_plus_uconst 8, DW_OP_stack_value] $sp
	;DEBUG_VALUE: find_first_greater_than:table <- $x21
	;DEBUG_VALUE: find_first_greater_than:operand <- $x19
	;DEBUG_VALUE: emulate_AMX_GENLUT:table <- $x21
	;DEBUG_VALUE: emulate_AMX_GENLUT:mode <- $x26
	;DEBUG_VALUE: emulate_AMX_GENLUT:state <- $x20
	;DEBUG_VALUE: emulate_AMX_GENLUT:operand <- $x19
	.loc	2 0 13                          ; genlut.c:0:13
	mov	w11, #4
	b	LBB1_6
Ltmp88:
LBB1_18:                                ;   in Loop: Header=BB1_7 Depth=1
	;DEBUG_VALUE: v <- 5
	;DEBUG_VALUE: i <- $x8
	;DEBUG_VALUE: find_first_greater_than:mode <- $w26
	;DEBUG_VALUE: find_first_greater_than:vs <- [DW_OP_plus_uconst 72, DW_OP_stack_value] $sp
	;DEBUG_VALUE: find_first_greater_than:xy <- [DW_OP_plus_uconst 8, DW_OP_stack_value] $sp
	;DEBUG_VALUE: find_first_greater_than:table <- $x21
	;DEBUG_VALUE: find_first_greater_than:operand <- $x19
	;DEBUG_VALUE: emulate_AMX_GENLUT:table <- $x21
	;DEBUG_VALUE: emulate_AMX_GENLUT:mode <- $x26
	;DEBUG_VALUE: emulate_AMX_GENLUT:state <- $x20
	;DEBUG_VALUE: emulate_AMX_GENLUT:operand <- $x19
	;DEBUG_VALUE: v <- 6
	.loc	2 19 13                         ; genlut.c:19:13
	ldr	s2, [x21, #24]
Ltmp89:
	.loc	2 19 13                         ; genlut.c:19:13
	fcmp	s2, s1
	b.le	LBB1_20
Ltmp90:
; %bb.19:                               ;   in Loop: Header=BB1_7 Depth=1
	;DEBUG_VALUE: v <- 6
	;DEBUG_VALUE: i <- $x8
	;DEBUG_VALUE: find_first_greater_than:mode <- $w26
	;DEBUG_VALUE: find_first_greater_than:vs <- [DW_OP_plus_uconst 72, DW_OP_stack_value] $sp
	;DEBUG_VALUE: find_first_greater_than:xy <- [DW_OP_plus_uconst 8, DW_OP_stack_value] $sp
	;DEBUG_VALUE: find_first_greater_than:table <- $x21
	;DEBUG_VALUE: find_first_greater_than:operand <- $x19
	;DEBUG_VALUE: emulate_AMX_GENLUT:table <- $x21
	;DEBUG_VALUE: emulate_AMX_GENLUT:mode <- $x26
	;DEBUG_VALUE: emulate_AMX_GENLUT:state <- $x20
	;DEBUG_VALUE: emulate_AMX_GENLUT:operand <- $x19
	.loc	2 0 13                          ; genlut.c:0:13
	mov	w11, #5
	b	LBB1_6
Ltmp91:
LBB1_20:                                ;   in Loop: Header=BB1_7 Depth=1
	;DEBUG_VALUE: v <- 6
	;DEBUG_VALUE: i <- $x8
	;DEBUG_VALUE: find_first_greater_than:mode <- $w26
	;DEBUG_VALUE: find_first_greater_than:vs <- [DW_OP_plus_uconst 72, DW_OP_stack_value] $sp
	;DEBUG_VALUE: find_first_greater_than:xy <- [DW_OP_plus_uconst 8, DW_OP_stack_value] $sp
	;DEBUG_VALUE: find_first_greater_than:table <- $x21
	;DEBUG_VALUE: find_first_greater_than:operand <- $x19
	;DEBUG_VALUE: emulate_AMX_GENLUT:table <- $x21
	;DEBUG_VALUE: emulate_AMX_GENLUT:mode <- $x26
	;DEBUG_VALUE: emulate_AMX_GENLUT:state <- $x20
	;DEBUG_VALUE: emulate_AMX_GENLUT:operand <- $x19
	;DEBUG_VALUE: v <- 7
	.loc	2 19 13                         ; genlut.c:19:13
	ldr	s2, [x21, #28]
Ltmp92:
	.loc	2 19 13                         ; genlut.c:19:13
	fcmp	s2, s1
	b.le	LBB1_22
Ltmp93:
; %bb.21:                               ;   in Loop: Header=BB1_7 Depth=1
	;DEBUG_VALUE: v <- 7
	;DEBUG_VALUE: i <- $x8
	;DEBUG_VALUE: find_first_greater_than:mode <- $w26
	;DEBUG_VALUE: find_first_greater_than:vs <- [DW_OP_plus_uconst 72, DW_OP_stack_value] $sp
	;DEBUG_VALUE: find_first_greater_than:xy <- [DW_OP_plus_uconst 8, DW_OP_stack_value] $sp
	;DEBUG_VALUE: find_first_greater_than:table <- $x21
	;DEBUG_VALUE: find_first_greater_than:operand <- $x19
	;DEBUG_VALUE: emulate_AMX_GENLUT:table <- $x21
	;DEBUG_VALUE: emulate_AMX_GENLUT:mode <- $x26
	;DEBUG_VALUE: emulate_AMX_GENLUT:state <- $x20
	;DEBUG_VALUE: emulate_AMX_GENLUT:operand <- $x19
	.loc	2 0 13                          ; genlut.c:0:13
	mov	w11, #6
	b	LBB1_6
Ltmp94:
LBB1_22:                                ;   in Loop: Header=BB1_7 Depth=1
	;DEBUG_VALUE: v <- 7
	;DEBUG_VALUE: i <- $x8
	;DEBUG_VALUE: find_first_greater_than:mode <- $w26
	;DEBUG_VALUE: find_first_greater_than:vs <- [DW_OP_plus_uconst 72, DW_OP_stack_value] $sp
	;DEBUG_VALUE: find_first_greater_than:xy <- [DW_OP_plus_uconst 8, DW_OP_stack_value] $sp
	;DEBUG_VALUE: find_first_greater_than:table <- $x21
	;DEBUG_VALUE: find_first_greater_than:operand <- $x19
	;DEBUG_VALUE: emulate_AMX_GENLUT:table <- $x21
	;DEBUG_VALUE: emulate_AMX_GENLUT:mode <- $x26
	;DEBUG_VALUE: emulate_AMX_GENLUT:state <- $x20
	;DEBUG_VALUE: emulate_AMX_GENLUT:operand <- $x19
	;DEBUG_VALUE: v <- 8
	.loc	2 19 13                         ; genlut.c:19:13
	ldr	s2, [x21, #32]
Ltmp95:
	.loc	2 19 13                         ; genlut.c:19:13
	fcmp	s2, s1
	b.le	LBB1_24
Ltmp96:
; %bb.23:                               ;   in Loop: Header=BB1_7 Depth=1
	;DEBUG_VALUE: v <- 8
	;DEBUG_VALUE: i <- $x8
	;DEBUG_VALUE: find_first_greater_than:mode <- $w26
	;DEBUG_VALUE: find_first_greater_than:vs <- [DW_OP_plus_uconst 72, DW_OP_stack_value] $sp
	;DEBUG_VALUE: find_first_greater_than:xy <- [DW_OP_plus_uconst 8, DW_OP_stack_value] $sp
	;DEBUG_VALUE: find_first_greater_than:table <- $x21
	;DEBUG_VALUE: find_first_greater_than:operand <- $x19
	;DEBUG_VALUE: emulate_AMX_GENLUT:table <- $x21
	;DEBUG_VALUE: emulate_AMX_GENLUT:mode <- $x26
	;DEBUG_VALUE: emulate_AMX_GENLUT:state <- $x20
	;DEBUG_VALUE: emulate_AMX_GENLUT:operand <- $x19
	.loc	2 0 13                          ; genlut.c:0:13
	mov	w11, #7
	b	LBB1_6
Ltmp97:
LBB1_24:                                ;   in Loop: Header=BB1_7 Depth=1
	;DEBUG_VALUE: v <- 8
	;DEBUG_VALUE: i <- $x8
	;DEBUG_VALUE: find_first_greater_than:mode <- $w26
	;DEBUG_VALUE: find_first_greater_than:vs <- [DW_OP_plus_uconst 72, DW_OP_stack_value] $sp
	;DEBUG_VALUE: find_first_greater_than:xy <- [DW_OP_plus_uconst 8, DW_OP_stack_value] $sp
	;DEBUG_VALUE: find_first_greater_than:table <- $x21
	;DEBUG_VALUE: find_first_greater_than:operand <- $x19
	;DEBUG_VALUE: emulate_AMX_GENLUT:table <- $x21
	;DEBUG_VALUE: emulate_AMX_GENLUT:mode <- $x26
	;DEBUG_VALUE: emulate_AMX_GENLUT:state <- $x20
	;DEBUG_VALUE: emulate_AMX_GENLUT:operand <- $x19
	;DEBUG_VALUE: v <- 9
	.loc	2 19 13                         ; genlut.c:19:13
	ldr	s2, [x21, #36]
Ltmp98:
	.loc	2 19 13                         ; genlut.c:19:13
	fcmp	s2, s1
	b.le	LBB1_26
Ltmp99:
; %bb.25:                               ;   in Loop: Header=BB1_7 Depth=1
	;DEBUG_VALUE: v <- 9
	;DEBUG_VALUE: i <- $x8
	;DEBUG_VALUE: find_first_greater_than:mode <- $w26
	;DEBUG_VALUE: find_first_greater_than:vs <- [DW_OP_plus_uconst 72, DW_OP_stack_value] $sp
	;DEBUG_VALUE: find_first_greater_than:xy <- [DW_OP_plus_uconst 8, DW_OP_stack_value] $sp
	;DEBUG_VALUE: find_first_greater_than:table <- $x21
	;DEBUG_VALUE: find_first_greater_than:operand <- $x19
	;DEBUG_VALUE: emulate_AMX_GENLUT:table <- $x21
	;DEBUG_VALUE: emulate_AMX_GENLUT:mode <- $x26
	;DEBUG_VALUE: emulate_AMX_GENLUT:state <- $x20
	;DEBUG_VALUE: emulate_AMX_GENLUT:operand <- $x19
	.loc	2 0 13                          ; genlut.c:0:13
	mov	w11, #8
	b	LBB1_6
Ltmp100:
LBB1_26:                                ;   in Loop: Header=BB1_7 Depth=1
	;DEBUG_VALUE: v <- 9
	;DEBUG_VALUE: i <- $x8
	;DEBUG_VALUE: find_first_greater_than:mode <- $w26
	;DEBUG_VALUE: find_first_greater_than:vs <- [DW_OP_plus_uconst 72, DW_OP_stack_value] $sp
	;DEBUG_VALUE: find_first_greater_than:xy <- [DW_OP_plus_uconst 8, DW_OP_stack_value] $sp
	;DEBUG_VALUE: find_first_greater_than:table <- $x21
	;DEBUG_VALUE: find_first_greater_than:operand <- $x19
	;DEBUG_VALUE: emulate_AMX_GENLUT:table <- $x21
	;DEBUG_VALUE: emulate_AMX_GENLUT:mode <- $x26
	;DEBUG_VALUE: emulate_AMX_GENLUT:state <- $x20
	;DEBUG_VALUE: emulate_AMX_GENLUT:operand <- $x19
	;DEBUG_VALUE: v <- 10
	.loc	2 19 13                         ; genlut.c:19:13
	ldr	s2, [x21, #40]
Ltmp101:
	.loc	2 19 13                         ; genlut.c:19:13
	fcmp	s2, s1
	b.le	LBB1_28
Ltmp102:
; %bb.27:                               ;   in Loop: Header=BB1_7 Depth=1
	;DEBUG_VALUE: v <- 10
	;DEBUG_VALUE: i <- $x8
	;DEBUG_VALUE: find_first_greater_than:mode <- $w26
	;DEBUG_VALUE: find_first_greater_than:vs <- [DW_OP_plus_uconst 72, DW_OP_stack_value] $sp
	;DEBUG_VALUE: find_first_greater_than:xy <- [DW_OP_plus_uconst 8, DW_OP_stack_value] $sp
	;DEBUG_VALUE: find_first_greater_than:table <- $x21
	;DEBUG_VALUE: find_first_greater_than:operand <- $x19
	;DEBUG_VALUE: emulate_AMX_GENLUT:table <- $x21
	;DEBUG_VALUE: emulate_AMX_GENLUT:mode <- $x26
	;DEBUG_VALUE: emulate_AMX_GENLUT:state <- $x20
	;DEBUG_VALUE: emulate_AMX_GENLUT:operand <- $x19
	.loc	2 0 13                          ; genlut.c:0:13
	mov	w11, #9
	b	LBB1_6
Ltmp103:
LBB1_28:                                ;   in Loop: Header=BB1_7 Depth=1
	;DEBUG_VALUE: v <- 10
	;DEBUG_VALUE: i <- $x8
	;DEBUG_VALUE: find_first_greater_than:mode <- $w26
	;DEBUG_VALUE: find_first_greater_than:vs <- [DW_OP_plus_uconst 72, DW_OP_stack_value] $sp
	;DEBUG_VALUE: find_first_greater_than:xy <- [DW_OP_plus_uconst 8, DW_OP_stack_value] $sp
	;DEBUG_VALUE: find_first_greater_than:table <- $x21
	;DEBUG_VALUE: find_first_greater_than:operand <- $x19
	;DEBUG_VALUE: emulate_AMX_GENLUT:table <- $x21
	;DEBUG_VALUE: emulate_AMX_GENLUT:mode <- $x26
	;DEBUG_VALUE: emulate_AMX_GENLUT:state <- $x20
	;DEBUG_VALUE: emulate_AMX_GENLUT:operand <- $x19
	;DEBUG_VALUE: v <- 11
	.loc	2 19 13                         ; genlut.c:19:13
	ldr	s2, [x21, #44]
Ltmp104:
	.loc	2 19 13                         ; genlut.c:19:13
	fcmp	s2, s1
	b.le	LBB1_30
Ltmp105:
; %bb.29:                               ;   in Loop: Header=BB1_7 Depth=1
	;DEBUG_VALUE: v <- 11
	;DEBUG_VALUE: i <- $x8
	;DEBUG_VALUE: find_first_greater_than:mode <- $w26
	;DEBUG_VALUE: find_first_greater_than:vs <- [DW_OP_plus_uconst 72, DW_OP_stack_value] $sp
	;DEBUG_VALUE: find_first_greater_than:xy <- [DW_OP_plus_uconst 8, DW_OP_stack_value] $sp
	;DEBUG_VALUE: find_first_greater_than:table <- $x21
	;DEBUG_VALUE: find_first_greater_than:operand <- $x19
	;DEBUG_VALUE: emulate_AMX_GENLUT:table <- $x21
	;DEBUG_VALUE: emulate_AMX_GENLUT:mode <- $x26
	;DEBUG_VALUE: emulate_AMX_GENLUT:state <- $x20
	;DEBUG_VALUE: emulate_AMX_GENLUT:operand <- $x19
	.loc	2 0 13                          ; genlut.c:0:13
	mov	w11, #10
	b	LBB1_6
Ltmp106:
LBB1_30:                                ;   in Loop: Header=BB1_7 Depth=1
	;DEBUG_VALUE: v <- 11
	;DEBUG_VALUE: i <- $x8
	;DEBUG_VALUE: find_first_greater_than:mode <- $w26
	;DEBUG_VALUE: find_first_greater_than:vs <- [DW_OP_plus_uconst 72, DW_OP_stack_value] $sp
	;DEBUG_VALUE: find_first_greater_than:xy <- [DW_OP_plus_uconst 8, DW_OP_stack_value] $sp
	;DEBUG_VALUE: find_first_greater_than:table <- $x21
	;DEBUG_VALUE: find_first_greater_than:operand <- $x19
	;DEBUG_VALUE: emulate_AMX_GENLUT:table <- $x21
	;DEBUG_VALUE: emulate_AMX_GENLUT:mode <- $x26
	;DEBUG_VALUE: emulate_AMX_GENLUT:state <- $x20
	;DEBUG_VALUE: emulate_AMX_GENLUT:operand <- $x19
	;DEBUG_VALUE: v <- 12
	.loc	2 19 13                         ; genlut.c:19:13
	ldr	s2, [x21, #48]
Ltmp107:
	.loc	2 19 13                         ; genlut.c:19:13
	fcmp	s2, s1
	b.le	LBB1_32
Ltmp108:
; %bb.31:                               ;   in Loop: Header=BB1_7 Depth=1
	;DEBUG_VALUE: v <- 12
	;DEBUG_VALUE: i <- $x8
	;DEBUG_VALUE: find_first_greater_than:mode <- $w26
	;DEBUG_VALUE: find_first_greater_than:vs <- [DW_OP_plus_uconst 72, DW_OP_stack_value] $sp
	;DEBUG_VALUE: find_first_greater_than:xy <- [DW_OP_plus_uconst 8, DW_OP_stack_value] $sp
	;DEBUG_VALUE: find_first_greater_than:table <- $x21
	;DEBUG_VALUE: find_first_greater_than:operand <- $x19
	;DEBUG_VALUE: emulate_AMX_GENLUT:table <- $x21
	;DEBUG_VALUE: emulate_AMX_GENLUT:mode <- $x26
	;DEBUG_VALUE: emulate_AMX_GENLUT:state <- $x20
	;DEBUG_VALUE: emulate_AMX_GENLUT:operand <- $x19
	.loc	2 0 13                          ; genlut.c:0:13
	mov	w11, #11
	b	LBB1_6
Ltmp109:
LBB1_32:                                ;   in Loop: Header=BB1_7 Depth=1
	;DEBUG_VALUE: v <- 12
	;DEBUG_VALUE: i <- $x8
	;DEBUG_VALUE: find_first_greater_than:mode <- $w26
	;DEBUG_VALUE: find_first_greater_than:vs <- [DW_OP_plus_uconst 72, DW_OP_stack_value] $sp
	;DEBUG_VALUE: find_first_greater_than:xy <- [DW_OP_plus_uconst 8, DW_OP_stack_value] $sp
	;DEBUG_VALUE: find_first_greater_than:table <- $x21
	;DEBUG_VALUE: find_first_greater_than:operand <- $x19
	;DEBUG_VALUE: emulate_AMX_GENLUT:table <- $x21
	;DEBUG_VALUE: emulate_AMX_GENLUT:mode <- $x26
	;DEBUG_VALUE: emulate_AMX_GENLUT:state <- $x20
	;DEBUG_VALUE: emulate_AMX_GENLUT:operand <- $x19
	;DEBUG_VALUE: v <- 13
	.loc	2 19 13                         ; genlut.c:19:13
	ldr	s2, [x21, #52]
Ltmp110:
	.loc	2 19 13                         ; genlut.c:19:13
	fcmp	s2, s1
	b.le	LBB1_34
Ltmp111:
; %bb.33:                               ;   in Loop: Header=BB1_7 Depth=1
	;DEBUG_VALUE: v <- 13
	;DEBUG_VALUE: i <- $x8
	;DEBUG_VALUE: find_first_greater_than:mode <- $w26
	;DEBUG_VALUE: find_first_greater_than:vs <- [DW_OP_plus_uconst 72, DW_OP_stack_value] $sp
	;DEBUG_VALUE: find_first_greater_than:xy <- [DW_OP_plus_uconst 8, DW_OP_stack_value] $sp
	;DEBUG_VALUE: find_first_greater_than:table <- $x21
	;DEBUG_VALUE: find_first_greater_than:operand <- $x19
	;DEBUG_VALUE: emulate_AMX_GENLUT:table <- $x21
	;DEBUG_VALUE: emulate_AMX_GENLUT:mode <- $x26
	;DEBUG_VALUE: emulate_AMX_GENLUT:state <- $x20
	;DEBUG_VALUE: emulate_AMX_GENLUT:operand <- $x19
	.loc	2 0 13                          ; genlut.c:0:13
	mov	w11, #12
	b	LBB1_6
Ltmp112:
LBB1_34:                                ;   in Loop: Header=BB1_7 Depth=1
	;DEBUG_VALUE: v <- 13
	;DEBUG_VALUE: i <- $x8
	;DEBUG_VALUE: find_first_greater_than:mode <- $w26
	;DEBUG_VALUE: find_first_greater_than:vs <- [DW_OP_plus_uconst 72, DW_OP_stack_value] $sp
	;DEBUG_VALUE: find_first_greater_than:xy <- [DW_OP_plus_uconst 8, DW_OP_stack_value] $sp
	;DEBUG_VALUE: find_first_greater_than:table <- $x21
	;DEBUG_VALUE: find_first_greater_than:operand <- $x19
	;DEBUG_VALUE: emulate_AMX_GENLUT:table <- $x21
	;DEBUG_VALUE: emulate_AMX_GENLUT:mode <- $x26
	;DEBUG_VALUE: emulate_AMX_GENLUT:state <- $x20
	;DEBUG_VALUE: emulate_AMX_GENLUT:operand <- $x19
	;DEBUG_VALUE: v <- 14
	.loc	2 19 13                         ; genlut.c:19:13
	ldr	s2, [x21, #56]
Ltmp113:
	.loc	2 19 13                         ; genlut.c:19:13
	fcmp	s2, s1
	b.le	LBB1_36
Ltmp114:
; %bb.35:                               ;   in Loop: Header=BB1_7 Depth=1
	;DEBUG_VALUE: v <- 14
	;DEBUG_VALUE: i <- $x8
	;DEBUG_VALUE: find_first_greater_than:mode <- $w26
	;DEBUG_VALUE: find_first_greater_than:vs <- [DW_OP_plus_uconst 72, DW_OP_stack_value] $sp
	;DEBUG_VALUE: find_first_greater_than:xy <- [DW_OP_plus_uconst 8, DW_OP_stack_value] $sp
	;DEBUG_VALUE: find_first_greater_than:table <- $x21
	;DEBUG_VALUE: find_first_greater_than:operand <- $x19
	;DEBUG_VALUE: emulate_AMX_GENLUT:table <- $x21
	;DEBUG_VALUE: emulate_AMX_GENLUT:mode <- $x26
	;DEBUG_VALUE: emulate_AMX_GENLUT:state <- $x20
	;DEBUG_VALUE: emulate_AMX_GENLUT:operand <- $x19
	.loc	2 0 13                          ; genlut.c:0:13
	mov	w11, #13
	b	LBB1_6
Ltmp115:
LBB1_36:                                ;   in Loop: Header=BB1_7 Depth=1
	;DEBUG_VALUE: v <- 14
	;DEBUG_VALUE: i <- $x8
	;DEBUG_VALUE: find_first_greater_than:mode <- $w26
	;DEBUG_VALUE: find_first_greater_than:vs <- [DW_OP_plus_uconst 72, DW_OP_stack_value] $sp
	;DEBUG_VALUE: find_first_greater_than:xy <- [DW_OP_plus_uconst 8, DW_OP_stack_value] $sp
	;DEBUG_VALUE: find_first_greater_than:table <- $x21
	;DEBUG_VALUE: find_first_greater_than:operand <- $x19
	;DEBUG_VALUE: emulate_AMX_GENLUT:table <- $x21
	;DEBUG_VALUE: emulate_AMX_GENLUT:mode <- $x26
	;DEBUG_VALUE: emulate_AMX_GENLUT:state <- $x20
	;DEBUG_VALUE: emulate_AMX_GENLUT:operand <- $x19
	;DEBUG_VALUE: v <- 15
	.loc	2 19 13                         ; genlut.c:19:13
	ldr	s2, [x21, #60]
Ltmp116:
	.loc	2 19 13                         ; genlut.c:19:13
	fcmp	s2, s1
	b.le	LBB1_38
Ltmp117:
; %bb.37:                               ;   in Loop: Header=BB1_7 Depth=1
	;DEBUG_VALUE: v <- 15
	;DEBUG_VALUE: i <- $x8
	;DEBUG_VALUE: find_first_greater_than:mode <- $w26
	;DEBUG_VALUE: find_first_greater_than:vs <- [DW_OP_plus_uconst 72, DW_OP_stack_value] $sp
	;DEBUG_VALUE: find_first_greater_than:xy <- [DW_OP_plus_uconst 8, DW_OP_stack_value] $sp
	;DEBUG_VALUE: find_first_greater_than:table <- $x21
	;DEBUG_VALUE: find_first_greater_than:operand <- $x19
	;DEBUG_VALUE: emulate_AMX_GENLUT:table <- $x21
	;DEBUG_VALUE: emulate_AMX_GENLUT:mode <- $x26
	;DEBUG_VALUE: emulate_AMX_GENLUT:state <- $x20
	;DEBUG_VALUE: emulate_AMX_GENLUT:operand <- $x19
	.loc	2 0 13                          ; genlut.c:0:13
	mov	w11, #14
	b	LBB1_6
Ltmp118:
LBB1_38:                                ;   in Loop: Header=BB1_7 Depth=1
	;DEBUG_VALUE: v <- 15
	;DEBUG_VALUE: i <- $x8
	;DEBUG_VALUE: find_first_greater_than:mode <- $w26
	;DEBUG_VALUE: find_first_greater_than:vs <- [DW_OP_plus_uconst 72, DW_OP_stack_value] $sp
	;DEBUG_VALUE: find_first_greater_than:xy <- [DW_OP_plus_uconst 8, DW_OP_stack_value] $sp
	;DEBUG_VALUE: find_first_greater_than:table <- $x21
	;DEBUG_VALUE: find_first_greater_than:operand <- $x19
	;DEBUG_VALUE: emulate_AMX_GENLUT:table <- $x21
	;DEBUG_VALUE: emulate_AMX_GENLUT:mode <- $x26
	;DEBUG_VALUE: emulate_AMX_GENLUT:state <- $x20
	;DEBUG_VALUE: emulate_AMX_GENLUT:operand <- $x19
	mov	w11, #15
	;DEBUG_VALUE: v <- 16
	b	LBB1_6
Ltmp119:
LBB1_39:
	;DEBUG_VALUE: load_xy_reg:dst <- [DW_OP_plus_uconst 8, DW_OP_stack_value] $sp
	;DEBUG_VALUE: emulate_AMX_GENLUT:table <- $x21
	;DEBUG_VALUE: emulate_AMX_GENLUT:mode <- $x26
	;DEBUG_VALUE: emulate_AMX_GENLUT:state <- $x20
	;DEBUG_VALUE: emulate_AMX_GENLUT:operand <- $x19
	mov	w2, #5
	b	LBB1_43
Ltmp120:
LBB1_40:
	;DEBUG_VALUE: load_xy_reg:dst <- [DW_OP_plus_uconst 8, DW_OP_stack_value] $sp
	;DEBUG_VALUE: emulate_AMX_GENLUT:table <- $x21
	;DEBUG_VALUE: emulate_AMX_GENLUT:mode <- $x26
	;DEBUG_VALUE: emulate_AMX_GENLUT:state <- $x20
	;DEBUG_VALUE: emulate_AMX_GENLUT:operand <- $x19
	mov	w2, #4
	mov	w3, #64
Ltmp121:
	;DEBUG_VALUE: emulate_AMX_GENLUT:ebits <- 64
	;DEBUG_VALUE: emulate_AMX_GENLUT:ibits <- 4
	b	LBB1_66
Ltmp122:
LBB1_41:
	;DEBUG_VALUE: load_xy_reg:dst <- [DW_OP_plus_uconst 8, DW_OP_stack_value] $sp
	;DEBUG_VALUE: emulate_AMX_GENLUT:table <- $x21
	;DEBUG_VALUE: emulate_AMX_GENLUT:mode <- $x26
	;DEBUG_VALUE: emulate_AMX_GENLUT:state <- $x20
	;DEBUG_VALUE: emulate_AMX_GENLUT:operand <- $x19
	mov	w2, #4
	b	LBB1_43
Ltmp123:
LBB1_42:
	;DEBUG_VALUE: load_xy_reg:dst <- [DW_OP_plus_uconst 8, DW_OP_stack_value] $sp
	;DEBUG_VALUE: emulate_AMX_GENLUT:table <- $x21
	;DEBUG_VALUE: emulate_AMX_GENLUT:mode <- $x26
	;DEBUG_VALUE: emulate_AMX_GENLUT:state <- $x20
	;DEBUG_VALUE: emulate_AMX_GENLUT:operand <- $x19
	mov	w2, #2
Ltmp124:
LBB1_43:
	;DEBUG_VALUE: load_xy_reg:dst <- [DW_OP_plus_uconst 8, DW_OP_stack_value] $sp
	;DEBUG_VALUE: emulate_AMX_GENLUT:table <- $x21
	;DEBUG_VALUE: emulate_AMX_GENLUT:mode <- $x26
	;DEBUG_VALUE: emulate_AMX_GENLUT:state <- $x20
	;DEBUG_VALUE: emulate_AMX_GENLUT:operand <- $x19
	mov	w3, #16
Ltmp125:
	;DEBUG_VALUE: emulate_AMX_GENLUT:ebits <- 16
	;DEBUG_VALUE: emulate_AMX_GENLUT:ibits <- 2
	b	LBB1_66
Ltmp126:
LBB1_44:
	;DEBUG_VALUE: load_xy_reg:dst <- [DW_OP_plus_uconst 8, DW_OP_stack_value] $sp
	;DEBUG_VALUE: emulate_AMX_GENLUT:table <- $x21
	;DEBUG_VALUE: emulate_AMX_GENLUT:mode <- $x26
	;DEBUG_VALUE: emulate_AMX_GENLUT:state <- $x20
	;DEBUG_VALUE: emulate_AMX_GENLUT:operand <- $x19
	mov	w2, #5
	b	LBB1_65
Ltmp127:
LBB1_45:
	;DEBUG_VALUE: load_xy_reg:dst <- [DW_OP_plus_uconst 8, DW_OP_stack_value] $sp
	;DEBUG_VALUE: emulate_AMX_GENLUT:table <- $x21
	;DEBUG_VALUE: emulate_AMX_GENLUT:mode <- $x26
	;DEBUG_VALUE: emulate_AMX_GENLUT:state <- $x20
	;DEBUG_VALUE: emulate_AMX_GENLUT:operand <- $x19
	mov	w2, #4
	b	LBB1_65
Ltmp128:
LBB1_46:
	;DEBUG_VALUE: load_xy_reg:dst <- [DW_OP_plus_uconst 8, DW_OP_stack_value] $sp
	;DEBUG_VALUE: emulate_AMX_GENLUT:table <- $x21
	;DEBUG_VALUE: emulate_AMX_GENLUT:mode <- $x26
	;DEBUG_VALUE: emulate_AMX_GENLUT:state <- $x20
	;DEBUG_VALUE: emulate_AMX_GENLUT:operand <- $x19
	;DEBUG_VALUE: emulate_AMX_GENLUT:ibits <- 4
	;DEBUG_VALUE: emulate_AMX_GENLUT:ebits <- 64
	mov	w22, #64
	mov	w23, #4
Ltmp129:
	;DEBUG_VALUE: find_first_greater_than:operand <- $x19
	;DEBUG_VALUE: find_first_greater_than:table <- $x21
	;DEBUG_VALUE: find_first_greater_than:xy <- [DW_OP_plus_uconst 8, DW_OP_stack_value] $sp
	;DEBUG_VALUE: find_first_greater_than:vs <- [DW_OP_plus_uconst 72, DW_OP_stack_value] $sp
LBB1_47:
	;DEBUG_VALUE: find_first_greater_than:vs <- [DW_OP_plus_uconst 72, DW_OP_stack_value] $sp
	;DEBUG_VALUE: find_first_greater_than:xy <- [DW_OP_plus_uconst 8, DW_OP_stack_value] $sp
	;DEBUG_VALUE: find_first_greater_than:table <- $x21
	;DEBUG_VALUE: find_first_greater_than:operand <- $x19
	;DEBUG_VALUE: emulate_AMX_GENLUT:table <- $x21
	;DEBUG_VALUE: emulate_AMX_GENLUT:mode <- $x26
	;DEBUG_VALUE: emulate_AMX_GENLUT:state <- $x20
	;DEBUG_VALUE: emulate_AMX_GENLUT:operand <- $x19
	mov	x8, #0
	ldr	d0, [x21]
	add	x9, sp, #8
	add	x10, sp, #72
	mov	w11, #6
	mov	w12, #7
	b	LBB1_50
Ltmp130:
LBB1_48:                                ;   in Loop: Header=BB1_50 Depth=1
	;DEBUG_VALUE: i <- $x8
	;DEBUG_VALUE: v <- 0
	;DEBUG_VALUE: find_first_greater_than:vs <- [DW_OP_plus_uconst 72, DW_OP_stack_value] $sp
	;DEBUG_VALUE: find_first_greater_than:xy <- [DW_OP_plus_uconst 8, DW_OP_stack_value] $sp
	;DEBUG_VALUE: find_first_greater_than:table <- $x21
	;DEBUG_VALUE: find_first_greater_than:operand <- $x19
	;DEBUG_VALUE: emulate_AMX_GENLUT:table <- $x21
	;DEBUG_VALUE: emulate_AMX_GENLUT:mode <- $x26
	;DEBUG_VALUE: emulate_AMX_GENLUT:state <- $x20
	;DEBUG_VALUE: emulate_AMX_GENLUT:operand <- $x19
	mov	w13, #255
Ltmp131:
LBB1_49:                                ;   in Loop: Header=BB1_50 Depth=1
	;DEBUG_VALUE: i <- $x8
	;DEBUG_VALUE: find_first_greater_than:vs <- [DW_OP_plus_uconst 72, DW_OP_stack_value] $sp
	;DEBUG_VALUE: find_first_greater_than:xy <- [DW_OP_plus_uconst 8, DW_OP_stack_value] $sp
	;DEBUG_VALUE: find_first_greater_than:table <- $x21
	;DEBUG_VALUE: find_first_greater_than:operand <- $x19
	;DEBUG_VALUE: emulate_AMX_GENLUT:table <- $x21
	;DEBUG_VALUE: emulate_AMX_GENLUT:mode <- $x26
	;DEBUG_VALUE: emulate_AMX_GENLUT:state <- $x20
	;DEBUG_VALUE: emulate_AMX_GENLUT:operand <- $x19
	.loc	2 21 13 is_stmt 1               ; genlut.c:21:13
	strb	w13, [x10, x8]
Ltmp132:
	.loc	2 21 13 is_stmt 0               ; genlut.c:21:13
	add	x8, x8, #1
Ltmp133:
	;DEBUG_VALUE: i <- $x8
	.loc	2 21 13                         ; genlut.c:21:13
	cmp	x8, #8
	b.eq	LBB1_337
Ltmp134:
LBB1_50:                                ; =>This Inner Loop Header: Depth=1
	;DEBUG_VALUE: find_first_greater_than:vs <- [DW_OP_plus_uconst 72, DW_OP_stack_value] $sp
	;DEBUG_VALUE: find_first_greater_than:xy <- [DW_OP_plus_uconst 8, DW_OP_stack_value] $sp
	;DEBUG_VALUE: find_first_greater_than:table <- $x21
	;DEBUG_VALUE: find_first_greater_than:operand <- $x19
	;DEBUG_VALUE: emulate_AMX_GENLUT:table <- $x21
	;DEBUG_VALUE: emulate_AMX_GENLUT:mode <- $x26
	;DEBUG_VALUE: emulate_AMX_GENLUT:state <- $x20
	;DEBUG_VALUE: emulate_AMX_GENLUT:operand <- $x19
	.loc	2 0 13                          ; genlut.c:0:13
	ldr	d1, [x9, x8, lsl #3]
Ltmp135:
	;DEBUG_VALUE: v <- 0
	;DEBUG_VALUE: i <- $x8
	.loc	2 21 13                         ; genlut.c:21:13
	fcmp	d0, d1
	b.gt	LBB1_48
Ltmp136:
; %bb.51:                               ;   in Loop: Header=BB1_50 Depth=1
	;DEBUG_VALUE: i <- $x8
	;DEBUG_VALUE: v <- 0
	;DEBUG_VALUE: find_first_greater_than:vs <- [DW_OP_plus_uconst 72, DW_OP_stack_value] $sp
	;DEBUG_VALUE: find_first_greater_than:xy <- [DW_OP_plus_uconst 8, DW_OP_stack_value] $sp
	;DEBUG_VALUE: find_first_greater_than:table <- $x21
	;DEBUG_VALUE: find_first_greater_than:operand <- $x19
	;DEBUG_VALUE: emulate_AMX_GENLUT:table <- $x21
	;DEBUG_VALUE: emulate_AMX_GENLUT:mode <- $x26
	;DEBUG_VALUE: emulate_AMX_GENLUT:state <- $x20
	;DEBUG_VALUE: emulate_AMX_GENLUT:operand <- $x19
	;DEBUG_VALUE: v <- 1
	.loc	2 21 13                         ; genlut.c:21:13
	ldr	d2, [x21, #8]
Ltmp137:
	.loc	2 21 13                         ; genlut.c:21:13
	fcmp	d2, d1
	b.le	LBB1_53
Ltmp138:
; %bb.52:                               ;   in Loop: Header=BB1_50 Depth=1
	;DEBUG_VALUE: v <- 1
	;DEBUG_VALUE: i <- $x8
	;DEBUG_VALUE: find_first_greater_than:vs <- [DW_OP_plus_uconst 72, DW_OP_stack_value] $sp
	;DEBUG_VALUE: find_first_greater_than:xy <- [DW_OP_plus_uconst 8, DW_OP_stack_value] $sp
	;DEBUG_VALUE: find_first_greater_than:table <- $x21
	;DEBUG_VALUE: find_first_greater_than:operand <- $x19
	;DEBUG_VALUE: emulate_AMX_GENLUT:table <- $x21
	;DEBUG_VALUE: emulate_AMX_GENLUT:mode <- $x26
	;DEBUG_VALUE: emulate_AMX_GENLUT:state <- $x20
	;DEBUG_VALUE: emulate_AMX_GENLUT:operand <- $x19
	.loc	2 0 13                          ; genlut.c:0:13
	mov	w13, #0
	b	LBB1_49
Ltmp139:
LBB1_53:                                ;   in Loop: Header=BB1_50 Depth=1
	;DEBUG_VALUE: v <- 1
	;DEBUG_VALUE: i <- $x8
	;DEBUG_VALUE: find_first_greater_than:vs <- [DW_OP_plus_uconst 72, DW_OP_stack_value] $sp
	;DEBUG_VALUE: find_first_greater_than:xy <- [DW_OP_plus_uconst 8, DW_OP_stack_value] $sp
	;DEBUG_VALUE: find_first_greater_than:table <- $x21
	;DEBUG_VALUE: find_first_greater_than:operand <- $x19
	;DEBUG_VALUE: emulate_AMX_GENLUT:table <- $x21
	;DEBUG_VALUE: emulate_AMX_GENLUT:mode <- $x26
	;DEBUG_VALUE: emulate_AMX_GENLUT:state <- $x20
	;DEBUG_VALUE: emulate_AMX_GENLUT:operand <- $x19
	;DEBUG_VALUE: v <- 2
	.loc	2 21 13                         ; genlut.c:21:13
	ldr	d2, [x21, #16]
Ltmp140:
	.loc	2 21 13                         ; genlut.c:21:13
	fcmp	d2, d1
	b.le	LBB1_55
Ltmp141:
; %bb.54:                               ;   in Loop: Header=BB1_50 Depth=1
	;DEBUG_VALUE: v <- 2
	;DEBUG_VALUE: i <- $x8
	;DEBUG_VALUE: find_first_greater_than:vs <- [DW_OP_plus_uconst 72, DW_OP_stack_value] $sp
	;DEBUG_VALUE: find_first_greater_than:xy <- [DW_OP_plus_uconst 8, DW_OP_stack_value] $sp
	;DEBUG_VALUE: find_first_greater_than:table <- $x21
	;DEBUG_VALUE: find_first_greater_than:operand <- $x19
	;DEBUG_VALUE: emulate_AMX_GENLUT:table <- $x21
	;DEBUG_VALUE: emulate_AMX_GENLUT:mode <- $x26
	;DEBUG_VALUE: emulate_AMX_GENLUT:state <- $x20
	;DEBUG_VALUE: emulate_AMX_GENLUT:operand <- $x19
	.loc	2 0 13                          ; genlut.c:0:13
	mov	w13, #1
	b	LBB1_49
Ltmp142:
LBB1_55:                                ;   in Loop: Header=BB1_50 Depth=1
	;DEBUG_VALUE: v <- 2
	;DEBUG_VALUE: i <- $x8
	;DEBUG_VALUE: find_first_greater_than:vs <- [DW_OP_plus_uconst 72, DW_OP_stack_value] $sp
	;DEBUG_VALUE: find_first_greater_than:xy <- [DW_OP_plus_uconst 8, DW_OP_stack_value] $sp
	;DEBUG_VALUE: find_first_greater_than:table <- $x21
	;DEBUG_VALUE: find_first_greater_than:operand <- $x19
	;DEBUG_VALUE: emulate_AMX_GENLUT:table <- $x21
	;DEBUG_VALUE: emulate_AMX_GENLUT:mode <- $x26
	;DEBUG_VALUE: emulate_AMX_GENLUT:state <- $x20
	;DEBUG_VALUE: emulate_AMX_GENLUT:operand <- $x19
	;DEBUG_VALUE: v <- 3
	.loc	2 21 13                         ; genlut.c:21:13
	ldr	d2, [x21, #24]
Ltmp143:
	.loc	2 21 13                         ; genlut.c:21:13
	fcmp	d2, d1
	b.le	LBB1_57
Ltmp144:
; %bb.56:                               ;   in Loop: Header=BB1_50 Depth=1
	;DEBUG_VALUE: v <- 3
	;DEBUG_VALUE: i <- $x8
	;DEBUG_VALUE: find_first_greater_than:vs <- [DW_OP_plus_uconst 72, DW_OP_stack_value] $sp
	;DEBUG_VALUE: find_first_greater_than:xy <- [DW_OP_plus_uconst 8, DW_OP_stack_value] $sp
	;DEBUG_VALUE: find_first_greater_than:table <- $x21
	;DEBUG_VALUE: find_first_greater_than:operand <- $x19
	;DEBUG_VALUE: emulate_AMX_GENLUT:table <- $x21
	;DEBUG_VALUE: emulate_AMX_GENLUT:mode <- $x26
	;DEBUG_VALUE: emulate_AMX_GENLUT:state <- $x20
	;DEBUG_VALUE: emulate_AMX_GENLUT:operand <- $x19
	.loc	2 0 13                          ; genlut.c:0:13
	mov	w13, #2
	b	LBB1_49
Ltmp145:
LBB1_57:                                ;   in Loop: Header=BB1_50 Depth=1
	;DEBUG_VALUE: v <- 3
	;DEBUG_VALUE: i <- $x8
	;DEBUG_VALUE: find_first_greater_than:vs <- [DW_OP_plus_uconst 72, DW_OP_stack_value] $sp
	;DEBUG_VALUE: find_first_greater_than:xy <- [DW_OP_plus_uconst 8, DW_OP_stack_value] $sp
	;DEBUG_VALUE: find_first_greater_than:table <- $x21
	;DEBUG_VALUE: find_first_greater_than:operand <- $x19
	;DEBUG_VALUE: emulate_AMX_GENLUT:table <- $x21
	;DEBUG_VALUE: emulate_AMX_GENLUT:mode <- $x26
	;DEBUG_VALUE: emulate_AMX_GENLUT:state <- $x20
	;DEBUG_VALUE: emulate_AMX_GENLUT:operand <- $x19
	;DEBUG_VALUE: v <- 4
	.loc	2 21 13                         ; genlut.c:21:13
	ldr	d2, [x21, #32]
Ltmp146:
	.loc	2 21 13                         ; genlut.c:21:13
	fcmp	d2, d1
	b.le	LBB1_59
Ltmp147:
; %bb.58:                               ;   in Loop: Header=BB1_50 Depth=1
	;DEBUG_VALUE: v <- 4
	;DEBUG_VALUE: i <- $x8
	;DEBUG_VALUE: find_first_greater_than:vs <- [DW_OP_plus_uconst 72, DW_OP_stack_value] $sp
	;DEBUG_VALUE: find_first_greater_than:xy <- [DW_OP_plus_uconst 8, DW_OP_stack_value] $sp
	;DEBUG_VALUE: find_first_greater_than:table <- $x21
	;DEBUG_VALUE: find_first_greater_than:operand <- $x19
	;DEBUG_VALUE: emulate_AMX_GENLUT:table <- $x21
	;DEBUG_VALUE: emulate_AMX_GENLUT:mode <- $x26
	;DEBUG_VALUE: emulate_AMX_GENLUT:state <- $x20
	;DEBUG_VALUE: emulate_AMX_GENLUT:operand <- $x19
	.loc	2 0 13                          ; genlut.c:0:13
	mov	w13, #3
	b	LBB1_49
Ltmp148:
LBB1_59:                                ;   in Loop: Header=BB1_50 Depth=1
	;DEBUG_VALUE: v <- 4
	;DEBUG_VALUE: i <- $x8
	;DEBUG_VALUE: find_first_greater_than:vs <- [DW_OP_plus_uconst 72, DW_OP_stack_value] $sp
	;DEBUG_VALUE: find_first_greater_than:xy <- [DW_OP_plus_uconst 8, DW_OP_stack_value] $sp
	;DEBUG_VALUE: find_first_greater_than:table <- $x21
	;DEBUG_VALUE: find_first_greater_than:operand <- $x19
	;DEBUG_VALUE: emulate_AMX_GENLUT:table <- $x21
	;DEBUG_VALUE: emulate_AMX_GENLUT:mode <- $x26
	;DEBUG_VALUE: emulate_AMX_GENLUT:state <- $x20
	;DEBUG_VALUE: emulate_AMX_GENLUT:operand <- $x19
	;DEBUG_VALUE: v <- 5
	.loc	2 21 13                         ; genlut.c:21:13
	ldr	d2, [x21, #40]
Ltmp149:
	.loc	2 21 13                         ; genlut.c:21:13
	fcmp	d2, d1
	b.le	LBB1_61
Ltmp150:
; %bb.60:                               ;   in Loop: Header=BB1_50 Depth=1
	;DEBUG_VALUE: v <- 5
	;DEBUG_VALUE: i <- $x8
	;DEBUG_VALUE: find_first_greater_than:vs <- [DW_OP_plus_uconst 72, DW_OP_stack_value] $sp
	;DEBUG_VALUE: find_first_greater_than:xy <- [DW_OP_plus_uconst 8, DW_OP_stack_value] $sp
	;DEBUG_VALUE: find_first_greater_than:table <- $x21
	;DEBUG_VALUE: find_first_greater_than:operand <- $x19
	;DEBUG_VALUE: emulate_AMX_GENLUT:table <- $x21
	;DEBUG_VALUE: emulate_AMX_GENLUT:mode <- $x26
	;DEBUG_VALUE: emulate_AMX_GENLUT:state <- $x20
	;DEBUG_VALUE: emulate_AMX_GENLUT:operand <- $x19
	.loc	2 0 13                          ; genlut.c:0:13
	mov	w13, #4
	b	LBB1_49
Ltmp151:
LBB1_61:                                ;   in Loop: Header=BB1_50 Depth=1
	;DEBUG_VALUE: v <- 5
	;DEBUG_VALUE: i <- $x8
	;DEBUG_VALUE: find_first_greater_than:vs <- [DW_OP_plus_uconst 72, DW_OP_stack_value] $sp
	;DEBUG_VALUE: find_first_greater_than:xy <- [DW_OP_plus_uconst 8, DW_OP_stack_value] $sp
	;DEBUG_VALUE: find_first_greater_than:table <- $x21
	;DEBUG_VALUE: find_first_greater_than:operand <- $x19
	;DEBUG_VALUE: emulate_AMX_GENLUT:table <- $x21
	;DEBUG_VALUE: emulate_AMX_GENLUT:mode <- $x26
	;DEBUG_VALUE: emulate_AMX_GENLUT:state <- $x20
	;DEBUG_VALUE: emulate_AMX_GENLUT:operand <- $x19
	;DEBUG_VALUE: v <- 6
	.loc	2 21 13                         ; genlut.c:21:13
	ldr	d2, [x21, #48]
Ltmp152:
	.loc	2 21 13                         ; genlut.c:21:13
	fcmp	d2, d1
	b.le	LBB1_63
Ltmp153:
; %bb.62:                               ;   in Loop: Header=BB1_50 Depth=1
	;DEBUG_VALUE: v <- 6
	;DEBUG_VALUE: i <- $x8
	;DEBUG_VALUE: find_first_greater_than:vs <- [DW_OP_plus_uconst 72, DW_OP_stack_value] $sp
	;DEBUG_VALUE: find_first_greater_than:xy <- [DW_OP_plus_uconst 8, DW_OP_stack_value] $sp
	;DEBUG_VALUE: find_first_greater_than:table <- $x21
	;DEBUG_VALUE: find_first_greater_than:operand <- $x19
	;DEBUG_VALUE: emulate_AMX_GENLUT:table <- $x21
	;DEBUG_VALUE: emulate_AMX_GENLUT:mode <- $x26
	;DEBUG_VALUE: emulate_AMX_GENLUT:state <- $x20
	;DEBUG_VALUE: emulate_AMX_GENLUT:operand <- $x19
	.loc	2 0 13                          ; genlut.c:0:13
	mov	w13, #5
	b	LBB1_49
Ltmp154:
LBB1_63:                                ;   in Loop: Header=BB1_50 Depth=1
	;DEBUG_VALUE: v <- 6
	;DEBUG_VALUE: i <- $x8
	;DEBUG_VALUE: find_first_greater_than:vs <- [DW_OP_plus_uconst 72, DW_OP_stack_value] $sp
	;DEBUG_VALUE: find_first_greater_than:xy <- [DW_OP_plus_uconst 8, DW_OP_stack_value] $sp
	;DEBUG_VALUE: find_first_greater_than:table <- $x21
	;DEBUG_VALUE: find_first_greater_than:operand <- $x19
	;DEBUG_VALUE: emulate_AMX_GENLUT:table <- $x21
	;DEBUG_VALUE: emulate_AMX_GENLUT:mode <- $x26
	;DEBUG_VALUE: emulate_AMX_GENLUT:state <- $x20
	;DEBUG_VALUE: emulate_AMX_GENLUT:operand <- $x19
	;DEBUG_VALUE: v <- 7
	.loc	2 21 13                         ; genlut.c:21:13
	ldr	d2, [x21, #56]
Ltmp155:
	.loc	2 21 13                         ; genlut.c:21:13
	fcmp	d2, d1
Ltmp156:
	;DEBUG_VALUE: v <- 8
	csel	w13, w11, w12, gt
	b	LBB1_49
Ltmp157:
LBB1_64:
	;DEBUG_VALUE: load_xy_reg:dst <- [DW_OP_plus_uconst 8, DW_OP_stack_value] $sp
	;DEBUG_VALUE: emulate_AMX_GENLUT:table <- $x21
	;DEBUG_VALUE: emulate_AMX_GENLUT:mode <- $x26
	;DEBUG_VALUE: emulate_AMX_GENLUT:state <- $x20
	;DEBUG_VALUE: emulate_AMX_GENLUT:operand <- $x19
	.loc	2 0 13                          ; genlut.c:0:13
	mov	w2, #2
Ltmp158:
LBB1_65:
	;DEBUG_VALUE: load_xy_reg:dst <- [DW_OP_plus_uconst 8, DW_OP_stack_value] $sp
	;DEBUG_VALUE: emulate_AMX_GENLUT:table <- $x21
	;DEBUG_VALUE: emulate_AMX_GENLUT:mode <- $x26
	;DEBUG_VALUE: emulate_AMX_GENLUT:state <- $x20
	;DEBUG_VALUE: emulate_AMX_GENLUT:operand <- $x19
	mov	w3, #8
Ltmp159:
	;DEBUG_VALUE: emulate_AMX_GENLUT:ebits <- 8
	;DEBUG_VALUE: emulate_AMX_GENLUT:ibits <- 2
LBB1_66:
	;DEBUG_VALUE: emulate_AMX_GENLUT:table <- $x21
	;DEBUG_VALUE: emulate_AMX_GENLUT:mode <- $x26
	;DEBUG_VALUE: emulate_AMX_GENLUT:state <- $x20
	;DEBUG_VALUE: emulate_AMX_GENLUT:operand <- $x19
	.loc	2 96 9 is_stmt 1                ; genlut.c:96:9
	add	x0, sp, #8
	mov	x1, x21
	bl	_load_xy_reg_indexed
Ltmp160:
	.loc	2 0 9 is_stmt 0                 ; genlut.c:0:9
	b	LBB1_342
Ltmp161:
LBB1_67:
	;DEBUG_VALUE: find_first_greater_than:mode <- $w26
	;DEBUG_VALUE: find_first_greater_than:vs <- [DW_OP_plus_uconst 72, DW_OP_stack_value] $sp
	;DEBUG_VALUE: find_first_greater_than:xy <- [DW_OP_plus_uconst 8, DW_OP_stack_value] $sp
	;DEBUG_VALUE: find_first_greater_than:table <- $x21
	;DEBUG_VALUE: find_first_greater_than:operand <- $x19
	;DEBUG_VALUE: emulate_AMX_GENLUT:table <- $x21
	;DEBUG_VALUE: emulate_AMX_GENLUT:mode <- $x26
	;DEBUG_VALUE: emulate_AMX_GENLUT:state <- $x20
	;DEBUG_VALUE: emulate_AMX_GENLUT:operand <- $x19
	mov	x8, #0
	ldrsh	w9, [x21]
	add	x10, sp, #8
	add	x11, sp, #72
	mov	w12, #30
	b	LBB1_70
Ltmp162:
LBB1_68:                                ;   in Loop: Header=BB1_70 Depth=1
	;DEBUG_VALUE: i <- $x8
	;DEBUG_VALUE: v <- 0
	;DEBUG_VALUE: find_first_greater_than:mode <- $w26
	;DEBUG_VALUE: find_first_greater_than:vs <- [DW_OP_plus_uconst 72, DW_OP_stack_value] $sp
	;DEBUG_VALUE: find_first_greater_than:xy <- [DW_OP_plus_uconst 8, DW_OP_stack_value] $sp
	;DEBUG_VALUE: find_first_greater_than:table <- $x21
	;DEBUG_VALUE: find_first_greater_than:operand <- $x19
	;DEBUG_VALUE: emulate_AMX_GENLUT:table <- $x21
	;DEBUG_VALUE: emulate_AMX_GENLUT:mode <- $x26
	;DEBUG_VALUE: emulate_AMX_GENLUT:state <- $x20
	;DEBUG_VALUE: emulate_AMX_GENLUT:operand <- $x19
	mov	w13, #255
Ltmp163:
LBB1_69:                                ;   in Loop: Header=BB1_70 Depth=1
	;DEBUG_VALUE: i <- $x8
	;DEBUG_VALUE: find_first_greater_than:mode <- $w26
	;DEBUG_VALUE: find_first_greater_than:vs <- [DW_OP_plus_uconst 72, DW_OP_stack_value] $sp
	;DEBUG_VALUE: find_first_greater_than:xy <- [DW_OP_plus_uconst 8, DW_OP_stack_value] $sp
	;DEBUG_VALUE: find_first_greater_than:table <- $x21
	;DEBUG_VALUE: find_first_greater_than:operand <- $x19
	;DEBUG_VALUE: emulate_AMX_GENLUT:table <- $x21
	;DEBUG_VALUE: emulate_AMX_GENLUT:mode <- $x26
	;DEBUG_VALUE: emulate_AMX_GENLUT:state <- $x20
	;DEBUG_VALUE: emulate_AMX_GENLUT:operand <- $x19
	.loc	2 23 13 is_stmt 1               ; genlut.c:23:13
	strb	w13, [x11, x8]
Ltmp164:
	.loc	2 23 13 is_stmt 0               ; genlut.c:23:13
	add	x8, x8, #1
Ltmp165:
	;DEBUG_VALUE: i <- $x8
	.loc	2 23 13                         ; genlut.c:23:13
	cmp	x8, #32
	b.eq	LBB1_337
Ltmp166:
LBB1_70:                                ; =>This Inner Loop Header: Depth=1
	;DEBUG_VALUE: find_first_greater_than:mode <- $w26
	;DEBUG_VALUE: find_first_greater_than:vs <- [DW_OP_plus_uconst 72, DW_OP_stack_value] $sp
	;DEBUG_VALUE: find_first_greater_than:xy <- [DW_OP_plus_uconst 8, DW_OP_stack_value] $sp
	;DEBUG_VALUE: find_first_greater_than:table <- $x21
	;DEBUG_VALUE: find_first_greater_than:operand <- $x19
	;DEBUG_VALUE: emulate_AMX_GENLUT:table <- $x21
	;DEBUG_VALUE: emulate_AMX_GENLUT:mode <- $x26
	;DEBUG_VALUE: emulate_AMX_GENLUT:state <- $x20
	;DEBUG_VALUE: emulate_AMX_GENLUT:operand <- $x19
	.loc	2 0 13                          ; genlut.c:0:13
	ldrsh	w13, [x10, x8, lsl #1]
Ltmp167:
	;DEBUG_VALUE: v <- 0
	;DEBUG_VALUE: i <- $x8
	.loc	2 23 13                         ; genlut.c:23:13
	cmp	w9, w13
	b.gt	LBB1_68
Ltmp168:
; %bb.71:                               ;   in Loop: Header=BB1_70 Depth=1
	;DEBUG_VALUE: i <- $x8
	;DEBUG_VALUE: v <- 0
	;DEBUG_VALUE: find_first_greater_than:mode <- $w26
	;DEBUG_VALUE: find_first_greater_than:vs <- [DW_OP_plus_uconst 72, DW_OP_stack_value] $sp
	;DEBUG_VALUE: find_first_greater_than:xy <- [DW_OP_plus_uconst 8, DW_OP_stack_value] $sp
	;DEBUG_VALUE: find_first_greater_than:table <- $x21
	;DEBUG_VALUE: find_first_greater_than:operand <- $x19
	;DEBUG_VALUE: emulate_AMX_GENLUT:table <- $x21
	;DEBUG_VALUE: emulate_AMX_GENLUT:mode <- $x26
	;DEBUG_VALUE: emulate_AMX_GENLUT:state <- $x20
	;DEBUG_VALUE: emulate_AMX_GENLUT:operand <- $x19
	;DEBUG_VALUE: v <- 1
	.loc	2 23 13                         ; genlut.c:23:13
	ldrsh	w14, [x21, #2]
Ltmp169:
	.loc	2 23 13                         ; genlut.c:23:13
	cmp	w14, w13
	b.le	LBB1_73
Ltmp170:
; %bb.72:                               ;   in Loop: Header=BB1_70 Depth=1
	;DEBUG_VALUE: v <- 1
	;DEBUG_VALUE: i <- $x8
	;DEBUG_VALUE: find_first_greater_than:mode <- $w26
	;DEBUG_VALUE: find_first_greater_than:vs <- [DW_OP_plus_uconst 72, DW_OP_stack_value] $sp
	;DEBUG_VALUE: find_first_greater_than:xy <- [DW_OP_plus_uconst 8, DW_OP_stack_value] $sp
	;DEBUG_VALUE: find_first_greater_than:table <- $x21
	;DEBUG_VALUE: find_first_greater_than:operand <- $x19
	;DEBUG_VALUE: emulate_AMX_GENLUT:table <- $x21
	;DEBUG_VALUE: emulate_AMX_GENLUT:mode <- $x26
	;DEBUG_VALUE: emulate_AMX_GENLUT:state <- $x20
	;DEBUG_VALUE: emulate_AMX_GENLUT:operand <- $x19
	.loc	2 0 13                          ; genlut.c:0:13
	mov	w13, #0
	b	LBB1_69
Ltmp171:
LBB1_73:                                ;   in Loop: Header=BB1_70 Depth=1
	;DEBUG_VALUE: v <- 1
	;DEBUG_VALUE: i <- $x8
	;DEBUG_VALUE: find_first_greater_than:mode <- $w26
	;DEBUG_VALUE: find_first_greater_than:vs <- [DW_OP_plus_uconst 72, DW_OP_stack_value] $sp
	;DEBUG_VALUE: find_first_greater_than:xy <- [DW_OP_plus_uconst 8, DW_OP_stack_value] $sp
	;DEBUG_VALUE: find_first_greater_than:table <- $x21
	;DEBUG_VALUE: find_first_greater_than:operand <- $x19
	;DEBUG_VALUE: emulate_AMX_GENLUT:table <- $x21
	;DEBUG_VALUE: emulate_AMX_GENLUT:mode <- $x26
	;DEBUG_VALUE: emulate_AMX_GENLUT:state <- $x20
	;DEBUG_VALUE: emulate_AMX_GENLUT:operand <- $x19
	;DEBUG_VALUE: v <- 2
	.loc	2 23 13                         ; genlut.c:23:13
	ldrsh	w14, [x21, #4]
Ltmp172:
	.loc	2 23 13                         ; genlut.c:23:13
	cmp	w14, w13
	b.le	LBB1_75
Ltmp173:
; %bb.74:                               ;   in Loop: Header=BB1_70 Depth=1
	;DEBUG_VALUE: v <- 2
	;DEBUG_VALUE: i <- $x8
	;DEBUG_VALUE: find_first_greater_than:mode <- $w26
	;DEBUG_VALUE: find_first_greater_than:vs <- [DW_OP_plus_uconst 72, DW_OP_stack_value] $sp
	;DEBUG_VALUE: find_first_greater_than:xy <- [DW_OP_plus_uconst 8, DW_OP_stack_value] $sp
	;DEBUG_VALUE: find_first_greater_than:table <- $x21
	;DEBUG_VALUE: find_first_greater_than:operand <- $x19
	;DEBUG_VALUE: emulate_AMX_GENLUT:table <- $x21
	;DEBUG_VALUE: emulate_AMX_GENLUT:mode <- $x26
	;DEBUG_VALUE: emulate_AMX_GENLUT:state <- $x20
	;DEBUG_VALUE: emulate_AMX_GENLUT:operand <- $x19
	.loc	2 0 13                          ; genlut.c:0:13
	mov	w13, #1
	b	LBB1_69
Ltmp174:
LBB1_75:                                ;   in Loop: Header=BB1_70 Depth=1
	;DEBUG_VALUE: v <- 2
	;DEBUG_VALUE: i <- $x8
	;DEBUG_VALUE: find_first_greater_than:mode <- $w26
	;DEBUG_VALUE: find_first_greater_than:vs <- [DW_OP_plus_uconst 72, DW_OP_stack_value] $sp
	;DEBUG_VALUE: find_first_greater_than:xy <- [DW_OP_plus_uconst 8, DW_OP_stack_value] $sp
	;DEBUG_VALUE: find_first_greater_than:table <- $x21
	;DEBUG_VALUE: find_first_greater_than:operand <- $x19
	;DEBUG_VALUE: emulate_AMX_GENLUT:table <- $x21
	;DEBUG_VALUE: emulate_AMX_GENLUT:mode <- $x26
	;DEBUG_VALUE: emulate_AMX_GENLUT:state <- $x20
	;DEBUG_VALUE: emulate_AMX_GENLUT:operand <- $x19
	;DEBUG_VALUE: v <- 3
	.loc	2 23 13                         ; genlut.c:23:13
	ldrsh	w14, [x21, #6]
Ltmp175:
	.loc	2 23 13                         ; genlut.c:23:13
	cmp	w14, w13
	b.le	LBB1_77
Ltmp176:
; %bb.76:                               ;   in Loop: Header=BB1_70 Depth=1
	;DEBUG_VALUE: v <- 3
	;DEBUG_VALUE: i <- $x8
	;DEBUG_VALUE: find_first_greater_than:mode <- $w26
	;DEBUG_VALUE: find_first_greater_than:vs <- [DW_OP_plus_uconst 72, DW_OP_stack_value] $sp
	;DEBUG_VALUE: find_first_greater_than:xy <- [DW_OP_plus_uconst 8, DW_OP_stack_value] $sp
	;DEBUG_VALUE: find_first_greater_than:table <- $x21
	;DEBUG_VALUE: find_first_greater_than:operand <- $x19
	;DEBUG_VALUE: emulate_AMX_GENLUT:table <- $x21
	;DEBUG_VALUE: emulate_AMX_GENLUT:mode <- $x26
	;DEBUG_VALUE: emulate_AMX_GENLUT:state <- $x20
	;DEBUG_VALUE: emulate_AMX_GENLUT:operand <- $x19
	.loc	2 0 13                          ; genlut.c:0:13
	mov	w13, #2
	b	LBB1_69
Ltmp177:
LBB1_77:                                ;   in Loop: Header=BB1_70 Depth=1
	;DEBUG_VALUE: v <- 3
	;DEBUG_VALUE: i <- $x8
	;DEBUG_VALUE: find_first_greater_than:mode <- $w26
	;DEBUG_VALUE: find_first_greater_than:vs <- [DW_OP_plus_uconst 72, DW_OP_stack_value] $sp
	;DEBUG_VALUE: find_first_greater_than:xy <- [DW_OP_plus_uconst 8, DW_OP_stack_value] $sp
	;DEBUG_VALUE: find_first_greater_than:table <- $x21
	;DEBUG_VALUE: find_first_greater_than:operand <- $x19
	;DEBUG_VALUE: emulate_AMX_GENLUT:table <- $x21
	;DEBUG_VALUE: emulate_AMX_GENLUT:mode <- $x26
	;DEBUG_VALUE: emulate_AMX_GENLUT:state <- $x20
	;DEBUG_VALUE: emulate_AMX_GENLUT:operand <- $x19
	;DEBUG_VALUE: v <- 4
	.loc	2 23 13                         ; genlut.c:23:13
	ldrsh	w14, [x21, #8]
Ltmp178:
	.loc	2 23 13                         ; genlut.c:23:13
	cmp	w14, w13
	b.le	LBB1_79
Ltmp179:
; %bb.78:                               ;   in Loop: Header=BB1_70 Depth=1
	;DEBUG_VALUE: v <- 4
	;DEBUG_VALUE: i <- $x8
	;DEBUG_VALUE: find_first_greater_than:mode <- $w26
	;DEBUG_VALUE: find_first_greater_than:vs <- [DW_OP_plus_uconst 72, DW_OP_stack_value] $sp
	;DEBUG_VALUE: find_first_greater_than:xy <- [DW_OP_plus_uconst 8, DW_OP_stack_value] $sp
	;DEBUG_VALUE: find_first_greater_than:table <- $x21
	;DEBUG_VALUE: find_first_greater_than:operand <- $x19
	;DEBUG_VALUE: emulate_AMX_GENLUT:table <- $x21
	;DEBUG_VALUE: emulate_AMX_GENLUT:mode <- $x26
	;DEBUG_VALUE: emulate_AMX_GENLUT:state <- $x20
	;DEBUG_VALUE: emulate_AMX_GENLUT:operand <- $x19
	.loc	2 0 13                          ; genlut.c:0:13
	mov	w13, #3
	b	LBB1_69
Ltmp180:
LBB1_79:                                ;   in Loop: Header=BB1_70 Depth=1
	;DEBUG_VALUE: v <- 4
	;DEBUG_VALUE: i <- $x8
	;DEBUG_VALUE: find_first_greater_than:mode <- $w26
	;DEBUG_VALUE: find_first_greater_than:vs <- [DW_OP_plus_uconst 72, DW_OP_stack_value] $sp
	;DEBUG_VALUE: find_first_greater_than:xy <- [DW_OP_plus_uconst 8, DW_OP_stack_value] $sp
	;DEBUG_VALUE: find_first_greater_than:table <- $x21
	;DEBUG_VALUE: find_first_greater_than:operand <- $x19
	;DEBUG_VALUE: emulate_AMX_GENLUT:table <- $x21
	;DEBUG_VALUE: emulate_AMX_GENLUT:mode <- $x26
	;DEBUG_VALUE: emulate_AMX_GENLUT:state <- $x20
	;DEBUG_VALUE: emulate_AMX_GENLUT:operand <- $x19
	;DEBUG_VALUE: v <- 5
	.loc	2 23 13                         ; genlut.c:23:13
	ldrsh	w14, [x21, #10]
Ltmp181:
	.loc	2 23 13                         ; genlut.c:23:13
	cmp	w14, w13
	b.le	LBB1_81
Ltmp182:
; %bb.80:                               ;   in Loop: Header=BB1_70 Depth=1
	;DEBUG_VALUE: v <- 5
	;DEBUG_VALUE: i <- $x8
	;DEBUG_VALUE: find_first_greater_than:mode <- $w26
	;DEBUG_VALUE: find_first_greater_than:vs <- [DW_OP_plus_uconst 72, DW_OP_stack_value] $sp
	;DEBUG_VALUE: find_first_greater_than:xy <- [DW_OP_plus_uconst 8, DW_OP_stack_value] $sp
	;DEBUG_VALUE: find_first_greater_than:table <- $x21
	;DEBUG_VALUE: find_first_greater_than:operand <- $x19
	;DEBUG_VALUE: emulate_AMX_GENLUT:table <- $x21
	;DEBUG_VALUE: emulate_AMX_GENLUT:mode <- $x26
	;DEBUG_VALUE: emulate_AMX_GENLUT:state <- $x20
	;DEBUG_VALUE: emulate_AMX_GENLUT:operand <- $x19
	.loc	2 0 13                          ; genlut.c:0:13
	mov	w13, #4
	b	LBB1_69
Ltmp183:
LBB1_81:                                ;   in Loop: Header=BB1_70 Depth=1
	;DEBUG_VALUE: v <- 5
	;DEBUG_VALUE: i <- $x8
	;DEBUG_VALUE: find_first_greater_than:mode <- $w26
	;DEBUG_VALUE: find_first_greater_than:vs <- [DW_OP_plus_uconst 72, DW_OP_stack_value] $sp
	;DEBUG_VALUE: find_first_greater_than:xy <- [DW_OP_plus_uconst 8, DW_OP_stack_value] $sp
	;DEBUG_VALUE: find_first_greater_than:table <- $x21
	;DEBUG_VALUE: find_first_greater_than:operand <- $x19
	;DEBUG_VALUE: emulate_AMX_GENLUT:table <- $x21
	;DEBUG_VALUE: emulate_AMX_GENLUT:mode <- $x26
	;DEBUG_VALUE: emulate_AMX_GENLUT:state <- $x20
	;DEBUG_VALUE: emulate_AMX_GENLUT:operand <- $x19
	;DEBUG_VALUE: v <- 6
	.loc	2 23 13                         ; genlut.c:23:13
	ldrsh	w14, [x21, #12]
Ltmp184:
	.loc	2 23 13                         ; genlut.c:23:13
	cmp	w14, w13
	b.le	LBB1_83
Ltmp185:
; %bb.82:                               ;   in Loop: Header=BB1_70 Depth=1
	;DEBUG_VALUE: v <- 6
	;DEBUG_VALUE: i <- $x8
	;DEBUG_VALUE: find_first_greater_than:mode <- $w26
	;DEBUG_VALUE: find_first_greater_than:vs <- [DW_OP_plus_uconst 72, DW_OP_stack_value] $sp
	;DEBUG_VALUE: find_first_greater_than:xy <- [DW_OP_plus_uconst 8, DW_OP_stack_value] $sp
	;DEBUG_VALUE: find_first_greater_than:table <- $x21
	;DEBUG_VALUE: find_first_greater_than:operand <- $x19
	;DEBUG_VALUE: emulate_AMX_GENLUT:table <- $x21
	;DEBUG_VALUE: emulate_AMX_GENLUT:mode <- $x26
	;DEBUG_VALUE: emulate_AMX_GENLUT:state <- $x20
	;DEBUG_VALUE: emulate_AMX_GENLUT:operand <- $x19
	.loc	2 0 13                          ; genlut.c:0:13
	mov	w13, #5
	b	LBB1_69
Ltmp186:
LBB1_83:                                ;   in Loop: Header=BB1_70 Depth=1
	;DEBUG_VALUE: v <- 6
	;DEBUG_VALUE: i <- $x8
	;DEBUG_VALUE: find_first_greater_than:mode <- $w26
	;DEBUG_VALUE: find_first_greater_than:vs <- [DW_OP_plus_uconst 72, DW_OP_stack_value] $sp
	;DEBUG_VALUE: find_first_greater_than:xy <- [DW_OP_plus_uconst 8, DW_OP_stack_value] $sp
	;DEBUG_VALUE: find_first_greater_than:table <- $x21
	;DEBUG_VALUE: find_first_greater_than:operand <- $x19
	;DEBUG_VALUE: emulate_AMX_GENLUT:table <- $x21
	;DEBUG_VALUE: emulate_AMX_GENLUT:mode <- $x26
	;DEBUG_VALUE: emulate_AMX_GENLUT:state <- $x20
	;DEBUG_VALUE: emulate_AMX_GENLUT:operand <- $x19
	;DEBUG_VALUE: v <- 7
	.loc	2 23 13                         ; genlut.c:23:13
	ldrsh	w14, [x21, #14]
Ltmp187:
	.loc	2 23 13                         ; genlut.c:23:13
	cmp	w14, w13
	b.le	LBB1_85
Ltmp188:
; %bb.84:                               ;   in Loop: Header=BB1_70 Depth=1
	;DEBUG_VALUE: v <- 7
	;DEBUG_VALUE: i <- $x8
	;DEBUG_VALUE: find_first_greater_than:mode <- $w26
	;DEBUG_VALUE: find_first_greater_than:vs <- [DW_OP_plus_uconst 72, DW_OP_stack_value] $sp
	;DEBUG_VALUE: find_first_greater_than:xy <- [DW_OP_plus_uconst 8, DW_OP_stack_value] $sp
	;DEBUG_VALUE: find_first_greater_than:table <- $x21
	;DEBUG_VALUE: find_first_greater_than:operand <- $x19
	;DEBUG_VALUE: emulate_AMX_GENLUT:table <- $x21
	;DEBUG_VALUE: emulate_AMX_GENLUT:mode <- $x26
	;DEBUG_VALUE: emulate_AMX_GENLUT:state <- $x20
	;DEBUG_VALUE: emulate_AMX_GENLUT:operand <- $x19
	.loc	2 0 13                          ; genlut.c:0:13
	mov	w13, #6
	b	LBB1_69
Ltmp189:
LBB1_85:                                ;   in Loop: Header=BB1_70 Depth=1
	;DEBUG_VALUE: v <- 7
	;DEBUG_VALUE: i <- $x8
	;DEBUG_VALUE: find_first_greater_than:mode <- $w26
	;DEBUG_VALUE: find_first_greater_than:vs <- [DW_OP_plus_uconst 72, DW_OP_stack_value] $sp
	;DEBUG_VALUE: find_first_greater_than:xy <- [DW_OP_plus_uconst 8, DW_OP_stack_value] $sp
	;DEBUG_VALUE: find_first_greater_than:table <- $x21
	;DEBUG_VALUE: find_first_greater_than:operand <- $x19
	;DEBUG_VALUE: emulate_AMX_GENLUT:table <- $x21
	;DEBUG_VALUE: emulate_AMX_GENLUT:mode <- $x26
	;DEBUG_VALUE: emulate_AMX_GENLUT:state <- $x20
	;DEBUG_VALUE: emulate_AMX_GENLUT:operand <- $x19
	;DEBUG_VALUE: v <- 8
	.loc	2 23 13                         ; genlut.c:23:13
	ldrsh	w14, [x21, #16]
Ltmp190:
	.loc	2 23 13                         ; genlut.c:23:13
	cmp	w14, w13
	b.le	LBB1_87
Ltmp191:
; %bb.86:                               ;   in Loop: Header=BB1_70 Depth=1
	;DEBUG_VALUE: v <- 8
	;DEBUG_VALUE: i <- $x8
	;DEBUG_VALUE: find_first_greater_than:mode <- $w26
	;DEBUG_VALUE: find_first_greater_than:vs <- [DW_OP_plus_uconst 72, DW_OP_stack_value] $sp
	;DEBUG_VALUE: find_first_greater_than:xy <- [DW_OP_plus_uconst 8, DW_OP_stack_value] $sp
	;DEBUG_VALUE: find_first_greater_than:table <- $x21
	;DEBUG_VALUE: find_first_greater_than:operand <- $x19
	;DEBUG_VALUE: emulate_AMX_GENLUT:table <- $x21
	;DEBUG_VALUE: emulate_AMX_GENLUT:mode <- $x26
	;DEBUG_VALUE: emulate_AMX_GENLUT:state <- $x20
	;DEBUG_VALUE: emulate_AMX_GENLUT:operand <- $x19
	.loc	2 0 13                          ; genlut.c:0:13
	mov	w13, #7
	b	LBB1_69
Ltmp192:
LBB1_87:                                ;   in Loop: Header=BB1_70 Depth=1
	;DEBUG_VALUE: v <- 8
	;DEBUG_VALUE: i <- $x8
	;DEBUG_VALUE: find_first_greater_than:mode <- $w26
	;DEBUG_VALUE: find_first_greater_than:vs <- [DW_OP_plus_uconst 72, DW_OP_stack_value] $sp
	;DEBUG_VALUE: find_first_greater_than:xy <- [DW_OP_plus_uconst 8, DW_OP_stack_value] $sp
	;DEBUG_VALUE: find_first_greater_than:table <- $x21
	;DEBUG_VALUE: find_first_greater_than:operand <- $x19
	;DEBUG_VALUE: emulate_AMX_GENLUT:table <- $x21
	;DEBUG_VALUE: emulate_AMX_GENLUT:mode <- $x26
	;DEBUG_VALUE: emulate_AMX_GENLUT:state <- $x20
	;DEBUG_VALUE: emulate_AMX_GENLUT:operand <- $x19
	;DEBUG_VALUE: v <- 9
	.loc	2 23 13                         ; genlut.c:23:13
	ldrsh	w14, [x21, #18]
Ltmp193:
	.loc	2 23 13                         ; genlut.c:23:13
	cmp	w14, w13
	b.le	LBB1_89
Ltmp194:
; %bb.88:                               ;   in Loop: Header=BB1_70 Depth=1
	;DEBUG_VALUE: v <- 9
	;DEBUG_VALUE: i <- $x8
	;DEBUG_VALUE: find_first_greater_than:mode <- $w26
	;DEBUG_VALUE: find_first_greater_than:vs <- [DW_OP_plus_uconst 72, DW_OP_stack_value] $sp
	;DEBUG_VALUE: find_first_greater_than:xy <- [DW_OP_plus_uconst 8, DW_OP_stack_value] $sp
	;DEBUG_VALUE: find_first_greater_than:table <- $x21
	;DEBUG_VALUE: find_first_greater_than:operand <- $x19
	;DEBUG_VALUE: emulate_AMX_GENLUT:table <- $x21
	;DEBUG_VALUE: emulate_AMX_GENLUT:mode <- $x26
	;DEBUG_VALUE: emulate_AMX_GENLUT:state <- $x20
	;DEBUG_VALUE: emulate_AMX_GENLUT:operand <- $x19
	.loc	2 0 13                          ; genlut.c:0:13
	mov	w13, #8
	b	LBB1_69
Ltmp195:
LBB1_89:                                ;   in Loop: Header=BB1_70 Depth=1
	;DEBUG_VALUE: v <- 9
	;DEBUG_VALUE: i <- $x8
	;DEBUG_VALUE: find_first_greater_than:mode <- $w26
	;DEBUG_VALUE: find_first_greater_than:vs <- [DW_OP_plus_uconst 72, DW_OP_stack_value] $sp
	;DEBUG_VALUE: find_first_greater_than:xy <- [DW_OP_plus_uconst 8, DW_OP_stack_value] $sp
	;DEBUG_VALUE: find_first_greater_than:table <- $x21
	;DEBUG_VALUE: find_first_greater_than:operand <- $x19
	;DEBUG_VALUE: emulate_AMX_GENLUT:table <- $x21
	;DEBUG_VALUE: emulate_AMX_GENLUT:mode <- $x26
	;DEBUG_VALUE: emulate_AMX_GENLUT:state <- $x20
	;DEBUG_VALUE: emulate_AMX_GENLUT:operand <- $x19
	;DEBUG_VALUE: v <- 10
	.loc	2 23 13                         ; genlut.c:23:13
	ldrsh	w14, [x21, #20]
Ltmp196:
	.loc	2 23 13                         ; genlut.c:23:13
	cmp	w14, w13
	b.le	LBB1_91
Ltmp197:
; %bb.90:                               ;   in Loop: Header=BB1_70 Depth=1
	;DEBUG_VALUE: v <- 10
	;DEBUG_VALUE: i <- $x8
	;DEBUG_VALUE: find_first_greater_than:mode <- $w26
	;DEBUG_VALUE: find_first_greater_than:vs <- [DW_OP_plus_uconst 72, DW_OP_stack_value] $sp
	;DEBUG_VALUE: find_first_greater_than:xy <- [DW_OP_plus_uconst 8, DW_OP_stack_value] $sp
	;DEBUG_VALUE: find_first_greater_than:table <- $x21
	;DEBUG_VALUE: find_first_greater_than:operand <- $x19
	;DEBUG_VALUE: emulate_AMX_GENLUT:table <- $x21
	;DEBUG_VALUE: emulate_AMX_GENLUT:mode <- $x26
	;DEBUG_VALUE: emulate_AMX_GENLUT:state <- $x20
	;DEBUG_VALUE: emulate_AMX_GENLUT:operand <- $x19
	.loc	2 0 13                          ; genlut.c:0:13
	mov	w13, #9
	b	LBB1_69
Ltmp198:
LBB1_91:                                ;   in Loop: Header=BB1_70 Depth=1
	;DEBUG_VALUE: v <- 10
	;DEBUG_VALUE: i <- $x8
	;DEBUG_VALUE: find_first_greater_than:mode <- $w26
	;DEBUG_VALUE: find_first_greater_than:vs <- [DW_OP_plus_uconst 72, DW_OP_stack_value] $sp
	;DEBUG_VALUE: find_first_greater_than:xy <- [DW_OP_plus_uconst 8, DW_OP_stack_value] $sp
	;DEBUG_VALUE: find_first_greater_than:table <- $x21
	;DEBUG_VALUE: find_first_greater_than:operand <- $x19
	;DEBUG_VALUE: emulate_AMX_GENLUT:table <- $x21
	;DEBUG_VALUE: emulate_AMX_GENLUT:mode <- $x26
	;DEBUG_VALUE: emulate_AMX_GENLUT:state <- $x20
	;DEBUG_VALUE: emulate_AMX_GENLUT:operand <- $x19
	;DEBUG_VALUE: v <- 11
	.loc	2 23 13                         ; genlut.c:23:13
	ldrsh	w14, [x21, #22]
Ltmp199:
	.loc	2 23 13                         ; genlut.c:23:13
	cmp	w14, w13
	b.le	LBB1_93
Ltmp200:
; %bb.92:                               ;   in Loop: Header=BB1_70 Depth=1
	;DEBUG_VALUE: v <- 11
	;DEBUG_VALUE: i <- $x8
	;DEBUG_VALUE: find_first_greater_than:mode <- $w26
	;DEBUG_VALUE: find_first_greater_than:vs <- [DW_OP_plus_uconst 72, DW_OP_stack_value] $sp
	;DEBUG_VALUE: find_first_greater_than:xy <- [DW_OP_plus_uconst 8, DW_OP_stack_value] $sp
	;DEBUG_VALUE: find_first_greater_than:table <- $x21
	;DEBUG_VALUE: find_first_greater_than:operand <- $x19
	;DEBUG_VALUE: emulate_AMX_GENLUT:table <- $x21
	;DEBUG_VALUE: emulate_AMX_GENLUT:mode <- $x26
	;DEBUG_VALUE: emulate_AMX_GENLUT:state <- $x20
	;DEBUG_VALUE: emulate_AMX_GENLUT:operand <- $x19
	.loc	2 0 13                          ; genlut.c:0:13
	mov	w13, #10
	b	LBB1_69
Ltmp201:
LBB1_93:                                ;   in Loop: Header=BB1_70 Depth=1
	;DEBUG_VALUE: v <- 11
	;DEBUG_VALUE: i <- $x8
	;DEBUG_VALUE: find_first_greater_than:mode <- $w26
	;DEBUG_VALUE: find_first_greater_than:vs <- [DW_OP_plus_uconst 72, DW_OP_stack_value] $sp
	;DEBUG_VALUE: find_first_greater_than:xy <- [DW_OP_plus_uconst 8, DW_OP_stack_value] $sp
	;DEBUG_VALUE: find_first_greater_than:table <- $x21
	;DEBUG_VALUE: find_first_greater_than:operand <- $x19
	;DEBUG_VALUE: emulate_AMX_GENLUT:table <- $x21
	;DEBUG_VALUE: emulate_AMX_GENLUT:mode <- $x26
	;DEBUG_VALUE: emulate_AMX_GENLUT:state <- $x20
	;DEBUG_VALUE: emulate_AMX_GENLUT:operand <- $x19
	;DEBUG_VALUE: v <- 12
	.loc	2 23 13                         ; genlut.c:23:13
	ldrsh	w14, [x21, #24]
Ltmp202:
	.loc	2 23 13                         ; genlut.c:23:13
	cmp	w14, w13
	b.le	LBB1_95
Ltmp203:
; %bb.94:                               ;   in Loop: Header=BB1_70 Depth=1
	;DEBUG_VALUE: v <- 12
	;DEBUG_VALUE: i <- $x8
	;DEBUG_VALUE: find_first_greater_than:mode <- $w26
	;DEBUG_VALUE: find_first_greater_than:vs <- [DW_OP_plus_uconst 72, DW_OP_stack_value] $sp
	;DEBUG_VALUE: find_first_greater_than:xy <- [DW_OP_plus_uconst 8, DW_OP_stack_value] $sp
	;DEBUG_VALUE: find_first_greater_than:table <- $x21
	;DEBUG_VALUE: find_first_greater_than:operand <- $x19
	;DEBUG_VALUE: emulate_AMX_GENLUT:table <- $x21
	;DEBUG_VALUE: emulate_AMX_GENLUT:mode <- $x26
	;DEBUG_VALUE: emulate_AMX_GENLUT:state <- $x20
	;DEBUG_VALUE: emulate_AMX_GENLUT:operand <- $x19
	.loc	2 0 13                          ; genlut.c:0:13
	mov	w13, #11
	b	LBB1_69
Ltmp204:
LBB1_95:                                ;   in Loop: Header=BB1_70 Depth=1
	;DEBUG_VALUE: v <- 12
	;DEBUG_VALUE: i <- $x8
	;DEBUG_VALUE: find_first_greater_than:mode <- $w26
	;DEBUG_VALUE: find_first_greater_than:vs <- [DW_OP_plus_uconst 72, DW_OP_stack_value] $sp
	;DEBUG_VALUE: find_first_greater_than:xy <- [DW_OP_plus_uconst 8, DW_OP_stack_value] $sp
	;DEBUG_VALUE: find_first_greater_than:table <- $x21
	;DEBUG_VALUE: find_first_greater_than:operand <- $x19
	;DEBUG_VALUE: emulate_AMX_GENLUT:table <- $x21
	;DEBUG_VALUE: emulate_AMX_GENLUT:mode <- $x26
	;DEBUG_VALUE: emulate_AMX_GENLUT:state <- $x20
	;DEBUG_VALUE: emulate_AMX_GENLUT:operand <- $x19
	;DEBUG_VALUE: v <- 13
	.loc	2 23 13                         ; genlut.c:23:13
	ldrsh	w14, [x21, #26]
Ltmp205:
	.loc	2 23 13                         ; genlut.c:23:13
	cmp	w14, w13
	b.le	LBB1_97
Ltmp206:
; %bb.96:                               ;   in Loop: Header=BB1_70 Depth=1
	;DEBUG_VALUE: v <- 13
	;DEBUG_VALUE: i <- $x8
	;DEBUG_VALUE: find_first_greater_than:mode <- $w26
	;DEBUG_VALUE: find_first_greater_than:vs <- [DW_OP_plus_uconst 72, DW_OP_stack_value] $sp
	;DEBUG_VALUE: find_first_greater_than:xy <- [DW_OP_plus_uconst 8, DW_OP_stack_value] $sp
	;DEBUG_VALUE: find_first_greater_than:table <- $x21
	;DEBUG_VALUE: find_first_greater_than:operand <- $x19
	;DEBUG_VALUE: emulate_AMX_GENLUT:table <- $x21
	;DEBUG_VALUE: emulate_AMX_GENLUT:mode <- $x26
	;DEBUG_VALUE: emulate_AMX_GENLUT:state <- $x20
	;DEBUG_VALUE: emulate_AMX_GENLUT:operand <- $x19
	.loc	2 0 13                          ; genlut.c:0:13
	mov	w13, #12
	b	LBB1_69
Ltmp207:
LBB1_97:                                ;   in Loop: Header=BB1_70 Depth=1
	;DEBUG_VALUE: v <- 13
	;DEBUG_VALUE: i <- $x8
	;DEBUG_VALUE: find_first_greater_than:mode <- $w26
	;DEBUG_VALUE: find_first_greater_than:vs <- [DW_OP_plus_uconst 72, DW_OP_stack_value] $sp
	;DEBUG_VALUE: find_first_greater_than:xy <- [DW_OP_plus_uconst 8, DW_OP_stack_value] $sp
	;DEBUG_VALUE: find_first_greater_than:table <- $x21
	;DEBUG_VALUE: find_first_greater_than:operand <- $x19
	;DEBUG_VALUE: emulate_AMX_GENLUT:table <- $x21
	;DEBUG_VALUE: emulate_AMX_GENLUT:mode <- $x26
	;DEBUG_VALUE: emulate_AMX_GENLUT:state <- $x20
	;DEBUG_VALUE: emulate_AMX_GENLUT:operand <- $x19
	;DEBUG_VALUE: v <- 14
	.loc	2 23 13                         ; genlut.c:23:13
	ldrsh	w14, [x21, #28]
Ltmp208:
	.loc	2 23 13                         ; genlut.c:23:13
	cmp	w14, w13
	b.le	LBB1_99
Ltmp209:
; %bb.98:                               ;   in Loop: Header=BB1_70 Depth=1
	;DEBUG_VALUE: v <- 14
	;DEBUG_VALUE: i <- $x8
	;DEBUG_VALUE: find_first_greater_than:mode <- $w26
	;DEBUG_VALUE: find_first_greater_than:vs <- [DW_OP_plus_uconst 72, DW_OP_stack_value] $sp
	;DEBUG_VALUE: find_first_greater_than:xy <- [DW_OP_plus_uconst 8, DW_OP_stack_value] $sp
	;DEBUG_VALUE: find_first_greater_than:table <- $x21
	;DEBUG_VALUE: find_first_greater_than:operand <- $x19
	;DEBUG_VALUE: emulate_AMX_GENLUT:table <- $x21
	;DEBUG_VALUE: emulate_AMX_GENLUT:mode <- $x26
	;DEBUG_VALUE: emulate_AMX_GENLUT:state <- $x20
	;DEBUG_VALUE: emulate_AMX_GENLUT:operand <- $x19
	.loc	2 0 13                          ; genlut.c:0:13
	mov	w13, #13
	b	LBB1_69
Ltmp210:
LBB1_99:                                ;   in Loop: Header=BB1_70 Depth=1
	;DEBUG_VALUE: v <- 14
	;DEBUG_VALUE: i <- $x8
	;DEBUG_VALUE: find_first_greater_than:mode <- $w26
	;DEBUG_VALUE: find_first_greater_than:vs <- [DW_OP_plus_uconst 72, DW_OP_stack_value] $sp
	;DEBUG_VALUE: find_first_greater_than:xy <- [DW_OP_plus_uconst 8, DW_OP_stack_value] $sp
	;DEBUG_VALUE: find_first_greater_than:table <- $x21
	;DEBUG_VALUE: find_first_greater_than:operand <- $x19
	;DEBUG_VALUE: emulate_AMX_GENLUT:table <- $x21
	;DEBUG_VALUE: emulate_AMX_GENLUT:mode <- $x26
	;DEBUG_VALUE: emulate_AMX_GENLUT:state <- $x20
	;DEBUG_VALUE: emulate_AMX_GENLUT:operand <- $x19
	;DEBUG_VALUE: v <- 15
	.loc	2 23 13                         ; genlut.c:23:13
	ldrsh	w14, [x21, #30]
Ltmp211:
	.loc	2 23 13                         ; genlut.c:23:13
	cmp	w14, w13
	b.le	LBB1_101
Ltmp212:
; %bb.100:                              ;   in Loop: Header=BB1_70 Depth=1
	;DEBUG_VALUE: v <- 15
	;DEBUG_VALUE: i <- $x8
	;DEBUG_VALUE: find_first_greater_than:mode <- $w26
	;DEBUG_VALUE: find_first_greater_than:vs <- [DW_OP_plus_uconst 72, DW_OP_stack_value] $sp
	;DEBUG_VALUE: find_first_greater_than:xy <- [DW_OP_plus_uconst 8, DW_OP_stack_value] $sp
	;DEBUG_VALUE: find_first_greater_than:table <- $x21
	;DEBUG_VALUE: find_first_greater_than:operand <- $x19
	;DEBUG_VALUE: emulate_AMX_GENLUT:table <- $x21
	;DEBUG_VALUE: emulate_AMX_GENLUT:mode <- $x26
	;DEBUG_VALUE: emulate_AMX_GENLUT:state <- $x20
	;DEBUG_VALUE: emulate_AMX_GENLUT:operand <- $x19
	.loc	2 0 13                          ; genlut.c:0:13
	mov	w13, #14
	b	LBB1_69
Ltmp213:
LBB1_101:                               ;   in Loop: Header=BB1_70 Depth=1
	;DEBUG_VALUE: v <- 15
	;DEBUG_VALUE: i <- $x8
	;DEBUG_VALUE: find_first_greater_than:mode <- $w26
	;DEBUG_VALUE: find_first_greater_than:vs <- [DW_OP_plus_uconst 72, DW_OP_stack_value] $sp
	;DEBUG_VALUE: find_first_greater_than:xy <- [DW_OP_plus_uconst 8, DW_OP_stack_value] $sp
	;DEBUG_VALUE: find_first_greater_than:table <- $x21
	;DEBUG_VALUE: find_first_greater_than:operand <- $x19
	;DEBUG_VALUE: emulate_AMX_GENLUT:table <- $x21
	;DEBUG_VALUE: emulate_AMX_GENLUT:mode <- $x26
	;DEBUG_VALUE: emulate_AMX_GENLUT:state <- $x20
	;DEBUG_VALUE: emulate_AMX_GENLUT:operand <- $x19
	;DEBUG_VALUE: v <- 16
	.loc	2 23 13                         ; genlut.c:23:13
	ldrsh	w14, [x21, #32]
Ltmp214:
	.loc	2 23 13                         ; genlut.c:23:13
	cmp	w14, w13
	b.le	LBB1_103
Ltmp215:
; %bb.102:                              ;   in Loop: Header=BB1_70 Depth=1
	;DEBUG_VALUE: v <- 16
	;DEBUG_VALUE: i <- $x8
	;DEBUG_VALUE: find_first_greater_than:mode <- $w26
	;DEBUG_VALUE: find_first_greater_than:vs <- [DW_OP_plus_uconst 72, DW_OP_stack_value] $sp
	;DEBUG_VALUE: find_first_greater_than:xy <- [DW_OP_plus_uconst 8, DW_OP_stack_value] $sp
	;DEBUG_VALUE: find_first_greater_than:table <- $x21
	;DEBUG_VALUE: find_first_greater_than:operand <- $x19
	;DEBUG_VALUE: emulate_AMX_GENLUT:table <- $x21
	;DEBUG_VALUE: emulate_AMX_GENLUT:mode <- $x26
	;DEBUG_VALUE: emulate_AMX_GENLUT:state <- $x20
	;DEBUG_VALUE: emulate_AMX_GENLUT:operand <- $x19
	.loc	2 0 13                          ; genlut.c:0:13
	mov	w13, #15
	b	LBB1_69
Ltmp216:
LBB1_103:                               ;   in Loop: Header=BB1_70 Depth=1
	;DEBUG_VALUE: v <- 16
	;DEBUG_VALUE: i <- $x8
	;DEBUG_VALUE: find_first_greater_than:mode <- $w26
	;DEBUG_VALUE: find_first_greater_than:vs <- [DW_OP_plus_uconst 72, DW_OP_stack_value] $sp
	;DEBUG_VALUE: find_first_greater_than:xy <- [DW_OP_plus_uconst 8, DW_OP_stack_value] $sp
	;DEBUG_VALUE: find_first_greater_than:table <- $x21
	;DEBUG_VALUE: find_first_greater_than:operand <- $x19
	;DEBUG_VALUE: emulate_AMX_GENLUT:table <- $x21
	;DEBUG_VALUE: emulate_AMX_GENLUT:mode <- $x26
	;DEBUG_VALUE: emulate_AMX_GENLUT:state <- $x20
	;DEBUG_VALUE: emulate_AMX_GENLUT:operand <- $x19
	;DEBUG_VALUE: v <- 17
	.loc	2 23 13                         ; genlut.c:23:13
	ldrsh	w14, [x21, #34]
Ltmp217:
	.loc	2 23 13                         ; genlut.c:23:13
	cmp	w14, w13
	b.le	LBB1_105
Ltmp218:
; %bb.104:                              ;   in Loop: Header=BB1_70 Depth=1
	;DEBUG_VALUE: v <- 17
	;DEBUG_VALUE: i <- $x8
	;DEBUG_VALUE: find_first_greater_than:mode <- $w26
	;DEBUG_VALUE: find_first_greater_than:vs <- [DW_OP_plus_uconst 72, DW_OP_stack_value] $sp
	;DEBUG_VALUE: find_first_greater_than:xy <- [DW_OP_plus_uconst 8, DW_OP_stack_value] $sp
	;DEBUG_VALUE: find_first_greater_than:table <- $x21
	;DEBUG_VALUE: find_first_greater_than:operand <- $x19
	;DEBUG_VALUE: emulate_AMX_GENLUT:table <- $x21
	;DEBUG_VALUE: emulate_AMX_GENLUT:mode <- $x26
	;DEBUG_VALUE: emulate_AMX_GENLUT:state <- $x20
	;DEBUG_VALUE: emulate_AMX_GENLUT:operand <- $x19
	.loc	2 0 13                          ; genlut.c:0:13
	mov	w13, #16
	b	LBB1_69
Ltmp219:
LBB1_105:                               ;   in Loop: Header=BB1_70 Depth=1
	;DEBUG_VALUE: v <- 17
	;DEBUG_VALUE: i <- $x8
	;DEBUG_VALUE: find_first_greater_than:mode <- $w26
	;DEBUG_VALUE: find_first_greater_than:vs <- [DW_OP_plus_uconst 72, DW_OP_stack_value] $sp
	;DEBUG_VALUE: find_first_greater_than:xy <- [DW_OP_plus_uconst 8, DW_OP_stack_value] $sp
	;DEBUG_VALUE: find_first_greater_than:table <- $x21
	;DEBUG_VALUE: find_first_greater_than:operand <- $x19
	;DEBUG_VALUE: emulate_AMX_GENLUT:table <- $x21
	;DEBUG_VALUE: emulate_AMX_GENLUT:mode <- $x26
	;DEBUG_VALUE: emulate_AMX_GENLUT:state <- $x20
	;DEBUG_VALUE: emulate_AMX_GENLUT:operand <- $x19
	;DEBUG_VALUE: v <- 18
	.loc	2 23 13                         ; genlut.c:23:13
	ldrsh	w14, [x21, #36]
Ltmp220:
	.loc	2 23 13                         ; genlut.c:23:13
	cmp	w14, w13
	b.le	LBB1_107
Ltmp221:
; %bb.106:                              ;   in Loop: Header=BB1_70 Depth=1
	;DEBUG_VALUE: v <- 18
	;DEBUG_VALUE: i <- $x8
	;DEBUG_VALUE: find_first_greater_than:mode <- $w26
	;DEBUG_VALUE: find_first_greater_than:vs <- [DW_OP_plus_uconst 72, DW_OP_stack_value] $sp
	;DEBUG_VALUE: find_first_greater_than:xy <- [DW_OP_plus_uconst 8, DW_OP_stack_value] $sp
	;DEBUG_VALUE: find_first_greater_than:table <- $x21
	;DEBUG_VALUE: find_first_greater_than:operand <- $x19
	;DEBUG_VALUE: emulate_AMX_GENLUT:table <- $x21
	;DEBUG_VALUE: emulate_AMX_GENLUT:mode <- $x26
	;DEBUG_VALUE: emulate_AMX_GENLUT:state <- $x20
	;DEBUG_VALUE: emulate_AMX_GENLUT:operand <- $x19
	.loc	2 0 13                          ; genlut.c:0:13
	mov	w13, #17
	b	LBB1_69
Ltmp222:
LBB1_107:                               ;   in Loop: Header=BB1_70 Depth=1
	;DEBUG_VALUE: v <- 18
	;DEBUG_VALUE: i <- $x8
	;DEBUG_VALUE: find_first_greater_than:mode <- $w26
	;DEBUG_VALUE: find_first_greater_than:vs <- [DW_OP_plus_uconst 72, DW_OP_stack_value] $sp
	;DEBUG_VALUE: find_first_greater_than:xy <- [DW_OP_plus_uconst 8, DW_OP_stack_value] $sp
	;DEBUG_VALUE: find_first_greater_than:table <- $x21
	;DEBUG_VALUE: find_first_greater_than:operand <- $x19
	;DEBUG_VALUE: emulate_AMX_GENLUT:table <- $x21
	;DEBUG_VALUE: emulate_AMX_GENLUT:mode <- $x26
	;DEBUG_VALUE: emulate_AMX_GENLUT:state <- $x20
	;DEBUG_VALUE: emulate_AMX_GENLUT:operand <- $x19
	;DEBUG_VALUE: v <- 19
	.loc	2 23 13                         ; genlut.c:23:13
	ldrsh	w14, [x21, #38]
Ltmp223:
	.loc	2 23 13                         ; genlut.c:23:13
	cmp	w14, w13
	b.le	LBB1_109
Ltmp224:
; %bb.108:                              ;   in Loop: Header=BB1_70 Depth=1
	;DEBUG_VALUE: v <- 19
	;DEBUG_VALUE: i <- $x8
	;DEBUG_VALUE: find_first_greater_than:mode <- $w26
	;DEBUG_VALUE: find_first_greater_than:vs <- [DW_OP_plus_uconst 72, DW_OP_stack_value] $sp
	;DEBUG_VALUE: find_first_greater_than:xy <- [DW_OP_plus_uconst 8, DW_OP_stack_value] $sp
	;DEBUG_VALUE: find_first_greater_than:table <- $x21
	;DEBUG_VALUE: find_first_greater_than:operand <- $x19
	;DEBUG_VALUE: emulate_AMX_GENLUT:table <- $x21
	;DEBUG_VALUE: emulate_AMX_GENLUT:mode <- $x26
	;DEBUG_VALUE: emulate_AMX_GENLUT:state <- $x20
	;DEBUG_VALUE: emulate_AMX_GENLUT:operand <- $x19
	.loc	2 0 13                          ; genlut.c:0:13
	mov	w13, #18
	b	LBB1_69
Ltmp225:
LBB1_109:                               ;   in Loop: Header=BB1_70 Depth=1
	;DEBUG_VALUE: v <- 19
	;DEBUG_VALUE: i <- $x8
	;DEBUG_VALUE: find_first_greater_than:mode <- $w26
	;DEBUG_VALUE: find_first_greater_than:vs <- [DW_OP_plus_uconst 72, DW_OP_stack_value] $sp
	;DEBUG_VALUE: find_first_greater_than:xy <- [DW_OP_plus_uconst 8, DW_OP_stack_value] $sp
	;DEBUG_VALUE: find_first_greater_than:table <- $x21
	;DEBUG_VALUE: find_first_greater_than:operand <- $x19
	;DEBUG_VALUE: emulate_AMX_GENLUT:table <- $x21
	;DEBUG_VALUE: emulate_AMX_GENLUT:mode <- $x26
	;DEBUG_VALUE: emulate_AMX_GENLUT:state <- $x20
	;DEBUG_VALUE: emulate_AMX_GENLUT:operand <- $x19
	;DEBUG_VALUE: v <- 20
	.loc	2 23 13                         ; genlut.c:23:13
	ldrsh	w14, [x21, #40]
Ltmp226:
	.loc	2 23 13                         ; genlut.c:23:13
	cmp	w14, w13
	b.le	LBB1_111
Ltmp227:
; %bb.110:                              ;   in Loop: Header=BB1_70 Depth=1
	;DEBUG_VALUE: v <- 20
	;DEBUG_VALUE: i <- $x8
	;DEBUG_VALUE: find_first_greater_than:mode <- $w26
	;DEBUG_VALUE: find_first_greater_than:vs <- [DW_OP_plus_uconst 72, DW_OP_stack_value] $sp
	;DEBUG_VALUE: find_first_greater_than:xy <- [DW_OP_plus_uconst 8, DW_OP_stack_value] $sp
	;DEBUG_VALUE: find_first_greater_than:table <- $x21
	;DEBUG_VALUE: find_first_greater_than:operand <- $x19
	;DEBUG_VALUE: emulate_AMX_GENLUT:table <- $x21
	;DEBUG_VALUE: emulate_AMX_GENLUT:mode <- $x26
	;DEBUG_VALUE: emulate_AMX_GENLUT:state <- $x20
	;DEBUG_VALUE: emulate_AMX_GENLUT:operand <- $x19
	.loc	2 0 13                          ; genlut.c:0:13
	mov	w13, #19
	b	LBB1_69
Ltmp228:
LBB1_111:                               ;   in Loop: Header=BB1_70 Depth=1
	;DEBUG_VALUE: v <- 20
	;DEBUG_VALUE: i <- $x8
	;DEBUG_VALUE: find_first_greater_than:mode <- $w26
	;DEBUG_VALUE: find_first_greater_than:vs <- [DW_OP_plus_uconst 72, DW_OP_stack_value] $sp
	;DEBUG_VALUE: find_first_greater_than:xy <- [DW_OP_plus_uconst 8, DW_OP_stack_value] $sp
	;DEBUG_VALUE: find_first_greater_than:table <- $x21
	;DEBUG_VALUE: find_first_greater_than:operand <- $x19
	;DEBUG_VALUE: emulate_AMX_GENLUT:table <- $x21
	;DEBUG_VALUE: emulate_AMX_GENLUT:mode <- $x26
	;DEBUG_VALUE: emulate_AMX_GENLUT:state <- $x20
	;DEBUG_VALUE: emulate_AMX_GENLUT:operand <- $x19
	;DEBUG_VALUE: v <- 21
	.loc	2 23 13                         ; genlut.c:23:13
	ldrsh	w14, [x21, #42]
Ltmp229:
	.loc	2 23 13                         ; genlut.c:23:13
	cmp	w14, w13
	b.le	LBB1_113
Ltmp230:
; %bb.112:                              ;   in Loop: Header=BB1_70 Depth=1
	;DEBUG_VALUE: v <- 21
	;DEBUG_VALUE: i <- $x8
	;DEBUG_VALUE: find_first_greater_than:mode <- $w26
	;DEBUG_VALUE: find_first_greater_than:vs <- [DW_OP_plus_uconst 72, DW_OP_stack_value] $sp
	;DEBUG_VALUE: find_first_greater_than:xy <- [DW_OP_plus_uconst 8, DW_OP_stack_value] $sp
	;DEBUG_VALUE: find_first_greater_than:table <- $x21
	;DEBUG_VALUE: find_first_greater_than:operand <- $x19
	;DEBUG_VALUE: emulate_AMX_GENLUT:table <- $x21
	;DEBUG_VALUE: emulate_AMX_GENLUT:mode <- $x26
	;DEBUG_VALUE: emulate_AMX_GENLUT:state <- $x20
	;DEBUG_VALUE: emulate_AMX_GENLUT:operand <- $x19
	.loc	2 0 13                          ; genlut.c:0:13
	mov	w13, #20
	b	LBB1_69
Ltmp231:
LBB1_113:                               ;   in Loop: Header=BB1_70 Depth=1
	;DEBUG_VALUE: v <- 21
	;DEBUG_VALUE: i <- $x8
	;DEBUG_VALUE: find_first_greater_than:mode <- $w26
	;DEBUG_VALUE: find_first_greater_than:vs <- [DW_OP_plus_uconst 72, DW_OP_stack_value] $sp
	;DEBUG_VALUE: find_first_greater_than:xy <- [DW_OP_plus_uconst 8, DW_OP_stack_value] $sp
	;DEBUG_VALUE: find_first_greater_than:table <- $x21
	;DEBUG_VALUE: find_first_greater_than:operand <- $x19
	;DEBUG_VALUE: emulate_AMX_GENLUT:table <- $x21
	;DEBUG_VALUE: emulate_AMX_GENLUT:mode <- $x26
	;DEBUG_VALUE: emulate_AMX_GENLUT:state <- $x20
	;DEBUG_VALUE: emulate_AMX_GENLUT:operand <- $x19
	;DEBUG_VALUE: v <- 22
	.loc	2 23 13                         ; genlut.c:23:13
	ldrsh	w14, [x21, #44]
Ltmp232:
	.loc	2 23 13                         ; genlut.c:23:13
	cmp	w14, w13
	b.le	LBB1_115
Ltmp233:
; %bb.114:                              ;   in Loop: Header=BB1_70 Depth=1
	;DEBUG_VALUE: v <- 22
	;DEBUG_VALUE: i <- $x8
	;DEBUG_VALUE: find_first_greater_than:mode <- $w26
	;DEBUG_VALUE: find_first_greater_than:vs <- [DW_OP_plus_uconst 72, DW_OP_stack_value] $sp
	;DEBUG_VALUE: find_first_greater_than:xy <- [DW_OP_plus_uconst 8, DW_OP_stack_value] $sp
	;DEBUG_VALUE: find_first_greater_than:table <- $x21
	;DEBUG_VALUE: find_first_greater_than:operand <- $x19
	;DEBUG_VALUE: emulate_AMX_GENLUT:table <- $x21
	;DEBUG_VALUE: emulate_AMX_GENLUT:mode <- $x26
	;DEBUG_VALUE: emulate_AMX_GENLUT:state <- $x20
	;DEBUG_VALUE: emulate_AMX_GENLUT:operand <- $x19
	.loc	2 0 13                          ; genlut.c:0:13
	mov	w13, #21
	b	LBB1_69
Ltmp234:
LBB1_115:                               ;   in Loop: Header=BB1_70 Depth=1
	;DEBUG_VALUE: v <- 22
	;DEBUG_VALUE: i <- $x8
	;DEBUG_VALUE: find_first_greater_than:mode <- $w26
	;DEBUG_VALUE: find_first_greater_than:vs <- [DW_OP_plus_uconst 72, DW_OP_stack_value] $sp
	;DEBUG_VALUE: find_first_greater_than:xy <- [DW_OP_plus_uconst 8, DW_OP_stack_value] $sp
	;DEBUG_VALUE: find_first_greater_than:table <- $x21
	;DEBUG_VALUE: find_first_greater_than:operand <- $x19
	;DEBUG_VALUE: emulate_AMX_GENLUT:table <- $x21
	;DEBUG_VALUE: emulate_AMX_GENLUT:mode <- $x26
	;DEBUG_VALUE: emulate_AMX_GENLUT:state <- $x20
	;DEBUG_VALUE: emulate_AMX_GENLUT:operand <- $x19
	;DEBUG_VALUE: v <- 23
	.loc	2 23 13                         ; genlut.c:23:13
	ldrsh	w14, [x21, #46]
Ltmp235:
	.loc	2 23 13                         ; genlut.c:23:13
	cmp	w14, w13
	b.le	LBB1_117
Ltmp236:
; %bb.116:                              ;   in Loop: Header=BB1_70 Depth=1
	;DEBUG_VALUE: v <- 23
	;DEBUG_VALUE: i <- $x8
	;DEBUG_VALUE: find_first_greater_than:mode <- $w26
	;DEBUG_VALUE: find_first_greater_than:vs <- [DW_OP_plus_uconst 72, DW_OP_stack_value] $sp
	;DEBUG_VALUE: find_first_greater_than:xy <- [DW_OP_plus_uconst 8, DW_OP_stack_value] $sp
	;DEBUG_VALUE: find_first_greater_than:table <- $x21
	;DEBUG_VALUE: find_first_greater_than:operand <- $x19
	;DEBUG_VALUE: emulate_AMX_GENLUT:table <- $x21
	;DEBUG_VALUE: emulate_AMX_GENLUT:mode <- $x26
	;DEBUG_VALUE: emulate_AMX_GENLUT:state <- $x20
	;DEBUG_VALUE: emulate_AMX_GENLUT:operand <- $x19
	.loc	2 0 13                          ; genlut.c:0:13
	mov	w13, #22
	b	LBB1_69
Ltmp237:
LBB1_117:                               ;   in Loop: Header=BB1_70 Depth=1
	;DEBUG_VALUE: v <- 23
	;DEBUG_VALUE: i <- $x8
	;DEBUG_VALUE: find_first_greater_than:mode <- $w26
	;DEBUG_VALUE: find_first_greater_than:vs <- [DW_OP_plus_uconst 72, DW_OP_stack_value] $sp
	;DEBUG_VALUE: find_first_greater_than:xy <- [DW_OP_plus_uconst 8, DW_OP_stack_value] $sp
	;DEBUG_VALUE: find_first_greater_than:table <- $x21
	;DEBUG_VALUE: find_first_greater_than:operand <- $x19
	;DEBUG_VALUE: emulate_AMX_GENLUT:table <- $x21
	;DEBUG_VALUE: emulate_AMX_GENLUT:mode <- $x26
	;DEBUG_VALUE: emulate_AMX_GENLUT:state <- $x20
	;DEBUG_VALUE: emulate_AMX_GENLUT:operand <- $x19
	;DEBUG_VALUE: v <- 24
	.loc	2 23 13                         ; genlut.c:23:13
	ldrsh	w14, [x21, #48]
Ltmp238:
	.loc	2 23 13                         ; genlut.c:23:13
	cmp	w14, w13
	b.le	LBB1_119
Ltmp239:
; %bb.118:                              ;   in Loop: Header=BB1_70 Depth=1
	;DEBUG_VALUE: v <- 24
	;DEBUG_VALUE: i <- $x8
	;DEBUG_VALUE: find_first_greater_than:mode <- $w26
	;DEBUG_VALUE: find_first_greater_than:vs <- [DW_OP_plus_uconst 72, DW_OP_stack_value] $sp
	;DEBUG_VALUE: find_first_greater_than:xy <- [DW_OP_plus_uconst 8, DW_OP_stack_value] $sp
	;DEBUG_VALUE: find_first_greater_than:table <- $x21
	;DEBUG_VALUE: find_first_greater_than:operand <- $x19
	;DEBUG_VALUE: emulate_AMX_GENLUT:table <- $x21
	;DEBUG_VALUE: emulate_AMX_GENLUT:mode <- $x26
	;DEBUG_VALUE: emulate_AMX_GENLUT:state <- $x20
	;DEBUG_VALUE: emulate_AMX_GENLUT:operand <- $x19
	.loc	2 0 13                          ; genlut.c:0:13
	mov	w13, #23
	b	LBB1_69
Ltmp240:
LBB1_119:                               ;   in Loop: Header=BB1_70 Depth=1
	;DEBUG_VALUE: v <- 24
	;DEBUG_VALUE: i <- $x8
	;DEBUG_VALUE: find_first_greater_than:mode <- $w26
	;DEBUG_VALUE: find_first_greater_than:vs <- [DW_OP_plus_uconst 72, DW_OP_stack_value] $sp
	;DEBUG_VALUE: find_first_greater_than:xy <- [DW_OP_plus_uconst 8, DW_OP_stack_value] $sp
	;DEBUG_VALUE: find_first_greater_than:table <- $x21
	;DEBUG_VALUE: find_first_greater_than:operand <- $x19
	;DEBUG_VALUE: emulate_AMX_GENLUT:table <- $x21
	;DEBUG_VALUE: emulate_AMX_GENLUT:mode <- $x26
	;DEBUG_VALUE: emulate_AMX_GENLUT:state <- $x20
	;DEBUG_VALUE: emulate_AMX_GENLUT:operand <- $x19
	;DEBUG_VALUE: v <- 25
	.loc	2 23 13                         ; genlut.c:23:13
	ldrsh	w14, [x21, #50]
Ltmp241:
	.loc	2 23 13                         ; genlut.c:23:13
	cmp	w14, w13
	b.le	LBB1_121
Ltmp242:
; %bb.120:                              ;   in Loop: Header=BB1_70 Depth=1
	;DEBUG_VALUE: v <- 25
	;DEBUG_VALUE: i <- $x8
	;DEBUG_VALUE: find_first_greater_than:mode <- $w26
	;DEBUG_VALUE: find_first_greater_than:vs <- [DW_OP_plus_uconst 72, DW_OP_stack_value] $sp
	;DEBUG_VALUE: find_first_greater_than:xy <- [DW_OP_plus_uconst 8, DW_OP_stack_value] $sp
	;DEBUG_VALUE: find_first_greater_than:table <- $x21
	;DEBUG_VALUE: find_first_greater_than:operand <- $x19
	;DEBUG_VALUE: emulate_AMX_GENLUT:table <- $x21
	;DEBUG_VALUE: emulate_AMX_GENLUT:mode <- $x26
	;DEBUG_VALUE: emulate_AMX_GENLUT:state <- $x20
	;DEBUG_VALUE: emulate_AMX_GENLUT:operand <- $x19
	.loc	2 0 13                          ; genlut.c:0:13
	mov	w13, #24
	b	LBB1_69
Ltmp243:
LBB1_121:                               ;   in Loop: Header=BB1_70 Depth=1
	;DEBUG_VALUE: v <- 25
	;DEBUG_VALUE: i <- $x8
	;DEBUG_VALUE: find_first_greater_than:mode <- $w26
	;DEBUG_VALUE: find_first_greater_than:vs <- [DW_OP_plus_uconst 72, DW_OP_stack_value] $sp
	;DEBUG_VALUE: find_first_greater_than:xy <- [DW_OP_plus_uconst 8, DW_OP_stack_value] $sp
	;DEBUG_VALUE: find_first_greater_than:table <- $x21
	;DEBUG_VALUE: find_first_greater_than:operand <- $x19
	;DEBUG_VALUE: emulate_AMX_GENLUT:table <- $x21
	;DEBUG_VALUE: emulate_AMX_GENLUT:mode <- $x26
	;DEBUG_VALUE: emulate_AMX_GENLUT:state <- $x20
	;DEBUG_VALUE: emulate_AMX_GENLUT:operand <- $x19
	;DEBUG_VALUE: v <- 26
	.loc	2 23 13                         ; genlut.c:23:13
	ldrsh	w14, [x21, #52]
Ltmp244:
	.loc	2 23 13                         ; genlut.c:23:13
	cmp	w14, w13
	b.le	LBB1_123
Ltmp245:
; %bb.122:                              ;   in Loop: Header=BB1_70 Depth=1
	;DEBUG_VALUE: v <- 26
	;DEBUG_VALUE: i <- $x8
	;DEBUG_VALUE: find_first_greater_than:mode <- $w26
	;DEBUG_VALUE: find_first_greater_than:vs <- [DW_OP_plus_uconst 72, DW_OP_stack_value] $sp
	;DEBUG_VALUE: find_first_greater_than:xy <- [DW_OP_plus_uconst 8, DW_OP_stack_value] $sp
	;DEBUG_VALUE: find_first_greater_than:table <- $x21
	;DEBUG_VALUE: find_first_greater_than:operand <- $x19
	;DEBUG_VALUE: emulate_AMX_GENLUT:table <- $x21
	;DEBUG_VALUE: emulate_AMX_GENLUT:mode <- $x26
	;DEBUG_VALUE: emulate_AMX_GENLUT:state <- $x20
	;DEBUG_VALUE: emulate_AMX_GENLUT:operand <- $x19
	.loc	2 0 13                          ; genlut.c:0:13
	mov	w13, #25
	b	LBB1_69
Ltmp246:
LBB1_123:                               ;   in Loop: Header=BB1_70 Depth=1
	;DEBUG_VALUE: v <- 26
	;DEBUG_VALUE: i <- $x8
	;DEBUG_VALUE: find_first_greater_than:mode <- $w26
	;DEBUG_VALUE: find_first_greater_than:vs <- [DW_OP_plus_uconst 72, DW_OP_stack_value] $sp
	;DEBUG_VALUE: find_first_greater_than:xy <- [DW_OP_plus_uconst 8, DW_OP_stack_value] $sp
	;DEBUG_VALUE: find_first_greater_than:table <- $x21
	;DEBUG_VALUE: find_first_greater_than:operand <- $x19
	;DEBUG_VALUE: emulate_AMX_GENLUT:table <- $x21
	;DEBUG_VALUE: emulate_AMX_GENLUT:mode <- $x26
	;DEBUG_VALUE: emulate_AMX_GENLUT:state <- $x20
	;DEBUG_VALUE: emulate_AMX_GENLUT:operand <- $x19
	;DEBUG_VALUE: v <- 27
	.loc	2 23 13                         ; genlut.c:23:13
	ldrsh	w14, [x21, #54]
Ltmp247:
	.loc	2 23 13                         ; genlut.c:23:13
	cmp	w14, w13
	b.le	LBB1_125
Ltmp248:
; %bb.124:                              ;   in Loop: Header=BB1_70 Depth=1
	;DEBUG_VALUE: v <- 27
	;DEBUG_VALUE: i <- $x8
	;DEBUG_VALUE: find_first_greater_than:mode <- $w26
	;DEBUG_VALUE: find_first_greater_than:vs <- [DW_OP_plus_uconst 72, DW_OP_stack_value] $sp
	;DEBUG_VALUE: find_first_greater_than:xy <- [DW_OP_plus_uconst 8, DW_OP_stack_value] $sp
	;DEBUG_VALUE: find_first_greater_than:table <- $x21
	;DEBUG_VALUE: find_first_greater_than:operand <- $x19
	;DEBUG_VALUE: emulate_AMX_GENLUT:table <- $x21
	;DEBUG_VALUE: emulate_AMX_GENLUT:mode <- $x26
	;DEBUG_VALUE: emulate_AMX_GENLUT:state <- $x20
	;DEBUG_VALUE: emulate_AMX_GENLUT:operand <- $x19
	.loc	2 0 13                          ; genlut.c:0:13
	mov	w13, #26
	b	LBB1_69
Ltmp249:
LBB1_125:                               ;   in Loop: Header=BB1_70 Depth=1
	;DEBUG_VALUE: v <- 27
	;DEBUG_VALUE: i <- $x8
	;DEBUG_VALUE: find_first_greater_than:mode <- $w26
	;DEBUG_VALUE: find_first_greater_than:vs <- [DW_OP_plus_uconst 72, DW_OP_stack_value] $sp
	;DEBUG_VALUE: find_first_greater_than:xy <- [DW_OP_plus_uconst 8, DW_OP_stack_value] $sp
	;DEBUG_VALUE: find_first_greater_than:table <- $x21
	;DEBUG_VALUE: find_first_greater_than:operand <- $x19
	;DEBUG_VALUE: emulate_AMX_GENLUT:table <- $x21
	;DEBUG_VALUE: emulate_AMX_GENLUT:mode <- $x26
	;DEBUG_VALUE: emulate_AMX_GENLUT:state <- $x20
	;DEBUG_VALUE: emulate_AMX_GENLUT:operand <- $x19
	;DEBUG_VALUE: v <- 28
	.loc	2 23 13                         ; genlut.c:23:13
	ldrsh	w14, [x21, #56]
Ltmp250:
	.loc	2 23 13                         ; genlut.c:23:13
	cmp	w14, w13
	b.le	LBB1_127
Ltmp251:
; %bb.126:                              ;   in Loop: Header=BB1_70 Depth=1
	;DEBUG_VALUE: v <- 28
	;DEBUG_VALUE: i <- $x8
	;DEBUG_VALUE: find_first_greater_than:mode <- $w26
	;DEBUG_VALUE: find_first_greater_than:vs <- [DW_OP_plus_uconst 72, DW_OP_stack_value] $sp
	;DEBUG_VALUE: find_first_greater_than:xy <- [DW_OP_plus_uconst 8, DW_OP_stack_value] $sp
	;DEBUG_VALUE: find_first_greater_than:table <- $x21
	;DEBUG_VALUE: find_first_greater_than:operand <- $x19
	;DEBUG_VALUE: emulate_AMX_GENLUT:table <- $x21
	;DEBUG_VALUE: emulate_AMX_GENLUT:mode <- $x26
	;DEBUG_VALUE: emulate_AMX_GENLUT:state <- $x20
	;DEBUG_VALUE: emulate_AMX_GENLUT:operand <- $x19
	.loc	2 0 13                          ; genlut.c:0:13
	mov	w13, #27
	b	LBB1_69
Ltmp252:
LBB1_127:                               ;   in Loop: Header=BB1_70 Depth=1
	;DEBUG_VALUE: v <- 28
	;DEBUG_VALUE: i <- $x8
	;DEBUG_VALUE: find_first_greater_than:mode <- $w26
	;DEBUG_VALUE: find_first_greater_than:vs <- [DW_OP_plus_uconst 72, DW_OP_stack_value] $sp
	;DEBUG_VALUE: find_first_greater_than:xy <- [DW_OP_plus_uconst 8, DW_OP_stack_value] $sp
	;DEBUG_VALUE: find_first_greater_than:table <- $x21
	;DEBUG_VALUE: find_first_greater_than:operand <- $x19
	;DEBUG_VALUE: emulate_AMX_GENLUT:table <- $x21
	;DEBUG_VALUE: emulate_AMX_GENLUT:mode <- $x26
	;DEBUG_VALUE: emulate_AMX_GENLUT:state <- $x20
	;DEBUG_VALUE: emulate_AMX_GENLUT:operand <- $x19
	;DEBUG_VALUE: v <- 29
	.loc	2 23 13                         ; genlut.c:23:13
	ldrsh	w14, [x21, #58]
Ltmp253:
	.loc	2 23 13                         ; genlut.c:23:13
	cmp	w14, w13
	b.le	LBB1_129
Ltmp254:
; %bb.128:                              ;   in Loop: Header=BB1_70 Depth=1
	;DEBUG_VALUE: v <- 29
	;DEBUG_VALUE: i <- $x8
	;DEBUG_VALUE: find_first_greater_than:mode <- $w26
	;DEBUG_VALUE: find_first_greater_than:vs <- [DW_OP_plus_uconst 72, DW_OP_stack_value] $sp
	;DEBUG_VALUE: find_first_greater_than:xy <- [DW_OP_plus_uconst 8, DW_OP_stack_value] $sp
	;DEBUG_VALUE: find_first_greater_than:table <- $x21
	;DEBUG_VALUE: find_first_greater_than:operand <- $x19
	;DEBUG_VALUE: emulate_AMX_GENLUT:table <- $x21
	;DEBUG_VALUE: emulate_AMX_GENLUT:mode <- $x26
	;DEBUG_VALUE: emulate_AMX_GENLUT:state <- $x20
	;DEBUG_VALUE: emulate_AMX_GENLUT:operand <- $x19
	.loc	2 0 13                          ; genlut.c:0:13
	mov	w13, #28
	b	LBB1_69
Ltmp255:
LBB1_129:                               ;   in Loop: Header=BB1_70 Depth=1
	;DEBUG_VALUE: v <- 29
	;DEBUG_VALUE: i <- $x8
	;DEBUG_VALUE: find_first_greater_than:mode <- $w26
	;DEBUG_VALUE: find_first_greater_than:vs <- [DW_OP_plus_uconst 72, DW_OP_stack_value] $sp
	;DEBUG_VALUE: find_first_greater_than:xy <- [DW_OP_plus_uconst 8, DW_OP_stack_value] $sp
	;DEBUG_VALUE: find_first_greater_than:table <- $x21
	;DEBUG_VALUE: find_first_greater_than:operand <- $x19
	;DEBUG_VALUE: emulate_AMX_GENLUT:table <- $x21
	;DEBUG_VALUE: emulate_AMX_GENLUT:mode <- $x26
	;DEBUG_VALUE: emulate_AMX_GENLUT:state <- $x20
	;DEBUG_VALUE: emulate_AMX_GENLUT:operand <- $x19
	;DEBUG_VALUE: v <- 30
	.loc	2 23 13                         ; genlut.c:23:13
	ldrsh	w14, [x21, #60]
Ltmp256:
	.loc	2 23 13                         ; genlut.c:23:13
	cmp	w14, w13
	b.le	LBB1_131
Ltmp257:
; %bb.130:                              ;   in Loop: Header=BB1_70 Depth=1
	;DEBUG_VALUE: v <- 30
	;DEBUG_VALUE: i <- $x8
	;DEBUG_VALUE: find_first_greater_than:mode <- $w26
	;DEBUG_VALUE: find_first_greater_than:vs <- [DW_OP_plus_uconst 72, DW_OP_stack_value] $sp
	;DEBUG_VALUE: find_first_greater_than:xy <- [DW_OP_plus_uconst 8, DW_OP_stack_value] $sp
	;DEBUG_VALUE: find_first_greater_than:table <- $x21
	;DEBUG_VALUE: find_first_greater_than:operand <- $x19
	;DEBUG_VALUE: emulate_AMX_GENLUT:table <- $x21
	;DEBUG_VALUE: emulate_AMX_GENLUT:mode <- $x26
	;DEBUG_VALUE: emulate_AMX_GENLUT:state <- $x20
	;DEBUG_VALUE: emulate_AMX_GENLUT:operand <- $x19
	.loc	2 0 13                          ; genlut.c:0:13
	mov	w13, #29
	b	LBB1_69
Ltmp258:
LBB1_131:                               ;   in Loop: Header=BB1_70 Depth=1
	;DEBUG_VALUE: v <- 30
	;DEBUG_VALUE: i <- $x8
	;DEBUG_VALUE: find_first_greater_than:mode <- $w26
	;DEBUG_VALUE: find_first_greater_than:vs <- [DW_OP_plus_uconst 72, DW_OP_stack_value] $sp
	;DEBUG_VALUE: find_first_greater_than:xy <- [DW_OP_plus_uconst 8, DW_OP_stack_value] $sp
	;DEBUG_VALUE: find_first_greater_than:table <- $x21
	;DEBUG_VALUE: find_first_greater_than:operand <- $x19
	;DEBUG_VALUE: emulate_AMX_GENLUT:table <- $x21
	;DEBUG_VALUE: emulate_AMX_GENLUT:mode <- $x26
	;DEBUG_VALUE: emulate_AMX_GENLUT:state <- $x20
	;DEBUG_VALUE: emulate_AMX_GENLUT:operand <- $x19
	;DEBUG_VALUE: v <- 31
	.loc	2 23 13                         ; genlut.c:23:13
	ldrsh	w14, [x21, #62]
Ltmp259:
	.loc	2 23 13                         ; genlut.c:23:13
	cmp	w14, w13
	cinc	w13, w12, le
	b	LBB1_69
Ltmp260:
LBB1_132:
	;DEBUG_VALUE: find_first_greater_than:mode <- $w26
	;DEBUG_VALUE: find_first_greater_than:vs <- [DW_OP_plus_uconst 72, DW_OP_stack_value] $sp
	;DEBUG_VALUE: find_first_greater_than:xy <- [DW_OP_plus_uconst 8, DW_OP_stack_value] $sp
	;DEBUG_VALUE: find_first_greater_than:table <- $x21
	;DEBUG_VALUE: find_first_greater_than:operand <- $x19
	;DEBUG_VALUE: emulate_AMX_GENLUT:table <- $x21
	;DEBUG_VALUE: emulate_AMX_GENLUT:mode <- $x26
	;DEBUG_VALUE: emulate_AMX_GENLUT:state <- $x20
	;DEBUG_VALUE: emulate_AMX_GENLUT:operand <- $x19
	.loc	2 0 13                          ; genlut.c:0:13
	mov	x8, #0
	ldr	w9, [x21]
	add	x10, sp, #8
	add	x11, sp, #72
	mov	w12, #14
	b	LBB1_135
Ltmp261:
LBB1_133:                               ;   in Loop: Header=BB1_135 Depth=1
	;DEBUG_VALUE: i <- $x8
	;DEBUG_VALUE: v <- 0
	;DEBUG_VALUE: find_first_greater_than:mode <- $w26
	;DEBUG_VALUE: find_first_greater_than:vs <- [DW_OP_plus_uconst 72, DW_OP_stack_value] $sp
	;DEBUG_VALUE: find_first_greater_than:xy <- [DW_OP_plus_uconst 8, DW_OP_stack_value] $sp
	;DEBUG_VALUE: find_first_greater_than:table <- $x21
	;DEBUG_VALUE: find_first_greater_than:operand <- $x19
	;DEBUG_VALUE: emulate_AMX_GENLUT:table <- $x21
	;DEBUG_VALUE: emulate_AMX_GENLUT:mode <- $x26
	;DEBUG_VALUE: emulate_AMX_GENLUT:state <- $x20
	;DEBUG_VALUE: emulate_AMX_GENLUT:operand <- $x19
	mov	w13, #255
Ltmp262:
LBB1_134:                               ;   in Loop: Header=BB1_135 Depth=1
	;DEBUG_VALUE: i <- $x8
	;DEBUG_VALUE: find_first_greater_than:mode <- $w26
	;DEBUG_VALUE: find_first_greater_than:vs <- [DW_OP_plus_uconst 72, DW_OP_stack_value] $sp
	;DEBUG_VALUE: find_first_greater_than:xy <- [DW_OP_plus_uconst 8, DW_OP_stack_value] $sp
	;DEBUG_VALUE: find_first_greater_than:table <- $x21
	;DEBUG_VALUE: find_first_greater_than:operand <- $x19
	;DEBUG_VALUE: emulate_AMX_GENLUT:table <- $x21
	;DEBUG_VALUE: emulate_AMX_GENLUT:mode <- $x26
	;DEBUG_VALUE: emulate_AMX_GENLUT:state <- $x20
	;DEBUG_VALUE: emulate_AMX_GENLUT:operand <- $x19
	.loc	2 22 13 is_stmt 1               ; genlut.c:22:13
	strb	w13, [x11, x8]
Ltmp263:
	.loc	2 22 13 is_stmt 0               ; genlut.c:22:13
	add	x8, x8, #1
Ltmp264:
	;DEBUG_VALUE: i <- $x8
	.loc	2 22 13                         ; genlut.c:22:13
	cmp	x8, #16
	b.eq	LBB1_337
Ltmp265:
LBB1_135:                               ; =>This Inner Loop Header: Depth=1
	;DEBUG_VALUE: find_first_greater_than:mode <- $w26
	;DEBUG_VALUE: find_first_greater_than:vs <- [DW_OP_plus_uconst 72, DW_OP_stack_value] $sp
	;DEBUG_VALUE: find_first_greater_than:xy <- [DW_OP_plus_uconst 8, DW_OP_stack_value] $sp
	;DEBUG_VALUE: find_first_greater_than:table <- $x21
	;DEBUG_VALUE: find_first_greater_than:operand <- $x19
	;DEBUG_VALUE: emulate_AMX_GENLUT:table <- $x21
	;DEBUG_VALUE: emulate_AMX_GENLUT:mode <- $x26
	;DEBUG_VALUE: emulate_AMX_GENLUT:state <- $x20
	;DEBUG_VALUE: emulate_AMX_GENLUT:operand <- $x19
	.loc	2 0 13                          ; genlut.c:0:13
	ldr	w13, [x10, x8, lsl #2]
Ltmp266:
	;DEBUG_VALUE: v <- 0
	;DEBUG_VALUE: i <- $x8
	.loc	2 22 13                         ; genlut.c:22:13
	cmp	w9, w13
	b.gt	LBB1_133
Ltmp267:
; %bb.136:                              ;   in Loop: Header=BB1_135 Depth=1
	;DEBUG_VALUE: i <- $x8
	;DEBUG_VALUE: v <- 0
	;DEBUG_VALUE: find_first_greater_than:mode <- $w26
	;DEBUG_VALUE: find_first_greater_than:vs <- [DW_OP_plus_uconst 72, DW_OP_stack_value] $sp
	;DEBUG_VALUE: find_first_greater_than:xy <- [DW_OP_plus_uconst 8, DW_OP_stack_value] $sp
	;DEBUG_VALUE: find_first_greater_than:table <- $x21
	;DEBUG_VALUE: find_first_greater_than:operand <- $x19
	;DEBUG_VALUE: emulate_AMX_GENLUT:table <- $x21
	;DEBUG_VALUE: emulate_AMX_GENLUT:mode <- $x26
	;DEBUG_VALUE: emulate_AMX_GENLUT:state <- $x20
	;DEBUG_VALUE: emulate_AMX_GENLUT:operand <- $x19
	;DEBUG_VALUE: v <- 1
	.loc	2 22 13                         ; genlut.c:22:13
	ldr	w14, [x21, #4]
Ltmp268:
	.loc	2 22 13                         ; genlut.c:22:13
	cmp	w14, w13
	b.le	LBB1_138
Ltmp269:
; %bb.137:                              ;   in Loop: Header=BB1_135 Depth=1
	;DEBUG_VALUE: v <- 1
	;DEBUG_VALUE: i <- $x8
	;DEBUG_VALUE: find_first_greater_than:mode <- $w26
	;DEBUG_VALUE: find_first_greater_than:vs <- [DW_OP_plus_uconst 72, DW_OP_stack_value] $sp
	;DEBUG_VALUE: find_first_greater_than:xy <- [DW_OP_plus_uconst 8, DW_OP_stack_value] $sp
	;DEBUG_VALUE: find_first_greater_than:table <- $x21
	;DEBUG_VALUE: find_first_greater_than:operand <- $x19
	;DEBUG_VALUE: emulate_AMX_GENLUT:table <- $x21
	;DEBUG_VALUE: emulate_AMX_GENLUT:mode <- $x26
	;DEBUG_VALUE: emulate_AMX_GENLUT:state <- $x20
	;DEBUG_VALUE: emulate_AMX_GENLUT:operand <- $x19
	.loc	2 0 13                          ; genlut.c:0:13
	mov	w13, #0
	b	LBB1_134
Ltmp270:
LBB1_138:                               ;   in Loop: Header=BB1_135 Depth=1
	;DEBUG_VALUE: v <- 1
	;DEBUG_VALUE: i <- $x8
	;DEBUG_VALUE: find_first_greater_than:mode <- $w26
	;DEBUG_VALUE: find_first_greater_than:vs <- [DW_OP_plus_uconst 72, DW_OP_stack_value] $sp
	;DEBUG_VALUE: find_first_greater_than:xy <- [DW_OP_plus_uconst 8, DW_OP_stack_value] $sp
	;DEBUG_VALUE: find_first_greater_than:table <- $x21
	;DEBUG_VALUE: find_first_greater_than:operand <- $x19
	;DEBUG_VALUE: emulate_AMX_GENLUT:table <- $x21
	;DEBUG_VALUE: emulate_AMX_GENLUT:mode <- $x26
	;DEBUG_VALUE: emulate_AMX_GENLUT:state <- $x20
	;DEBUG_VALUE: emulate_AMX_GENLUT:operand <- $x19
	;DEBUG_VALUE: v <- 2
	.loc	2 22 13                         ; genlut.c:22:13
	ldr	w14, [x21, #8]
Ltmp271:
	.loc	2 22 13                         ; genlut.c:22:13
	cmp	w14, w13
	b.le	LBB1_140
Ltmp272:
; %bb.139:                              ;   in Loop: Header=BB1_135 Depth=1
	;DEBUG_VALUE: v <- 2
	;DEBUG_VALUE: i <- $x8
	;DEBUG_VALUE: find_first_greater_than:mode <- $w26
	;DEBUG_VALUE: find_first_greater_than:vs <- [DW_OP_plus_uconst 72, DW_OP_stack_value] $sp
	;DEBUG_VALUE: find_first_greater_than:xy <- [DW_OP_plus_uconst 8, DW_OP_stack_value] $sp
	;DEBUG_VALUE: find_first_greater_than:table <- $x21
	;DEBUG_VALUE: find_first_greater_than:operand <- $x19
	;DEBUG_VALUE: emulate_AMX_GENLUT:table <- $x21
	;DEBUG_VALUE: emulate_AMX_GENLUT:mode <- $x26
	;DEBUG_VALUE: emulate_AMX_GENLUT:state <- $x20
	;DEBUG_VALUE: emulate_AMX_GENLUT:operand <- $x19
	.loc	2 0 13                          ; genlut.c:0:13
	mov	w13, #1
	b	LBB1_134
Ltmp273:
LBB1_140:                               ;   in Loop: Header=BB1_135 Depth=1
	;DEBUG_VALUE: v <- 2
	;DEBUG_VALUE: i <- $x8
	;DEBUG_VALUE: find_first_greater_than:mode <- $w26
	;DEBUG_VALUE: find_first_greater_than:vs <- [DW_OP_plus_uconst 72, DW_OP_stack_value] $sp
	;DEBUG_VALUE: find_first_greater_than:xy <- [DW_OP_plus_uconst 8, DW_OP_stack_value] $sp
	;DEBUG_VALUE: find_first_greater_than:table <- $x21
	;DEBUG_VALUE: find_first_greater_than:operand <- $x19
	;DEBUG_VALUE: emulate_AMX_GENLUT:table <- $x21
	;DEBUG_VALUE: emulate_AMX_GENLUT:mode <- $x26
	;DEBUG_VALUE: emulate_AMX_GENLUT:state <- $x20
	;DEBUG_VALUE: emulate_AMX_GENLUT:operand <- $x19
	;DEBUG_VALUE: v <- 3
	.loc	2 22 13                         ; genlut.c:22:13
	ldr	w14, [x21, #12]
Ltmp274:
	.loc	2 22 13                         ; genlut.c:22:13
	cmp	w14, w13
	b.le	LBB1_142
Ltmp275:
; %bb.141:                              ;   in Loop: Header=BB1_135 Depth=1
	;DEBUG_VALUE: v <- 3
	;DEBUG_VALUE: i <- $x8
	;DEBUG_VALUE: find_first_greater_than:mode <- $w26
	;DEBUG_VALUE: find_first_greater_than:vs <- [DW_OP_plus_uconst 72, DW_OP_stack_value] $sp
	;DEBUG_VALUE: find_first_greater_than:xy <- [DW_OP_plus_uconst 8, DW_OP_stack_value] $sp
	;DEBUG_VALUE: find_first_greater_than:table <- $x21
	;DEBUG_VALUE: find_first_greater_than:operand <- $x19
	;DEBUG_VALUE: emulate_AMX_GENLUT:table <- $x21
	;DEBUG_VALUE: emulate_AMX_GENLUT:mode <- $x26
	;DEBUG_VALUE: emulate_AMX_GENLUT:state <- $x20
	;DEBUG_VALUE: emulate_AMX_GENLUT:operand <- $x19
	.loc	2 0 13                          ; genlut.c:0:13
	mov	w13, #2
	b	LBB1_134
Ltmp276:
LBB1_142:                               ;   in Loop: Header=BB1_135 Depth=1
	;DEBUG_VALUE: v <- 3
	;DEBUG_VALUE: i <- $x8
	;DEBUG_VALUE: find_first_greater_than:mode <- $w26
	;DEBUG_VALUE: find_first_greater_than:vs <- [DW_OP_plus_uconst 72, DW_OP_stack_value] $sp
	;DEBUG_VALUE: find_first_greater_than:xy <- [DW_OP_plus_uconst 8, DW_OP_stack_value] $sp
	;DEBUG_VALUE: find_first_greater_than:table <- $x21
	;DEBUG_VALUE: find_first_greater_than:operand <- $x19
	;DEBUG_VALUE: emulate_AMX_GENLUT:table <- $x21
	;DEBUG_VALUE: emulate_AMX_GENLUT:mode <- $x26
	;DEBUG_VALUE: emulate_AMX_GENLUT:state <- $x20
	;DEBUG_VALUE: emulate_AMX_GENLUT:operand <- $x19
	;DEBUG_VALUE: v <- 4
	.loc	2 22 13                         ; genlut.c:22:13
	ldr	w14, [x21, #16]
Ltmp277:
	.loc	2 22 13                         ; genlut.c:22:13
	cmp	w14, w13
	b.le	LBB1_144
Ltmp278:
; %bb.143:                              ;   in Loop: Header=BB1_135 Depth=1
	;DEBUG_VALUE: v <- 4
	;DEBUG_VALUE: i <- $x8
	;DEBUG_VALUE: find_first_greater_than:mode <- $w26
	;DEBUG_VALUE: find_first_greater_than:vs <- [DW_OP_plus_uconst 72, DW_OP_stack_value] $sp
	;DEBUG_VALUE: find_first_greater_than:xy <- [DW_OP_plus_uconst 8, DW_OP_stack_value] $sp
	;DEBUG_VALUE: find_first_greater_than:table <- $x21
	;DEBUG_VALUE: find_first_greater_than:operand <- $x19
	;DEBUG_VALUE: emulate_AMX_GENLUT:table <- $x21
	;DEBUG_VALUE: emulate_AMX_GENLUT:mode <- $x26
	;DEBUG_VALUE: emulate_AMX_GENLUT:state <- $x20
	;DEBUG_VALUE: emulate_AMX_GENLUT:operand <- $x19
	.loc	2 0 13                          ; genlut.c:0:13
	mov	w13, #3
	b	LBB1_134
Ltmp279:
LBB1_144:                               ;   in Loop: Header=BB1_135 Depth=1
	;DEBUG_VALUE: v <- 4
	;DEBUG_VALUE: i <- $x8
	;DEBUG_VALUE: find_first_greater_than:mode <- $w26
	;DEBUG_VALUE: find_first_greater_than:vs <- [DW_OP_plus_uconst 72, DW_OP_stack_value] $sp
	;DEBUG_VALUE: find_first_greater_than:xy <- [DW_OP_plus_uconst 8, DW_OP_stack_value] $sp
	;DEBUG_VALUE: find_first_greater_than:table <- $x21
	;DEBUG_VALUE: find_first_greater_than:operand <- $x19
	;DEBUG_VALUE: emulate_AMX_GENLUT:table <- $x21
	;DEBUG_VALUE: emulate_AMX_GENLUT:mode <- $x26
	;DEBUG_VALUE: emulate_AMX_GENLUT:state <- $x20
	;DEBUG_VALUE: emulate_AMX_GENLUT:operand <- $x19
	;DEBUG_VALUE: v <- 5
	.loc	2 22 13                         ; genlut.c:22:13
	ldr	w14, [x21, #20]
Ltmp280:
	.loc	2 22 13                         ; genlut.c:22:13
	cmp	w14, w13
	b.le	LBB1_146
Ltmp281:
; %bb.145:                              ;   in Loop: Header=BB1_135 Depth=1
	;DEBUG_VALUE: v <- 5
	;DEBUG_VALUE: i <- $x8
	;DEBUG_VALUE: find_first_greater_than:mode <- $w26
	;DEBUG_VALUE: find_first_greater_than:vs <- [DW_OP_plus_uconst 72, DW_OP_stack_value] $sp
	;DEBUG_VALUE: find_first_greater_than:xy <- [DW_OP_plus_uconst 8, DW_OP_stack_value] $sp
	;DEBUG_VALUE: find_first_greater_than:table <- $x21
	;DEBUG_VALUE: find_first_greater_than:operand <- $x19
	;DEBUG_VALUE: emulate_AMX_GENLUT:table <- $x21
	;DEBUG_VALUE: emulate_AMX_GENLUT:mode <- $x26
	;DEBUG_VALUE: emulate_AMX_GENLUT:state <- $x20
	;DEBUG_VALUE: emulate_AMX_GENLUT:operand <- $x19
	.loc	2 0 13                          ; genlut.c:0:13
	mov	w13, #4
	b	LBB1_134
Ltmp282:
LBB1_146:                               ;   in Loop: Header=BB1_135 Depth=1
	;DEBUG_VALUE: v <- 5
	;DEBUG_VALUE: i <- $x8
	;DEBUG_VALUE: find_first_greater_than:mode <- $w26
	;DEBUG_VALUE: find_first_greater_than:vs <- [DW_OP_plus_uconst 72, DW_OP_stack_value] $sp
	;DEBUG_VALUE: find_first_greater_than:xy <- [DW_OP_plus_uconst 8, DW_OP_stack_value] $sp
	;DEBUG_VALUE: find_first_greater_than:table <- $x21
	;DEBUG_VALUE: find_first_greater_than:operand <- $x19
	;DEBUG_VALUE: emulate_AMX_GENLUT:table <- $x21
	;DEBUG_VALUE: emulate_AMX_GENLUT:mode <- $x26
	;DEBUG_VALUE: emulate_AMX_GENLUT:state <- $x20
	;DEBUG_VALUE: emulate_AMX_GENLUT:operand <- $x19
	;DEBUG_VALUE: v <- 6
	.loc	2 22 13                         ; genlut.c:22:13
	ldr	w14, [x21, #24]
Ltmp283:
	.loc	2 22 13                         ; genlut.c:22:13
	cmp	w14, w13
	b.le	LBB1_148
Ltmp284:
; %bb.147:                              ;   in Loop: Header=BB1_135 Depth=1
	;DEBUG_VALUE: v <- 6
	;DEBUG_VALUE: i <- $x8
	;DEBUG_VALUE: find_first_greater_than:mode <- $w26
	;DEBUG_VALUE: find_first_greater_than:vs <- [DW_OP_plus_uconst 72, DW_OP_stack_value] $sp
	;DEBUG_VALUE: find_first_greater_than:xy <- [DW_OP_plus_uconst 8, DW_OP_stack_value] $sp
	;DEBUG_VALUE: find_first_greater_than:table <- $x21
	;DEBUG_VALUE: find_first_greater_than:operand <- $x19
	;DEBUG_VALUE: emulate_AMX_GENLUT:table <- $x21
	;DEBUG_VALUE: emulate_AMX_GENLUT:mode <- $x26
	;DEBUG_VALUE: emulate_AMX_GENLUT:state <- $x20
	;DEBUG_VALUE: emulate_AMX_GENLUT:operand <- $x19
	.loc	2 0 13                          ; genlut.c:0:13
	mov	w13, #5
	b	LBB1_134
Ltmp285:
LBB1_148:                               ;   in Loop: Header=BB1_135 Depth=1
	;DEBUG_VALUE: v <- 6
	;DEBUG_VALUE: i <- $x8
	;DEBUG_VALUE: find_first_greater_than:mode <- $w26
	;DEBUG_VALUE: find_first_greater_than:vs <- [DW_OP_plus_uconst 72, DW_OP_stack_value] $sp
	;DEBUG_VALUE: find_first_greater_than:xy <- [DW_OP_plus_uconst 8, DW_OP_stack_value] $sp
	;DEBUG_VALUE: find_first_greater_than:table <- $x21
	;DEBUG_VALUE: find_first_greater_than:operand <- $x19
	;DEBUG_VALUE: emulate_AMX_GENLUT:table <- $x21
	;DEBUG_VALUE: emulate_AMX_GENLUT:mode <- $x26
	;DEBUG_VALUE: emulate_AMX_GENLUT:state <- $x20
	;DEBUG_VALUE: emulate_AMX_GENLUT:operand <- $x19
	;DEBUG_VALUE: v <- 7
	.loc	2 22 13                         ; genlut.c:22:13
	ldr	w14, [x21, #28]
Ltmp286:
	.loc	2 22 13                         ; genlut.c:22:13
	cmp	w14, w13
	b.le	LBB1_150
Ltmp287:
; %bb.149:                              ;   in Loop: Header=BB1_135 Depth=1
	;DEBUG_VALUE: v <- 7
	;DEBUG_VALUE: i <- $x8
	;DEBUG_VALUE: find_first_greater_than:mode <- $w26
	;DEBUG_VALUE: find_first_greater_than:vs <- [DW_OP_plus_uconst 72, DW_OP_stack_value] $sp
	;DEBUG_VALUE: find_first_greater_than:xy <- [DW_OP_plus_uconst 8, DW_OP_stack_value] $sp
	;DEBUG_VALUE: find_first_greater_than:table <- $x21
	;DEBUG_VALUE: find_first_greater_than:operand <- $x19
	;DEBUG_VALUE: emulate_AMX_GENLUT:table <- $x21
	;DEBUG_VALUE: emulate_AMX_GENLUT:mode <- $x26
	;DEBUG_VALUE: emulate_AMX_GENLUT:state <- $x20
	;DEBUG_VALUE: emulate_AMX_GENLUT:operand <- $x19
	.loc	2 0 13                          ; genlut.c:0:13
	mov	w13, #6
	b	LBB1_134
Ltmp288:
LBB1_150:                               ;   in Loop: Header=BB1_135 Depth=1
	;DEBUG_VALUE: v <- 7
	;DEBUG_VALUE: i <- $x8
	;DEBUG_VALUE: find_first_greater_than:mode <- $w26
	;DEBUG_VALUE: find_first_greater_than:vs <- [DW_OP_plus_uconst 72, DW_OP_stack_value] $sp
	;DEBUG_VALUE: find_first_greater_than:xy <- [DW_OP_plus_uconst 8, DW_OP_stack_value] $sp
	;DEBUG_VALUE: find_first_greater_than:table <- $x21
	;DEBUG_VALUE: find_first_greater_than:operand <- $x19
	;DEBUG_VALUE: emulate_AMX_GENLUT:table <- $x21
	;DEBUG_VALUE: emulate_AMX_GENLUT:mode <- $x26
	;DEBUG_VALUE: emulate_AMX_GENLUT:state <- $x20
	;DEBUG_VALUE: emulate_AMX_GENLUT:operand <- $x19
	;DEBUG_VALUE: v <- 8
	.loc	2 22 13                         ; genlut.c:22:13
	ldr	w14, [x21, #32]
Ltmp289:
	.loc	2 22 13                         ; genlut.c:22:13
	cmp	w14, w13
	b.le	LBB1_152
Ltmp290:
; %bb.151:                              ;   in Loop: Header=BB1_135 Depth=1
	;DEBUG_VALUE: v <- 8
	;DEBUG_VALUE: i <- $x8
	;DEBUG_VALUE: find_first_greater_than:mode <- $w26
	;DEBUG_VALUE: find_first_greater_than:vs <- [DW_OP_plus_uconst 72, DW_OP_stack_value] $sp
	;DEBUG_VALUE: find_first_greater_than:xy <- [DW_OP_plus_uconst 8, DW_OP_stack_value] $sp
	;DEBUG_VALUE: find_first_greater_than:table <- $x21
	;DEBUG_VALUE: find_first_greater_than:operand <- $x19
	;DEBUG_VALUE: emulate_AMX_GENLUT:table <- $x21
	;DEBUG_VALUE: emulate_AMX_GENLUT:mode <- $x26
	;DEBUG_VALUE: emulate_AMX_GENLUT:state <- $x20
	;DEBUG_VALUE: emulate_AMX_GENLUT:operand <- $x19
	.loc	2 0 13                          ; genlut.c:0:13
	mov	w13, #7
	b	LBB1_134
Ltmp291:
LBB1_152:                               ;   in Loop: Header=BB1_135 Depth=1
	;DEBUG_VALUE: v <- 8
	;DEBUG_VALUE: i <- $x8
	;DEBUG_VALUE: find_first_greater_than:mode <- $w26
	;DEBUG_VALUE: find_first_greater_than:vs <- [DW_OP_plus_uconst 72, DW_OP_stack_value] $sp
	;DEBUG_VALUE: find_first_greater_than:xy <- [DW_OP_plus_uconst 8, DW_OP_stack_value] $sp
	;DEBUG_VALUE: find_first_greater_than:table <- $x21
	;DEBUG_VALUE: find_first_greater_than:operand <- $x19
	;DEBUG_VALUE: emulate_AMX_GENLUT:table <- $x21
	;DEBUG_VALUE: emulate_AMX_GENLUT:mode <- $x26
	;DEBUG_VALUE: emulate_AMX_GENLUT:state <- $x20
	;DEBUG_VALUE: emulate_AMX_GENLUT:operand <- $x19
	;DEBUG_VALUE: v <- 9
	.loc	2 22 13                         ; genlut.c:22:13
	ldr	w14, [x21, #36]
Ltmp292:
	.loc	2 22 13                         ; genlut.c:22:13
	cmp	w14, w13
	b.le	LBB1_154
Ltmp293:
; %bb.153:                              ;   in Loop: Header=BB1_135 Depth=1
	;DEBUG_VALUE: v <- 9
	;DEBUG_VALUE: i <- $x8
	;DEBUG_VALUE: find_first_greater_than:mode <- $w26
	;DEBUG_VALUE: find_first_greater_than:vs <- [DW_OP_plus_uconst 72, DW_OP_stack_value] $sp
	;DEBUG_VALUE: find_first_greater_than:xy <- [DW_OP_plus_uconst 8, DW_OP_stack_value] $sp
	;DEBUG_VALUE: find_first_greater_than:table <- $x21
	;DEBUG_VALUE: find_first_greater_than:operand <- $x19
	;DEBUG_VALUE: emulate_AMX_GENLUT:table <- $x21
	;DEBUG_VALUE: emulate_AMX_GENLUT:mode <- $x26
	;DEBUG_VALUE: emulate_AMX_GENLUT:state <- $x20
	;DEBUG_VALUE: emulate_AMX_GENLUT:operand <- $x19
	.loc	2 0 13                          ; genlut.c:0:13
	mov	w13, #8
	b	LBB1_134
Ltmp294:
LBB1_154:                               ;   in Loop: Header=BB1_135 Depth=1
	;DEBUG_VALUE: v <- 9
	;DEBUG_VALUE: i <- $x8
	;DEBUG_VALUE: find_first_greater_than:mode <- $w26
	;DEBUG_VALUE: find_first_greater_than:vs <- [DW_OP_plus_uconst 72, DW_OP_stack_value] $sp
	;DEBUG_VALUE: find_first_greater_than:xy <- [DW_OP_plus_uconst 8, DW_OP_stack_value] $sp
	;DEBUG_VALUE: find_first_greater_than:table <- $x21
	;DEBUG_VALUE: find_first_greater_than:operand <- $x19
	;DEBUG_VALUE: emulate_AMX_GENLUT:table <- $x21
	;DEBUG_VALUE: emulate_AMX_GENLUT:mode <- $x26
	;DEBUG_VALUE: emulate_AMX_GENLUT:state <- $x20
	;DEBUG_VALUE: emulate_AMX_GENLUT:operand <- $x19
	;DEBUG_VALUE: v <- 10
	.loc	2 22 13                         ; genlut.c:22:13
	ldr	w14, [x21, #40]
Ltmp295:
	.loc	2 22 13                         ; genlut.c:22:13
	cmp	w14, w13
	b.le	LBB1_156
Ltmp296:
; %bb.155:                              ;   in Loop: Header=BB1_135 Depth=1
	;DEBUG_VALUE: v <- 10
	;DEBUG_VALUE: i <- $x8
	;DEBUG_VALUE: find_first_greater_than:mode <- $w26
	;DEBUG_VALUE: find_first_greater_than:vs <- [DW_OP_plus_uconst 72, DW_OP_stack_value] $sp
	;DEBUG_VALUE: find_first_greater_than:xy <- [DW_OP_plus_uconst 8, DW_OP_stack_value] $sp
	;DEBUG_VALUE: find_first_greater_than:table <- $x21
	;DEBUG_VALUE: find_first_greater_than:operand <- $x19
	;DEBUG_VALUE: emulate_AMX_GENLUT:table <- $x21
	;DEBUG_VALUE: emulate_AMX_GENLUT:mode <- $x26
	;DEBUG_VALUE: emulate_AMX_GENLUT:state <- $x20
	;DEBUG_VALUE: emulate_AMX_GENLUT:operand <- $x19
	.loc	2 0 13                          ; genlut.c:0:13
	mov	w13, #9
	b	LBB1_134
Ltmp297:
LBB1_156:                               ;   in Loop: Header=BB1_135 Depth=1
	;DEBUG_VALUE: v <- 10
	;DEBUG_VALUE: i <- $x8
	;DEBUG_VALUE: find_first_greater_than:mode <- $w26
	;DEBUG_VALUE: find_first_greater_than:vs <- [DW_OP_plus_uconst 72, DW_OP_stack_value] $sp
	;DEBUG_VALUE: find_first_greater_than:xy <- [DW_OP_plus_uconst 8, DW_OP_stack_value] $sp
	;DEBUG_VALUE: find_first_greater_than:table <- $x21
	;DEBUG_VALUE: find_first_greater_than:operand <- $x19
	;DEBUG_VALUE: emulate_AMX_GENLUT:table <- $x21
	;DEBUG_VALUE: emulate_AMX_GENLUT:mode <- $x26
	;DEBUG_VALUE: emulate_AMX_GENLUT:state <- $x20
	;DEBUG_VALUE: emulate_AMX_GENLUT:operand <- $x19
	;DEBUG_VALUE: v <- 11
	.loc	2 22 13                         ; genlut.c:22:13
	ldr	w14, [x21, #44]
Ltmp298:
	.loc	2 22 13                         ; genlut.c:22:13
	cmp	w14, w13
	b.le	LBB1_158
Ltmp299:
; %bb.157:                              ;   in Loop: Header=BB1_135 Depth=1
	;DEBUG_VALUE: v <- 11
	;DEBUG_VALUE: i <- $x8
	;DEBUG_VALUE: find_first_greater_than:mode <- $w26
	;DEBUG_VALUE: find_first_greater_than:vs <- [DW_OP_plus_uconst 72, DW_OP_stack_value] $sp
	;DEBUG_VALUE: find_first_greater_than:xy <- [DW_OP_plus_uconst 8, DW_OP_stack_value] $sp
	;DEBUG_VALUE: find_first_greater_than:table <- $x21
	;DEBUG_VALUE: find_first_greater_than:operand <- $x19
	;DEBUG_VALUE: emulate_AMX_GENLUT:table <- $x21
	;DEBUG_VALUE: emulate_AMX_GENLUT:mode <- $x26
	;DEBUG_VALUE: emulate_AMX_GENLUT:state <- $x20
	;DEBUG_VALUE: emulate_AMX_GENLUT:operand <- $x19
	.loc	2 0 13                          ; genlut.c:0:13
	mov	w13, #10
	b	LBB1_134
Ltmp300:
LBB1_158:                               ;   in Loop: Header=BB1_135 Depth=1
	;DEBUG_VALUE: v <- 11
	;DEBUG_VALUE: i <- $x8
	;DEBUG_VALUE: find_first_greater_than:mode <- $w26
	;DEBUG_VALUE: find_first_greater_than:vs <- [DW_OP_plus_uconst 72, DW_OP_stack_value] $sp
	;DEBUG_VALUE: find_first_greater_than:xy <- [DW_OP_plus_uconst 8, DW_OP_stack_value] $sp
	;DEBUG_VALUE: find_first_greater_than:table <- $x21
	;DEBUG_VALUE: find_first_greater_than:operand <- $x19
	;DEBUG_VALUE: emulate_AMX_GENLUT:table <- $x21
	;DEBUG_VALUE: emulate_AMX_GENLUT:mode <- $x26
	;DEBUG_VALUE: emulate_AMX_GENLUT:state <- $x20
	;DEBUG_VALUE: emulate_AMX_GENLUT:operand <- $x19
	;DEBUG_VALUE: v <- 12
	.loc	2 22 13                         ; genlut.c:22:13
	ldr	w14, [x21, #48]
Ltmp301:
	.loc	2 22 13                         ; genlut.c:22:13
	cmp	w14, w13
	b.le	LBB1_160
Ltmp302:
; %bb.159:                              ;   in Loop: Header=BB1_135 Depth=1
	;DEBUG_VALUE: v <- 12
	;DEBUG_VALUE: i <- $x8
	;DEBUG_VALUE: find_first_greater_than:mode <- $w26
	;DEBUG_VALUE: find_first_greater_than:vs <- [DW_OP_plus_uconst 72, DW_OP_stack_value] $sp
	;DEBUG_VALUE: find_first_greater_than:xy <- [DW_OP_plus_uconst 8, DW_OP_stack_value] $sp
	;DEBUG_VALUE: find_first_greater_than:table <- $x21
	;DEBUG_VALUE: find_first_greater_than:operand <- $x19
	;DEBUG_VALUE: emulate_AMX_GENLUT:table <- $x21
	;DEBUG_VALUE: emulate_AMX_GENLUT:mode <- $x26
	;DEBUG_VALUE: emulate_AMX_GENLUT:state <- $x20
	;DEBUG_VALUE: emulate_AMX_GENLUT:operand <- $x19
	.loc	2 0 13                          ; genlut.c:0:13
	mov	w13, #11
	b	LBB1_134
Ltmp303:
LBB1_160:                               ;   in Loop: Header=BB1_135 Depth=1
	;DEBUG_VALUE: v <- 12
	;DEBUG_VALUE: i <- $x8
	;DEBUG_VALUE: find_first_greater_than:mode <- $w26
	;DEBUG_VALUE: find_first_greater_than:vs <- [DW_OP_plus_uconst 72, DW_OP_stack_value] $sp
	;DEBUG_VALUE: find_first_greater_than:xy <- [DW_OP_plus_uconst 8, DW_OP_stack_value] $sp
	;DEBUG_VALUE: find_first_greater_than:table <- $x21
	;DEBUG_VALUE: find_first_greater_than:operand <- $x19
	;DEBUG_VALUE: emulate_AMX_GENLUT:table <- $x21
	;DEBUG_VALUE: emulate_AMX_GENLUT:mode <- $x26
	;DEBUG_VALUE: emulate_AMX_GENLUT:state <- $x20
	;DEBUG_VALUE: emulate_AMX_GENLUT:operand <- $x19
	;DEBUG_VALUE: v <- 13
	.loc	2 22 13                         ; genlut.c:22:13
	ldr	w14, [x21, #52]
Ltmp304:
	.loc	2 22 13                         ; genlut.c:22:13
	cmp	w14, w13
	b.le	LBB1_162
Ltmp305:
; %bb.161:                              ;   in Loop: Header=BB1_135 Depth=1
	;DEBUG_VALUE: v <- 13
	;DEBUG_VALUE: i <- $x8
	;DEBUG_VALUE: find_first_greater_than:mode <- $w26
	;DEBUG_VALUE: find_first_greater_than:vs <- [DW_OP_plus_uconst 72, DW_OP_stack_value] $sp
	;DEBUG_VALUE: find_first_greater_than:xy <- [DW_OP_plus_uconst 8, DW_OP_stack_value] $sp
	;DEBUG_VALUE: find_first_greater_than:table <- $x21
	;DEBUG_VALUE: find_first_greater_than:operand <- $x19
	;DEBUG_VALUE: emulate_AMX_GENLUT:table <- $x21
	;DEBUG_VALUE: emulate_AMX_GENLUT:mode <- $x26
	;DEBUG_VALUE: emulate_AMX_GENLUT:state <- $x20
	;DEBUG_VALUE: emulate_AMX_GENLUT:operand <- $x19
	.loc	2 0 13                          ; genlut.c:0:13
	mov	w13, #12
	b	LBB1_134
Ltmp306:
LBB1_162:                               ;   in Loop: Header=BB1_135 Depth=1
	;DEBUG_VALUE: v <- 13
	;DEBUG_VALUE: i <- $x8
	;DEBUG_VALUE: find_first_greater_than:mode <- $w26
	;DEBUG_VALUE: find_first_greater_than:vs <- [DW_OP_plus_uconst 72, DW_OP_stack_value] $sp
	;DEBUG_VALUE: find_first_greater_than:xy <- [DW_OP_plus_uconst 8, DW_OP_stack_value] $sp
	;DEBUG_VALUE: find_first_greater_than:table <- $x21
	;DEBUG_VALUE: find_first_greater_than:operand <- $x19
	;DEBUG_VALUE: emulate_AMX_GENLUT:table <- $x21
	;DEBUG_VALUE: emulate_AMX_GENLUT:mode <- $x26
	;DEBUG_VALUE: emulate_AMX_GENLUT:state <- $x20
	;DEBUG_VALUE: emulate_AMX_GENLUT:operand <- $x19
	;DEBUG_VALUE: v <- 14
	.loc	2 22 13                         ; genlut.c:22:13
	ldr	w14, [x21, #56]
Ltmp307:
	.loc	2 22 13                         ; genlut.c:22:13
	cmp	w14, w13
	b.le	LBB1_164
Ltmp308:
; %bb.163:                              ;   in Loop: Header=BB1_135 Depth=1
	;DEBUG_VALUE: v <- 14
	;DEBUG_VALUE: i <- $x8
	;DEBUG_VALUE: find_first_greater_than:mode <- $w26
	;DEBUG_VALUE: find_first_greater_than:vs <- [DW_OP_plus_uconst 72, DW_OP_stack_value] $sp
	;DEBUG_VALUE: find_first_greater_than:xy <- [DW_OP_plus_uconst 8, DW_OP_stack_value] $sp
	;DEBUG_VALUE: find_first_greater_than:table <- $x21
	;DEBUG_VALUE: find_first_greater_than:operand <- $x19
	;DEBUG_VALUE: emulate_AMX_GENLUT:table <- $x21
	;DEBUG_VALUE: emulate_AMX_GENLUT:mode <- $x26
	;DEBUG_VALUE: emulate_AMX_GENLUT:state <- $x20
	;DEBUG_VALUE: emulate_AMX_GENLUT:operand <- $x19
	.loc	2 0 13                          ; genlut.c:0:13
	mov	w13, #13
	b	LBB1_134
Ltmp309:
LBB1_164:                               ;   in Loop: Header=BB1_135 Depth=1
	;DEBUG_VALUE: v <- 14
	;DEBUG_VALUE: i <- $x8
	;DEBUG_VALUE: find_first_greater_than:mode <- $w26
	;DEBUG_VALUE: find_first_greater_than:vs <- [DW_OP_plus_uconst 72, DW_OP_stack_value] $sp
	;DEBUG_VALUE: find_first_greater_than:xy <- [DW_OP_plus_uconst 8, DW_OP_stack_value] $sp
	;DEBUG_VALUE: find_first_greater_than:table <- $x21
	;DEBUG_VALUE: find_first_greater_than:operand <- $x19
	;DEBUG_VALUE: emulate_AMX_GENLUT:table <- $x21
	;DEBUG_VALUE: emulate_AMX_GENLUT:mode <- $x26
	;DEBUG_VALUE: emulate_AMX_GENLUT:state <- $x20
	;DEBUG_VALUE: emulate_AMX_GENLUT:operand <- $x19
	;DEBUG_VALUE: v <- 15
	.loc	2 22 13                         ; genlut.c:22:13
	ldr	w14, [x21, #60]
Ltmp310:
	.loc	2 22 13                         ; genlut.c:22:13
	cmp	w14, w13
	cinc	w13, w12, le
	b	LBB1_134
Ltmp311:
LBB1_165:
	;DEBUG_VALUE: find_first_greater_than:mode <- $w26
	;DEBUG_VALUE: find_first_greater_than:vs <- [DW_OP_plus_uconst 72, DW_OP_stack_value] $sp
	;DEBUG_VALUE: find_first_greater_than:xy <- [DW_OP_plus_uconst 8, DW_OP_stack_value] $sp
	;DEBUG_VALUE: find_first_greater_than:table <- $x21
	;DEBUG_VALUE: find_first_greater_than:operand <- $x19
	;DEBUG_VALUE: emulate_AMX_GENLUT:table <- $x21
	;DEBUG_VALUE: emulate_AMX_GENLUT:mode <- $x26
	;DEBUG_VALUE: emulate_AMX_GENLUT:state <- $x20
	;DEBUG_VALUE: emulate_AMX_GENLUT:operand <- $x19
	.loc	2 20 41 is_stmt 1               ; genlut.c:20:41
	tbz	w19, #30, LBB1_270
Ltmp312:
; %bb.166:
	;DEBUG_VALUE: find_first_greater_than:mode <- $w26
	;DEBUG_VALUE: find_first_greater_than:vs <- [DW_OP_plus_uconst 72, DW_OP_stack_value] $sp
	;DEBUG_VALUE: find_first_greater_than:xy <- [DW_OP_plus_uconst 8, DW_OP_stack_value] $sp
	;DEBUG_VALUE: find_first_greater_than:table <- $x21
	;DEBUG_VALUE: find_first_greater_than:operand <- $x19
	;DEBUG_VALUE: emulate_AMX_GENLUT:table <- $x21
	;DEBUG_VALUE: emulate_AMX_GENLUT:mode <- $x26
	;DEBUG_VALUE: emulate_AMX_GENLUT:state <- $x20
	;DEBUG_VALUE: emulate_AMX_GENLUT:operand <- $x19
	.loc	2 0 0 is_stmt 0                 ; genlut.c:0:0
Lloh13:
	adrp	x8, _AMX_VER@GOTPAGE
Lloh14:
	ldr	x8, [x8, _AMX_VER@GOTPAGEOFF]
Lloh15:
	ldr	w8, [x8]
	.loc	2 20 41                         ; genlut.c:20:41
	cmp	w8, #2
	b.lo	LBB1_270
Ltmp313:
; %bb.167:
	;DEBUG_VALUE: find_first_greater_than:mode <- $w26
	;DEBUG_VALUE: find_first_greater_than:vs <- [DW_OP_plus_uconst 72, DW_OP_stack_value] $sp
	;DEBUG_VALUE: find_first_greater_than:xy <- [DW_OP_plus_uconst 8, DW_OP_stack_value] $sp
	;DEBUG_VALUE: find_first_greater_than:table <- $x21
	;DEBUG_VALUE: find_first_greater_than:operand <- $x19
	;DEBUG_VALUE: emulate_AMX_GENLUT:table <- $x21
	;DEBUG_VALUE: emulate_AMX_GENLUT:mode <- $x26
	;DEBUG_VALUE: emulate_AMX_GENLUT:state <- $x20
	;DEBUG_VALUE: emulate_AMX_GENLUT:operand <- $x19
	.loc	2 0 41                          ; genlut.c:0:41
	mov	x24, #0
	add	x26, sp, #8
Ltmp314:
	add	x27, sp, #72
	b	LBB1_169
Ltmp315:
LBB1_168:                               ;   in Loop: Header=BB1_169 Depth=1
	;DEBUG_VALUE: v <- $x28
	;DEBUG_VALUE: i <- $x24
	;DEBUG_VALUE: find_first_greater_than:vs <- [DW_OP_plus_uconst 72, DW_OP_stack_value] $sp
	;DEBUG_VALUE: find_first_greater_than:xy <- [DW_OP_plus_uconst 8, DW_OP_stack_value] $sp
	;DEBUG_VALUE: find_first_greater_than:table <- $x21
	;DEBUG_VALUE: find_first_greater_than:operand <- $x19
	;DEBUG_VALUE: emulate_AMX_GENLUT:table <- $x21
	;DEBUG_VALUE: emulate_AMX_GENLUT:state <- $x20
	;DEBUG_VALUE: emulate_AMX_GENLUT:operand <- $x19
	.loc	2 20 69                         ; genlut.c:20:69
	sub	w8, w28, #1
	strb	w8, [x27, x24]
Ltmp316:
	.loc	2 20 69                         ; genlut.c:20:69
	add	x24, x24, #1
Ltmp317:
	;DEBUG_VALUE: i <- $x24
	.loc	2 20 69                         ; genlut.c:20:69
	cmp	x24, #32
	b.eq	LBB1_337
Ltmp318:
LBB1_169:                               ; =>This Loop Header: Depth=1
                                        ;     Child Loop BB1_170 Depth 2
	;DEBUG_VALUE: find_first_greater_than:vs <- [DW_OP_plus_uconst 72, DW_OP_stack_value] $sp
	;DEBUG_VALUE: find_first_greater_than:xy <- [DW_OP_plus_uconst 8, DW_OP_stack_value] $sp
	;DEBUG_VALUE: find_first_greater_than:table <- $x21
	;DEBUG_VALUE: find_first_greater_than:operand <- $x19
	;DEBUG_VALUE: emulate_AMX_GENLUT:table <- $x21
	;DEBUG_VALUE: emulate_AMX_GENLUT:state <- $x20
	;DEBUG_VALUE: emulate_AMX_GENLUT:operand <- $x19
	;DEBUG_VALUE: i <- $x24
	;DEBUG_VALUE: v <- 0
	.loc	2 0 69                          ; genlut.c:0:69
	mov	x28, #0
Ltmp319:
LBB1_170:                               ;   Parent Loop BB1_169 Depth=1
                                        ; =>  This Inner Loop Header: Depth=2
	;DEBUG_VALUE: i <- $x24
	;DEBUG_VALUE: find_first_greater_than:vs <- [DW_OP_plus_uconst 72, DW_OP_stack_value] $sp
	;DEBUG_VALUE: find_first_greater_than:xy <- [DW_OP_plus_uconst 8, DW_OP_stack_value] $sp
	;DEBUG_VALUE: find_first_greater_than:table <- $x21
	;DEBUG_VALUE: find_first_greater_than:operand <- $x19
	;DEBUG_VALUE: emulate_AMX_GENLUT:table <- $x21
	;DEBUG_VALUE: emulate_AMX_GENLUT:state <- $x20
	;DEBUG_VALUE: emulate_AMX_GENLUT:operand <- $x19
	;DEBUG_VALUE: v <- $x28
	.loc	2 20 69                         ; genlut.c:20:69
	ldrh	w0, [x21, x28, lsl #1]
	bl	_bf16_to_f32
Ltmp320:
	fmov	s8, s0
	ldrh	w0, [x26, x24, lsl #1]
	bl	_bf16_to_f32
Ltmp321:
	.loc	2 20 69                         ; genlut.c:20:69
	fcmp	s8, s0
	b.gt	LBB1_168
Ltmp322:
; %bb.171:                              ;   in Loop: Header=BB1_170 Depth=2
	;DEBUG_VALUE: v <- $x28
	;DEBUG_VALUE: i <- $x24
	;DEBUG_VALUE: find_first_greater_than:vs <- [DW_OP_plus_uconst 72, DW_OP_stack_value] $sp
	;DEBUG_VALUE: find_first_greater_than:xy <- [DW_OP_plus_uconst 8, DW_OP_stack_value] $sp
	;DEBUG_VALUE: find_first_greater_than:table <- $x21
	;DEBUG_VALUE: find_first_greater_than:operand <- $x19
	;DEBUG_VALUE: emulate_AMX_GENLUT:table <- $x21
	;DEBUG_VALUE: emulate_AMX_GENLUT:state <- $x20
	;DEBUG_VALUE: emulate_AMX_GENLUT:operand <- $x19
	.loc	2 20 69                         ; genlut.c:20:69
	add	x28, x28, #1
Ltmp323:
	;DEBUG_VALUE: v <- $x28
	.loc	2 20 69                         ; genlut.c:20:69
	cmp	x28, #32
	b.ne	LBB1_170
	b	LBB1_168
Ltmp324:
LBB1_172:
	;DEBUG_VALUE: find_first_greater_than:mode <- $w26
	;DEBUG_VALUE: find_first_greater_than:vs <- [DW_OP_plus_uconst 72, DW_OP_stack_value] $sp
	;DEBUG_VALUE: find_first_greater_than:xy <- [DW_OP_plus_uconst 8, DW_OP_stack_value] $sp
	;DEBUG_VALUE: find_first_greater_than:table <- $x21
	;DEBUG_VALUE: find_first_greater_than:operand <- $x19
	;DEBUG_VALUE: emulate_AMX_GENLUT:table <- $x21
	;DEBUG_VALUE: emulate_AMX_GENLUT:mode <- $x26
	;DEBUG_VALUE: emulate_AMX_GENLUT:state <- $x20
	;DEBUG_VALUE: emulate_AMX_GENLUT:operand <- $x19
	.loc	2 0 69                          ; genlut.c:0:69
	mov	x8, #0
	ldr	w9, [x21]
	add	x10, sp, #8
	add	x11, sp, #72
	mov	w12, #14
	b	LBB1_175
Ltmp325:
LBB1_173:                               ;   in Loop: Header=BB1_175 Depth=1
	;DEBUG_VALUE: i <- $x8
	;DEBUG_VALUE: v <- 0
	;DEBUG_VALUE: find_first_greater_than:mode <- $w26
	;DEBUG_VALUE: find_first_greater_than:vs <- [DW_OP_plus_uconst 72, DW_OP_stack_value] $sp
	;DEBUG_VALUE: find_first_greater_than:xy <- [DW_OP_plus_uconst 8, DW_OP_stack_value] $sp
	;DEBUG_VALUE: find_first_greater_than:table <- $x21
	;DEBUG_VALUE: find_first_greater_than:operand <- $x19
	;DEBUG_VALUE: emulate_AMX_GENLUT:table <- $x21
	;DEBUG_VALUE: emulate_AMX_GENLUT:mode <- $x26
	;DEBUG_VALUE: emulate_AMX_GENLUT:state <- $x20
	;DEBUG_VALUE: emulate_AMX_GENLUT:operand <- $x19
	mov	w13, #255
Ltmp326:
LBB1_174:                               ;   in Loop: Header=BB1_175 Depth=1
	;DEBUG_VALUE: i <- $x8
	;DEBUG_VALUE: find_first_greater_than:mode <- $w26
	;DEBUG_VALUE: find_first_greater_than:vs <- [DW_OP_plus_uconst 72, DW_OP_stack_value] $sp
	;DEBUG_VALUE: find_first_greater_than:xy <- [DW_OP_plus_uconst 8, DW_OP_stack_value] $sp
	;DEBUG_VALUE: find_first_greater_than:table <- $x21
	;DEBUG_VALUE: find_first_greater_than:operand <- $x19
	;DEBUG_VALUE: emulate_AMX_GENLUT:table <- $x21
	;DEBUG_VALUE: emulate_AMX_GENLUT:mode <- $x26
	;DEBUG_VALUE: emulate_AMX_GENLUT:state <- $x20
	;DEBUG_VALUE: emulate_AMX_GENLUT:operand <- $x19
	.loc	2 24 13 is_stmt 1               ; genlut.c:24:13
	strb	w13, [x11, x8]
Ltmp327:
	.loc	2 24 13 is_stmt 0               ; genlut.c:24:13
	add	x8, x8, #1
Ltmp328:
	;DEBUG_VALUE: i <- $x8
	.loc	2 24 13                         ; genlut.c:24:13
	cmp	x8, #16
	b.eq	LBB1_337
Ltmp329:
LBB1_175:                               ; =>This Inner Loop Header: Depth=1
	;DEBUG_VALUE: find_first_greater_than:mode <- $w26
	;DEBUG_VALUE: find_first_greater_than:vs <- [DW_OP_plus_uconst 72, DW_OP_stack_value] $sp
	;DEBUG_VALUE: find_first_greater_than:xy <- [DW_OP_plus_uconst 8, DW_OP_stack_value] $sp
	;DEBUG_VALUE: find_first_greater_than:table <- $x21
	;DEBUG_VALUE: find_first_greater_than:operand <- $x19
	;DEBUG_VALUE: emulate_AMX_GENLUT:table <- $x21
	;DEBUG_VALUE: emulate_AMX_GENLUT:mode <- $x26
	;DEBUG_VALUE: emulate_AMX_GENLUT:state <- $x20
	;DEBUG_VALUE: emulate_AMX_GENLUT:operand <- $x19
	.loc	2 0 13                          ; genlut.c:0:13
	ldr	w13, [x10, x8, lsl #2]
Ltmp330:
	;DEBUG_VALUE: v <- 0
	;DEBUG_VALUE: i <- $x8
	.loc	2 24 13                         ; genlut.c:24:13
	cmp	w9, w13
	b.hi	LBB1_173
Ltmp331:
; %bb.176:                              ;   in Loop: Header=BB1_175 Depth=1
	;DEBUG_VALUE: i <- $x8
	;DEBUG_VALUE: v <- 0
	;DEBUG_VALUE: find_first_greater_than:mode <- $w26
	;DEBUG_VALUE: find_first_greater_than:vs <- [DW_OP_plus_uconst 72, DW_OP_stack_value] $sp
	;DEBUG_VALUE: find_first_greater_than:xy <- [DW_OP_plus_uconst 8, DW_OP_stack_value] $sp
	;DEBUG_VALUE: find_first_greater_than:table <- $x21
	;DEBUG_VALUE: find_first_greater_than:operand <- $x19
	;DEBUG_VALUE: emulate_AMX_GENLUT:table <- $x21
	;DEBUG_VALUE: emulate_AMX_GENLUT:mode <- $x26
	;DEBUG_VALUE: emulate_AMX_GENLUT:state <- $x20
	;DEBUG_VALUE: emulate_AMX_GENLUT:operand <- $x19
	;DEBUG_VALUE: v <- 1
	.loc	2 24 13                         ; genlut.c:24:13
	ldr	w14, [x21, #4]
Ltmp332:
	.loc	2 24 13                         ; genlut.c:24:13
	cmp	w14, w13
	b.ls	LBB1_178
Ltmp333:
; %bb.177:                              ;   in Loop: Header=BB1_175 Depth=1
	;DEBUG_VALUE: v <- 1
	;DEBUG_VALUE: i <- $x8
	;DEBUG_VALUE: find_first_greater_than:mode <- $w26
	;DEBUG_VALUE: find_first_greater_than:vs <- [DW_OP_plus_uconst 72, DW_OP_stack_value] $sp
	;DEBUG_VALUE: find_first_greater_than:xy <- [DW_OP_plus_uconst 8, DW_OP_stack_value] $sp
	;DEBUG_VALUE: find_first_greater_than:table <- $x21
	;DEBUG_VALUE: find_first_greater_than:operand <- $x19
	;DEBUG_VALUE: emulate_AMX_GENLUT:table <- $x21
	;DEBUG_VALUE: emulate_AMX_GENLUT:mode <- $x26
	;DEBUG_VALUE: emulate_AMX_GENLUT:state <- $x20
	;DEBUG_VALUE: emulate_AMX_GENLUT:operand <- $x19
	.loc	2 0 13                          ; genlut.c:0:13
	mov	w13, #0
	b	LBB1_174
Ltmp334:
LBB1_178:                               ;   in Loop: Header=BB1_175 Depth=1
	;DEBUG_VALUE: v <- 1
	;DEBUG_VALUE: i <- $x8
	;DEBUG_VALUE: find_first_greater_than:mode <- $w26
	;DEBUG_VALUE: find_first_greater_than:vs <- [DW_OP_plus_uconst 72, DW_OP_stack_value] $sp
	;DEBUG_VALUE: find_first_greater_than:xy <- [DW_OP_plus_uconst 8, DW_OP_stack_value] $sp
	;DEBUG_VALUE: find_first_greater_than:table <- $x21
	;DEBUG_VALUE: find_first_greater_than:operand <- $x19
	;DEBUG_VALUE: emulate_AMX_GENLUT:table <- $x21
	;DEBUG_VALUE: emulate_AMX_GENLUT:mode <- $x26
	;DEBUG_VALUE: emulate_AMX_GENLUT:state <- $x20
	;DEBUG_VALUE: emulate_AMX_GENLUT:operand <- $x19
	;DEBUG_VALUE: v <- 2
	.loc	2 24 13                         ; genlut.c:24:13
	ldr	w14, [x21, #8]
Ltmp335:
	.loc	2 24 13                         ; genlut.c:24:13
	cmp	w14, w13
	b.ls	LBB1_180
Ltmp336:
; %bb.179:                              ;   in Loop: Header=BB1_175 Depth=1
	;DEBUG_VALUE: v <- 2
	;DEBUG_VALUE: i <- $x8
	;DEBUG_VALUE: find_first_greater_than:mode <- $w26
	;DEBUG_VALUE: find_first_greater_than:vs <- [DW_OP_plus_uconst 72, DW_OP_stack_value] $sp
	;DEBUG_VALUE: find_first_greater_than:xy <- [DW_OP_plus_uconst 8, DW_OP_stack_value] $sp
	;DEBUG_VALUE: find_first_greater_than:table <- $x21
	;DEBUG_VALUE: find_first_greater_than:operand <- $x19
	;DEBUG_VALUE: emulate_AMX_GENLUT:table <- $x21
	;DEBUG_VALUE: emulate_AMX_GENLUT:mode <- $x26
	;DEBUG_VALUE: emulate_AMX_GENLUT:state <- $x20
	;DEBUG_VALUE: emulate_AMX_GENLUT:operand <- $x19
	.loc	2 0 13                          ; genlut.c:0:13
	mov	w13, #1
	b	LBB1_174
Ltmp337:
LBB1_180:                               ;   in Loop: Header=BB1_175 Depth=1
	;DEBUG_VALUE: v <- 2
	;DEBUG_VALUE: i <- $x8
	;DEBUG_VALUE: find_first_greater_than:mode <- $w26
	;DEBUG_VALUE: find_first_greater_than:vs <- [DW_OP_plus_uconst 72, DW_OP_stack_value] $sp
	;DEBUG_VALUE: find_first_greater_than:xy <- [DW_OP_plus_uconst 8, DW_OP_stack_value] $sp
	;DEBUG_VALUE: find_first_greater_than:table <- $x21
	;DEBUG_VALUE: find_first_greater_than:operand <- $x19
	;DEBUG_VALUE: emulate_AMX_GENLUT:table <- $x21
	;DEBUG_VALUE: emulate_AMX_GENLUT:mode <- $x26
	;DEBUG_VALUE: emulate_AMX_GENLUT:state <- $x20
	;DEBUG_VALUE: emulate_AMX_GENLUT:operand <- $x19
	;DEBUG_VALUE: v <- 3
	.loc	2 24 13                         ; genlut.c:24:13
	ldr	w14, [x21, #12]
Ltmp338:
	.loc	2 24 13                         ; genlut.c:24:13
	cmp	w14, w13
	b.ls	LBB1_182
Ltmp339:
; %bb.181:                              ;   in Loop: Header=BB1_175 Depth=1
	;DEBUG_VALUE: v <- 3
	;DEBUG_VALUE: i <- $x8
	;DEBUG_VALUE: find_first_greater_than:mode <- $w26
	;DEBUG_VALUE: find_first_greater_than:vs <- [DW_OP_plus_uconst 72, DW_OP_stack_value] $sp
	;DEBUG_VALUE: find_first_greater_than:xy <- [DW_OP_plus_uconst 8, DW_OP_stack_value] $sp
	;DEBUG_VALUE: find_first_greater_than:table <- $x21
	;DEBUG_VALUE: find_first_greater_than:operand <- $x19
	;DEBUG_VALUE: emulate_AMX_GENLUT:table <- $x21
	;DEBUG_VALUE: emulate_AMX_GENLUT:mode <- $x26
	;DEBUG_VALUE: emulate_AMX_GENLUT:state <- $x20
	;DEBUG_VALUE: emulate_AMX_GENLUT:operand <- $x19
	.loc	2 0 13                          ; genlut.c:0:13
	mov	w13, #2
	b	LBB1_174
Ltmp340:
LBB1_182:                               ;   in Loop: Header=BB1_175 Depth=1
	;DEBUG_VALUE: v <- 3
	;DEBUG_VALUE: i <- $x8
	;DEBUG_VALUE: find_first_greater_than:mode <- $w26
	;DEBUG_VALUE: find_first_greater_than:vs <- [DW_OP_plus_uconst 72, DW_OP_stack_value] $sp
	;DEBUG_VALUE: find_first_greater_than:xy <- [DW_OP_plus_uconst 8, DW_OP_stack_value] $sp
	;DEBUG_VALUE: find_first_greater_than:table <- $x21
	;DEBUG_VALUE: find_first_greater_than:operand <- $x19
	;DEBUG_VALUE: emulate_AMX_GENLUT:table <- $x21
	;DEBUG_VALUE: emulate_AMX_GENLUT:mode <- $x26
	;DEBUG_VALUE: emulate_AMX_GENLUT:state <- $x20
	;DEBUG_VALUE: emulate_AMX_GENLUT:operand <- $x19
	;DEBUG_VALUE: v <- 4
	.loc	2 24 13                         ; genlut.c:24:13
	ldr	w14, [x21, #16]
Ltmp341:
	.loc	2 24 13                         ; genlut.c:24:13
	cmp	w14, w13
	b.ls	LBB1_184
Ltmp342:
; %bb.183:                              ;   in Loop: Header=BB1_175 Depth=1
	;DEBUG_VALUE: v <- 4
	;DEBUG_VALUE: i <- $x8
	;DEBUG_VALUE: find_first_greater_than:mode <- $w26
	;DEBUG_VALUE: find_first_greater_than:vs <- [DW_OP_plus_uconst 72, DW_OP_stack_value] $sp
	;DEBUG_VALUE: find_first_greater_than:xy <- [DW_OP_plus_uconst 8, DW_OP_stack_value] $sp
	;DEBUG_VALUE: find_first_greater_than:table <- $x21
	;DEBUG_VALUE: find_first_greater_than:operand <- $x19
	;DEBUG_VALUE: emulate_AMX_GENLUT:table <- $x21
	;DEBUG_VALUE: emulate_AMX_GENLUT:mode <- $x26
	;DEBUG_VALUE: emulate_AMX_GENLUT:state <- $x20
	;DEBUG_VALUE: emulate_AMX_GENLUT:operand <- $x19
	.loc	2 0 13                          ; genlut.c:0:13
	mov	w13, #3
	b	LBB1_174
Ltmp343:
LBB1_184:                               ;   in Loop: Header=BB1_175 Depth=1
	;DEBUG_VALUE: v <- 4
	;DEBUG_VALUE: i <- $x8
	;DEBUG_VALUE: find_first_greater_than:mode <- $w26
	;DEBUG_VALUE: find_first_greater_than:vs <- [DW_OP_plus_uconst 72, DW_OP_stack_value] $sp
	;DEBUG_VALUE: find_first_greater_than:xy <- [DW_OP_plus_uconst 8, DW_OP_stack_value] $sp
	;DEBUG_VALUE: find_first_greater_than:table <- $x21
	;DEBUG_VALUE: find_first_greater_than:operand <- $x19
	;DEBUG_VALUE: emulate_AMX_GENLUT:table <- $x21
	;DEBUG_VALUE: emulate_AMX_GENLUT:mode <- $x26
	;DEBUG_VALUE: emulate_AMX_GENLUT:state <- $x20
	;DEBUG_VALUE: emulate_AMX_GENLUT:operand <- $x19
	;DEBUG_VALUE: v <- 5
	.loc	2 24 13                         ; genlut.c:24:13
	ldr	w14, [x21, #20]
Ltmp344:
	.loc	2 24 13                         ; genlut.c:24:13
	cmp	w14, w13
	b.ls	LBB1_186
Ltmp345:
; %bb.185:                              ;   in Loop: Header=BB1_175 Depth=1
	;DEBUG_VALUE: v <- 5
	;DEBUG_VALUE: i <- $x8
	;DEBUG_VALUE: find_first_greater_than:mode <- $w26
	;DEBUG_VALUE: find_first_greater_than:vs <- [DW_OP_plus_uconst 72, DW_OP_stack_value] $sp
	;DEBUG_VALUE: find_first_greater_than:xy <- [DW_OP_plus_uconst 8, DW_OP_stack_value] $sp
	;DEBUG_VALUE: find_first_greater_than:table <- $x21
	;DEBUG_VALUE: find_first_greater_than:operand <- $x19
	;DEBUG_VALUE: emulate_AMX_GENLUT:table <- $x21
	;DEBUG_VALUE: emulate_AMX_GENLUT:mode <- $x26
	;DEBUG_VALUE: emulate_AMX_GENLUT:state <- $x20
	;DEBUG_VALUE: emulate_AMX_GENLUT:operand <- $x19
	.loc	2 0 13                          ; genlut.c:0:13
	mov	w13, #4
	b	LBB1_174
Ltmp346:
LBB1_186:                               ;   in Loop: Header=BB1_175 Depth=1
	;DEBUG_VALUE: v <- 5
	;DEBUG_VALUE: i <- $x8
	;DEBUG_VALUE: find_first_greater_than:mode <- $w26
	;DEBUG_VALUE: find_first_greater_than:vs <- [DW_OP_plus_uconst 72, DW_OP_stack_value] $sp
	;DEBUG_VALUE: find_first_greater_than:xy <- [DW_OP_plus_uconst 8, DW_OP_stack_value] $sp
	;DEBUG_VALUE: find_first_greater_than:table <- $x21
	;DEBUG_VALUE: find_first_greater_than:operand <- $x19
	;DEBUG_VALUE: emulate_AMX_GENLUT:table <- $x21
	;DEBUG_VALUE: emulate_AMX_GENLUT:mode <- $x26
	;DEBUG_VALUE: emulate_AMX_GENLUT:state <- $x20
	;DEBUG_VALUE: emulate_AMX_GENLUT:operand <- $x19
	;DEBUG_VALUE: v <- 6
	.loc	2 24 13                         ; genlut.c:24:13
	ldr	w14, [x21, #24]
Ltmp347:
	.loc	2 24 13                         ; genlut.c:24:13
	cmp	w14, w13
	b.ls	LBB1_188
Ltmp348:
; %bb.187:                              ;   in Loop: Header=BB1_175 Depth=1
	;DEBUG_VALUE: v <- 6
	;DEBUG_VALUE: i <- $x8
	;DEBUG_VALUE: find_first_greater_than:mode <- $w26
	;DEBUG_VALUE: find_first_greater_than:vs <- [DW_OP_plus_uconst 72, DW_OP_stack_value] $sp
	;DEBUG_VALUE: find_first_greater_than:xy <- [DW_OP_plus_uconst 8, DW_OP_stack_value] $sp
	;DEBUG_VALUE: find_first_greater_than:table <- $x21
	;DEBUG_VALUE: find_first_greater_than:operand <- $x19
	;DEBUG_VALUE: emulate_AMX_GENLUT:table <- $x21
	;DEBUG_VALUE: emulate_AMX_GENLUT:mode <- $x26
	;DEBUG_VALUE: emulate_AMX_GENLUT:state <- $x20
	;DEBUG_VALUE: emulate_AMX_GENLUT:operand <- $x19
	.loc	2 0 13                          ; genlut.c:0:13
	mov	w13, #5
	b	LBB1_174
Ltmp349:
LBB1_188:                               ;   in Loop: Header=BB1_175 Depth=1
	;DEBUG_VALUE: v <- 6
	;DEBUG_VALUE: i <- $x8
	;DEBUG_VALUE: find_first_greater_than:mode <- $w26
	;DEBUG_VALUE: find_first_greater_than:vs <- [DW_OP_plus_uconst 72, DW_OP_stack_value] $sp
	;DEBUG_VALUE: find_first_greater_than:xy <- [DW_OP_plus_uconst 8, DW_OP_stack_value] $sp
	;DEBUG_VALUE: find_first_greater_than:table <- $x21
	;DEBUG_VALUE: find_first_greater_than:operand <- $x19
	;DEBUG_VALUE: emulate_AMX_GENLUT:table <- $x21
	;DEBUG_VALUE: emulate_AMX_GENLUT:mode <- $x26
	;DEBUG_VALUE: emulate_AMX_GENLUT:state <- $x20
	;DEBUG_VALUE: emulate_AMX_GENLUT:operand <- $x19
	;DEBUG_VALUE: v <- 7
	.loc	2 24 13                         ; genlut.c:24:13
	ldr	w14, [x21, #28]
Ltmp350:
	.loc	2 24 13                         ; genlut.c:24:13
	cmp	w14, w13
	b.ls	LBB1_190
Ltmp351:
; %bb.189:                              ;   in Loop: Header=BB1_175 Depth=1
	;DEBUG_VALUE: v <- 7
	;DEBUG_VALUE: i <- $x8
	;DEBUG_VALUE: find_first_greater_than:mode <- $w26
	;DEBUG_VALUE: find_first_greater_than:vs <- [DW_OP_plus_uconst 72, DW_OP_stack_value] $sp
	;DEBUG_VALUE: find_first_greater_than:xy <- [DW_OP_plus_uconst 8, DW_OP_stack_value] $sp
	;DEBUG_VALUE: find_first_greater_than:table <- $x21
	;DEBUG_VALUE: find_first_greater_than:operand <- $x19
	;DEBUG_VALUE: emulate_AMX_GENLUT:table <- $x21
	;DEBUG_VALUE: emulate_AMX_GENLUT:mode <- $x26
	;DEBUG_VALUE: emulate_AMX_GENLUT:state <- $x20
	;DEBUG_VALUE: emulate_AMX_GENLUT:operand <- $x19
	.loc	2 0 13                          ; genlut.c:0:13
	mov	w13, #6
	b	LBB1_174
Ltmp352:
LBB1_190:                               ;   in Loop: Header=BB1_175 Depth=1
	;DEBUG_VALUE: v <- 7
	;DEBUG_VALUE: i <- $x8
	;DEBUG_VALUE: find_first_greater_than:mode <- $w26
	;DEBUG_VALUE: find_first_greater_than:vs <- [DW_OP_plus_uconst 72, DW_OP_stack_value] $sp
	;DEBUG_VALUE: find_first_greater_than:xy <- [DW_OP_plus_uconst 8, DW_OP_stack_value] $sp
	;DEBUG_VALUE: find_first_greater_than:table <- $x21
	;DEBUG_VALUE: find_first_greater_than:operand <- $x19
	;DEBUG_VALUE: emulate_AMX_GENLUT:table <- $x21
	;DEBUG_VALUE: emulate_AMX_GENLUT:mode <- $x26
	;DEBUG_VALUE: emulate_AMX_GENLUT:state <- $x20
	;DEBUG_VALUE: emulate_AMX_GENLUT:operand <- $x19
	;DEBUG_VALUE: v <- 8
	.loc	2 24 13                         ; genlut.c:24:13
	ldr	w14, [x21, #32]
Ltmp353:
	.loc	2 24 13                         ; genlut.c:24:13
	cmp	w14, w13
	b.ls	LBB1_192
Ltmp354:
; %bb.191:                              ;   in Loop: Header=BB1_175 Depth=1
	;DEBUG_VALUE: v <- 8
	;DEBUG_VALUE: i <- $x8
	;DEBUG_VALUE: find_first_greater_than:mode <- $w26
	;DEBUG_VALUE: find_first_greater_than:vs <- [DW_OP_plus_uconst 72, DW_OP_stack_value] $sp
	;DEBUG_VALUE: find_first_greater_than:xy <- [DW_OP_plus_uconst 8, DW_OP_stack_value] $sp
	;DEBUG_VALUE: find_first_greater_than:table <- $x21
	;DEBUG_VALUE: find_first_greater_than:operand <- $x19
	;DEBUG_VALUE: emulate_AMX_GENLUT:table <- $x21
	;DEBUG_VALUE: emulate_AMX_GENLUT:mode <- $x26
	;DEBUG_VALUE: emulate_AMX_GENLUT:state <- $x20
	;DEBUG_VALUE: emulate_AMX_GENLUT:operand <- $x19
	.loc	2 0 13                          ; genlut.c:0:13
	mov	w13, #7
	b	LBB1_174
Ltmp355:
LBB1_192:                               ;   in Loop: Header=BB1_175 Depth=1
	;DEBUG_VALUE: v <- 8
	;DEBUG_VALUE: i <- $x8
	;DEBUG_VALUE: find_first_greater_than:mode <- $w26
	;DEBUG_VALUE: find_first_greater_than:vs <- [DW_OP_plus_uconst 72, DW_OP_stack_value] $sp
	;DEBUG_VALUE: find_first_greater_than:xy <- [DW_OP_plus_uconst 8, DW_OP_stack_value] $sp
	;DEBUG_VALUE: find_first_greater_than:table <- $x21
	;DEBUG_VALUE: find_first_greater_than:operand <- $x19
	;DEBUG_VALUE: emulate_AMX_GENLUT:table <- $x21
	;DEBUG_VALUE: emulate_AMX_GENLUT:mode <- $x26
	;DEBUG_VALUE: emulate_AMX_GENLUT:state <- $x20
	;DEBUG_VALUE: emulate_AMX_GENLUT:operand <- $x19
	;DEBUG_VALUE: v <- 9
	.loc	2 24 13                         ; genlut.c:24:13
	ldr	w14, [x21, #36]
Ltmp356:
	.loc	2 24 13                         ; genlut.c:24:13
	cmp	w14, w13
	b.ls	LBB1_194
Ltmp357:
; %bb.193:                              ;   in Loop: Header=BB1_175 Depth=1
	;DEBUG_VALUE: v <- 9
	;DEBUG_VALUE: i <- $x8
	;DEBUG_VALUE: find_first_greater_than:mode <- $w26
	;DEBUG_VALUE: find_first_greater_than:vs <- [DW_OP_plus_uconst 72, DW_OP_stack_value] $sp
	;DEBUG_VALUE: find_first_greater_than:xy <- [DW_OP_plus_uconst 8, DW_OP_stack_value] $sp
	;DEBUG_VALUE: find_first_greater_than:table <- $x21
	;DEBUG_VALUE: find_first_greater_than:operand <- $x19
	;DEBUG_VALUE: emulate_AMX_GENLUT:table <- $x21
	;DEBUG_VALUE: emulate_AMX_GENLUT:mode <- $x26
	;DEBUG_VALUE: emulate_AMX_GENLUT:state <- $x20
	;DEBUG_VALUE: emulate_AMX_GENLUT:operand <- $x19
	.loc	2 0 13                          ; genlut.c:0:13
	mov	w13, #8
	b	LBB1_174
Ltmp358:
LBB1_194:                               ;   in Loop: Header=BB1_175 Depth=1
	;DEBUG_VALUE: v <- 9
	;DEBUG_VALUE: i <- $x8
	;DEBUG_VALUE: find_first_greater_than:mode <- $w26
	;DEBUG_VALUE: find_first_greater_than:vs <- [DW_OP_plus_uconst 72, DW_OP_stack_value] $sp
	;DEBUG_VALUE: find_first_greater_than:xy <- [DW_OP_plus_uconst 8, DW_OP_stack_value] $sp
	;DEBUG_VALUE: find_first_greater_than:table <- $x21
	;DEBUG_VALUE: find_first_greater_than:operand <- $x19
	;DEBUG_VALUE: emulate_AMX_GENLUT:table <- $x21
	;DEBUG_VALUE: emulate_AMX_GENLUT:mode <- $x26
	;DEBUG_VALUE: emulate_AMX_GENLUT:state <- $x20
	;DEBUG_VALUE: emulate_AMX_GENLUT:operand <- $x19
	;DEBUG_VALUE: v <- 10
	.loc	2 24 13                         ; genlut.c:24:13
	ldr	w14, [x21, #40]
Ltmp359:
	.loc	2 24 13                         ; genlut.c:24:13
	cmp	w14, w13
	b.ls	LBB1_196
Ltmp360:
; %bb.195:                              ;   in Loop: Header=BB1_175 Depth=1
	;DEBUG_VALUE: v <- 10
	;DEBUG_VALUE: i <- $x8
	;DEBUG_VALUE: find_first_greater_than:mode <- $w26
	;DEBUG_VALUE: find_first_greater_than:vs <- [DW_OP_plus_uconst 72, DW_OP_stack_value] $sp
	;DEBUG_VALUE: find_first_greater_than:xy <- [DW_OP_plus_uconst 8, DW_OP_stack_value] $sp
	;DEBUG_VALUE: find_first_greater_than:table <- $x21
	;DEBUG_VALUE: find_first_greater_than:operand <- $x19
	;DEBUG_VALUE: emulate_AMX_GENLUT:table <- $x21
	;DEBUG_VALUE: emulate_AMX_GENLUT:mode <- $x26
	;DEBUG_VALUE: emulate_AMX_GENLUT:state <- $x20
	;DEBUG_VALUE: emulate_AMX_GENLUT:operand <- $x19
	.loc	2 0 13                          ; genlut.c:0:13
	mov	w13, #9
	b	LBB1_174
Ltmp361:
LBB1_196:                               ;   in Loop: Header=BB1_175 Depth=1
	;DEBUG_VALUE: v <- 10
	;DEBUG_VALUE: i <- $x8
	;DEBUG_VALUE: find_first_greater_than:mode <- $w26
	;DEBUG_VALUE: find_first_greater_than:vs <- [DW_OP_plus_uconst 72, DW_OP_stack_value] $sp
	;DEBUG_VALUE: find_first_greater_than:xy <- [DW_OP_plus_uconst 8, DW_OP_stack_value] $sp
	;DEBUG_VALUE: find_first_greater_than:table <- $x21
	;DEBUG_VALUE: find_first_greater_than:operand <- $x19
	;DEBUG_VALUE: emulate_AMX_GENLUT:table <- $x21
	;DEBUG_VALUE: emulate_AMX_GENLUT:mode <- $x26
	;DEBUG_VALUE: emulate_AMX_GENLUT:state <- $x20
	;DEBUG_VALUE: emulate_AMX_GENLUT:operand <- $x19
	;DEBUG_VALUE: v <- 11
	.loc	2 24 13                         ; genlut.c:24:13
	ldr	w14, [x21, #44]
Ltmp362:
	.loc	2 24 13                         ; genlut.c:24:13
	cmp	w14, w13
	b.ls	LBB1_198
Ltmp363:
; %bb.197:                              ;   in Loop: Header=BB1_175 Depth=1
	;DEBUG_VALUE: v <- 11
	;DEBUG_VALUE: i <- $x8
	;DEBUG_VALUE: find_first_greater_than:mode <- $w26
	;DEBUG_VALUE: find_first_greater_than:vs <- [DW_OP_plus_uconst 72, DW_OP_stack_value] $sp
	;DEBUG_VALUE: find_first_greater_than:xy <- [DW_OP_plus_uconst 8, DW_OP_stack_value] $sp
	;DEBUG_VALUE: find_first_greater_than:table <- $x21
	;DEBUG_VALUE: find_first_greater_than:operand <- $x19
	;DEBUG_VALUE: emulate_AMX_GENLUT:table <- $x21
	;DEBUG_VALUE: emulate_AMX_GENLUT:mode <- $x26
	;DEBUG_VALUE: emulate_AMX_GENLUT:state <- $x20
	;DEBUG_VALUE: emulate_AMX_GENLUT:operand <- $x19
	.loc	2 0 13                          ; genlut.c:0:13
	mov	w13, #10
	b	LBB1_174
Ltmp364:
LBB1_198:                               ;   in Loop: Header=BB1_175 Depth=1
	;DEBUG_VALUE: v <- 11
	;DEBUG_VALUE: i <- $x8
	;DEBUG_VALUE: find_first_greater_than:mode <- $w26
	;DEBUG_VALUE: find_first_greater_than:vs <- [DW_OP_plus_uconst 72, DW_OP_stack_value] $sp
	;DEBUG_VALUE: find_first_greater_than:xy <- [DW_OP_plus_uconst 8, DW_OP_stack_value] $sp
	;DEBUG_VALUE: find_first_greater_than:table <- $x21
	;DEBUG_VALUE: find_first_greater_than:operand <- $x19
	;DEBUG_VALUE: emulate_AMX_GENLUT:table <- $x21
	;DEBUG_VALUE: emulate_AMX_GENLUT:mode <- $x26
	;DEBUG_VALUE: emulate_AMX_GENLUT:state <- $x20
	;DEBUG_VALUE: emulate_AMX_GENLUT:operand <- $x19
	;DEBUG_VALUE: v <- 12
	.loc	2 24 13                         ; genlut.c:24:13
	ldr	w14, [x21, #48]
Ltmp365:
	.loc	2 24 13                         ; genlut.c:24:13
	cmp	w14, w13
	b.ls	LBB1_200
Ltmp366:
; %bb.199:                              ;   in Loop: Header=BB1_175 Depth=1
	;DEBUG_VALUE: v <- 12
	;DEBUG_VALUE: i <- $x8
	;DEBUG_VALUE: find_first_greater_than:mode <- $w26
	;DEBUG_VALUE: find_first_greater_than:vs <- [DW_OP_plus_uconst 72, DW_OP_stack_value] $sp
	;DEBUG_VALUE: find_first_greater_than:xy <- [DW_OP_plus_uconst 8, DW_OP_stack_value] $sp
	;DEBUG_VALUE: find_first_greater_than:table <- $x21
	;DEBUG_VALUE: find_first_greater_than:operand <- $x19
	;DEBUG_VALUE: emulate_AMX_GENLUT:table <- $x21
	;DEBUG_VALUE: emulate_AMX_GENLUT:mode <- $x26
	;DEBUG_VALUE: emulate_AMX_GENLUT:state <- $x20
	;DEBUG_VALUE: emulate_AMX_GENLUT:operand <- $x19
	.loc	2 0 13                          ; genlut.c:0:13
	mov	w13, #11
	b	LBB1_174
Ltmp367:
LBB1_200:                               ;   in Loop: Header=BB1_175 Depth=1
	;DEBUG_VALUE: v <- 12
	;DEBUG_VALUE: i <- $x8
	;DEBUG_VALUE: find_first_greater_than:mode <- $w26
	;DEBUG_VALUE: find_first_greater_than:vs <- [DW_OP_plus_uconst 72, DW_OP_stack_value] $sp
	;DEBUG_VALUE: find_first_greater_than:xy <- [DW_OP_plus_uconst 8, DW_OP_stack_value] $sp
	;DEBUG_VALUE: find_first_greater_than:table <- $x21
	;DEBUG_VALUE: find_first_greater_than:operand <- $x19
	;DEBUG_VALUE: emulate_AMX_GENLUT:table <- $x21
	;DEBUG_VALUE: emulate_AMX_GENLUT:mode <- $x26
	;DEBUG_VALUE: emulate_AMX_GENLUT:state <- $x20
	;DEBUG_VALUE: emulate_AMX_GENLUT:operand <- $x19
	;DEBUG_VALUE: v <- 13
	.loc	2 24 13                         ; genlut.c:24:13
	ldr	w14, [x21, #52]
Ltmp368:
	.loc	2 24 13                         ; genlut.c:24:13
	cmp	w14, w13
	b.ls	LBB1_202
Ltmp369:
; %bb.201:                              ;   in Loop: Header=BB1_175 Depth=1
	;DEBUG_VALUE: v <- 13
	;DEBUG_VALUE: i <- $x8
	;DEBUG_VALUE: find_first_greater_than:mode <- $w26
	;DEBUG_VALUE: find_first_greater_than:vs <- [DW_OP_plus_uconst 72, DW_OP_stack_value] $sp
	;DEBUG_VALUE: find_first_greater_than:xy <- [DW_OP_plus_uconst 8, DW_OP_stack_value] $sp
	;DEBUG_VALUE: find_first_greater_than:table <- $x21
	;DEBUG_VALUE: find_first_greater_than:operand <- $x19
	;DEBUG_VALUE: emulate_AMX_GENLUT:table <- $x21
	;DEBUG_VALUE: emulate_AMX_GENLUT:mode <- $x26
	;DEBUG_VALUE: emulate_AMX_GENLUT:state <- $x20
	;DEBUG_VALUE: emulate_AMX_GENLUT:operand <- $x19
	.loc	2 0 13                          ; genlut.c:0:13
	mov	w13, #12
	b	LBB1_174
Ltmp370:
LBB1_202:                               ;   in Loop: Header=BB1_175 Depth=1
	;DEBUG_VALUE: v <- 13
	;DEBUG_VALUE: i <- $x8
	;DEBUG_VALUE: find_first_greater_than:mode <- $w26
	;DEBUG_VALUE: find_first_greater_than:vs <- [DW_OP_plus_uconst 72, DW_OP_stack_value] $sp
	;DEBUG_VALUE: find_first_greater_than:xy <- [DW_OP_plus_uconst 8, DW_OP_stack_value] $sp
	;DEBUG_VALUE: find_first_greater_than:table <- $x21
	;DEBUG_VALUE: find_first_greater_than:operand <- $x19
	;DEBUG_VALUE: emulate_AMX_GENLUT:table <- $x21
	;DEBUG_VALUE: emulate_AMX_GENLUT:mode <- $x26
	;DEBUG_VALUE: emulate_AMX_GENLUT:state <- $x20
	;DEBUG_VALUE: emulate_AMX_GENLUT:operand <- $x19
	;DEBUG_VALUE: v <- 14
	.loc	2 24 13                         ; genlut.c:24:13
	ldr	w14, [x21, #56]
Ltmp371:
	.loc	2 24 13                         ; genlut.c:24:13
	cmp	w14, w13
	b.ls	LBB1_204
Ltmp372:
; %bb.203:                              ;   in Loop: Header=BB1_175 Depth=1
	;DEBUG_VALUE: v <- 14
	;DEBUG_VALUE: i <- $x8
	;DEBUG_VALUE: find_first_greater_than:mode <- $w26
	;DEBUG_VALUE: find_first_greater_than:vs <- [DW_OP_plus_uconst 72, DW_OP_stack_value] $sp
	;DEBUG_VALUE: find_first_greater_than:xy <- [DW_OP_plus_uconst 8, DW_OP_stack_value] $sp
	;DEBUG_VALUE: find_first_greater_than:table <- $x21
	;DEBUG_VALUE: find_first_greater_than:operand <- $x19
	;DEBUG_VALUE: emulate_AMX_GENLUT:table <- $x21
	;DEBUG_VALUE: emulate_AMX_GENLUT:mode <- $x26
	;DEBUG_VALUE: emulate_AMX_GENLUT:state <- $x20
	;DEBUG_VALUE: emulate_AMX_GENLUT:operand <- $x19
	.loc	2 0 13                          ; genlut.c:0:13
	mov	w13, #13
	b	LBB1_174
Ltmp373:
LBB1_204:                               ;   in Loop: Header=BB1_175 Depth=1
	;DEBUG_VALUE: v <- 14
	;DEBUG_VALUE: i <- $x8
	;DEBUG_VALUE: find_first_greater_than:mode <- $w26
	;DEBUG_VALUE: find_first_greater_than:vs <- [DW_OP_plus_uconst 72, DW_OP_stack_value] $sp
	;DEBUG_VALUE: find_first_greater_than:xy <- [DW_OP_plus_uconst 8, DW_OP_stack_value] $sp
	;DEBUG_VALUE: find_first_greater_than:table <- $x21
	;DEBUG_VALUE: find_first_greater_than:operand <- $x19
	;DEBUG_VALUE: emulate_AMX_GENLUT:table <- $x21
	;DEBUG_VALUE: emulate_AMX_GENLUT:mode <- $x26
	;DEBUG_VALUE: emulate_AMX_GENLUT:state <- $x20
	;DEBUG_VALUE: emulate_AMX_GENLUT:operand <- $x19
	;DEBUG_VALUE: v <- 15
	.loc	2 24 13                         ; genlut.c:24:13
	ldr	w14, [x21, #60]
Ltmp374:
	.loc	2 24 13                         ; genlut.c:24:13
	cmp	w14, w13
	cinc	w13, w12, ls
	b	LBB1_174
Ltmp375:
LBB1_205:
	;DEBUG_VALUE: find_first_greater_than:mode <- $w26
	;DEBUG_VALUE: find_first_greater_than:vs <- [DW_OP_plus_uconst 72, DW_OP_stack_value] $sp
	;DEBUG_VALUE: find_first_greater_than:xy <- [DW_OP_plus_uconst 8, DW_OP_stack_value] $sp
	;DEBUG_VALUE: find_first_greater_than:table <- $x21
	;DEBUG_VALUE: find_first_greater_than:operand <- $x19
	;DEBUG_VALUE: emulate_AMX_GENLUT:table <- $x21
	;DEBUG_VALUE: emulate_AMX_GENLUT:mode <- $x26
	;DEBUG_VALUE: emulate_AMX_GENLUT:state <- $x20
	;DEBUG_VALUE: emulate_AMX_GENLUT:operand <- $x19
	.loc	2 0 13                          ; genlut.c:0:13
	mov	x8, #0
	ldrh	w9, [x21]
	add	x10, sp, #8
	add	x11, sp, #72
	mov	w12, #30
	b	LBB1_208
Ltmp376:
LBB1_206:                               ;   in Loop: Header=BB1_208 Depth=1
	;DEBUG_VALUE: i <- $x8
	;DEBUG_VALUE: v <- 0
	;DEBUG_VALUE: find_first_greater_than:mode <- $w26
	;DEBUG_VALUE: find_first_greater_than:vs <- [DW_OP_plus_uconst 72, DW_OP_stack_value] $sp
	;DEBUG_VALUE: find_first_greater_than:xy <- [DW_OP_plus_uconst 8, DW_OP_stack_value] $sp
	;DEBUG_VALUE: find_first_greater_than:table <- $x21
	;DEBUG_VALUE: find_first_greater_than:operand <- $x19
	;DEBUG_VALUE: emulate_AMX_GENLUT:table <- $x21
	;DEBUG_VALUE: emulate_AMX_GENLUT:mode <- $x26
	;DEBUG_VALUE: emulate_AMX_GENLUT:state <- $x20
	;DEBUG_VALUE: emulate_AMX_GENLUT:operand <- $x19
	mov	w13, #255
Ltmp377:
LBB1_207:                               ;   in Loop: Header=BB1_208 Depth=1
	;DEBUG_VALUE: i <- $x8
	;DEBUG_VALUE: find_first_greater_than:mode <- $w26
	;DEBUG_VALUE: find_first_greater_than:vs <- [DW_OP_plus_uconst 72, DW_OP_stack_value] $sp
	;DEBUG_VALUE: find_first_greater_than:xy <- [DW_OP_plus_uconst 8, DW_OP_stack_value] $sp
	;DEBUG_VALUE: find_first_greater_than:table <- $x21
	;DEBUG_VALUE: find_first_greater_than:operand <- $x19
	;DEBUG_VALUE: emulate_AMX_GENLUT:table <- $x21
	;DEBUG_VALUE: emulate_AMX_GENLUT:mode <- $x26
	;DEBUG_VALUE: emulate_AMX_GENLUT:state <- $x20
	;DEBUG_VALUE: emulate_AMX_GENLUT:operand <- $x19
	.loc	2 25 13 is_stmt 1               ; genlut.c:25:13
	strb	w13, [x11, x8]
Ltmp378:
	.loc	2 25 13 is_stmt 0               ; genlut.c:25:13
	add	x8, x8, #1
Ltmp379:
	;DEBUG_VALUE: i <- $x8
	.loc	2 25 13                         ; genlut.c:25:13
	cmp	x8, #32
	b.eq	LBB1_337
Ltmp380:
LBB1_208:                               ; =>This Inner Loop Header: Depth=1
	;DEBUG_VALUE: find_first_greater_than:mode <- $w26
	;DEBUG_VALUE: find_first_greater_than:vs <- [DW_OP_plus_uconst 72, DW_OP_stack_value] $sp
	;DEBUG_VALUE: find_first_greater_than:xy <- [DW_OP_plus_uconst 8, DW_OP_stack_value] $sp
	;DEBUG_VALUE: find_first_greater_than:table <- $x21
	;DEBUG_VALUE: find_first_greater_than:operand <- $x19
	;DEBUG_VALUE: emulate_AMX_GENLUT:table <- $x21
	;DEBUG_VALUE: emulate_AMX_GENLUT:mode <- $x26
	;DEBUG_VALUE: emulate_AMX_GENLUT:state <- $x20
	;DEBUG_VALUE: emulate_AMX_GENLUT:operand <- $x19
	.loc	2 0 13                          ; genlut.c:0:13
	ldrh	w13, [x10, x8, lsl #1]
Ltmp381:
	;DEBUG_VALUE: v <- 0
	;DEBUG_VALUE: i <- $x8
	.loc	2 25 13                         ; genlut.c:25:13
	cmp	w9, w13
	b.hi	LBB1_206
Ltmp382:
; %bb.209:                              ;   in Loop: Header=BB1_208 Depth=1
	;DEBUG_VALUE: i <- $x8
	;DEBUG_VALUE: v <- 0
	;DEBUG_VALUE: find_first_greater_than:mode <- $w26
	;DEBUG_VALUE: find_first_greater_than:vs <- [DW_OP_plus_uconst 72, DW_OP_stack_value] $sp
	;DEBUG_VALUE: find_first_greater_than:xy <- [DW_OP_plus_uconst 8, DW_OP_stack_value] $sp
	;DEBUG_VALUE: find_first_greater_than:table <- $x21
	;DEBUG_VALUE: find_first_greater_than:operand <- $x19
	;DEBUG_VALUE: emulate_AMX_GENLUT:table <- $x21
	;DEBUG_VALUE: emulate_AMX_GENLUT:mode <- $x26
	;DEBUG_VALUE: emulate_AMX_GENLUT:state <- $x20
	;DEBUG_VALUE: emulate_AMX_GENLUT:operand <- $x19
	;DEBUG_VALUE: v <- 1
	.loc	2 25 13                         ; genlut.c:25:13
	ldrh	w14, [x21, #2]
Ltmp383:
	.loc	2 25 13                         ; genlut.c:25:13
	cmp	w14, w13
	b.ls	LBB1_211
Ltmp384:
; %bb.210:                              ;   in Loop: Header=BB1_208 Depth=1
	;DEBUG_VALUE: v <- 1
	;DEBUG_VALUE: i <- $x8
	;DEBUG_VALUE: find_first_greater_than:mode <- $w26
	;DEBUG_VALUE: find_first_greater_than:vs <- [DW_OP_plus_uconst 72, DW_OP_stack_value] $sp
	;DEBUG_VALUE: find_first_greater_than:xy <- [DW_OP_plus_uconst 8, DW_OP_stack_value] $sp
	;DEBUG_VALUE: find_first_greater_than:table <- $x21
	;DEBUG_VALUE: find_first_greater_than:operand <- $x19
	;DEBUG_VALUE: emulate_AMX_GENLUT:table <- $x21
	;DEBUG_VALUE: emulate_AMX_GENLUT:mode <- $x26
	;DEBUG_VALUE: emulate_AMX_GENLUT:state <- $x20
	;DEBUG_VALUE: emulate_AMX_GENLUT:operand <- $x19
	.loc	2 0 13                          ; genlut.c:0:13
	mov	w13, #0
	b	LBB1_207
Ltmp385:
LBB1_211:                               ;   in Loop: Header=BB1_208 Depth=1
	;DEBUG_VALUE: v <- 1
	;DEBUG_VALUE: i <- $x8
	;DEBUG_VALUE: find_first_greater_than:mode <- $w26
	;DEBUG_VALUE: find_first_greater_than:vs <- [DW_OP_plus_uconst 72, DW_OP_stack_value] $sp
	;DEBUG_VALUE: find_first_greater_than:xy <- [DW_OP_plus_uconst 8, DW_OP_stack_value] $sp
	;DEBUG_VALUE: find_first_greater_than:table <- $x21
	;DEBUG_VALUE: find_first_greater_than:operand <- $x19
	;DEBUG_VALUE: emulate_AMX_GENLUT:table <- $x21
	;DEBUG_VALUE: emulate_AMX_GENLUT:mode <- $x26
	;DEBUG_VALUE: emulate_AMX_GENLUT:state <- $x20
	;DEBUG_VALUE: emulate_AMX_GENLUT:operand <- $x19
	;DEBUG_VALUE: v <- 2
	.loc	2 25 13                         ; genlut.c:25:13
	ldrh	w14, [x21, #4]
Ltmp386:
	.loc	2 25 13                         ; genlut.c:25:13
	cmp	w14, w13
	b.ls	LBB1_213
Ltmp387:
; %bb.212:                              ;   in Loop: Header=BB1_208 Depth=1
	;DEBUG_VALUE: v <- 2
	;DEBUG_VALUE: i <- $x8
	;DEBUG_VALUE: find_first_greater_than:mode <- $w26
	;DEBUG_VALUE: find_first_greater_than:vs <- [DW_OP_plus_uconst 72, DW_OP_stack_value] $sp
	;DEBUG_VALUE: find_first_greater_than:xy <- [DW_OP_plus_uconst 8, DW_OP_stack_value] $sp
	;DEBUG_VALUE: find_first_greater_than:table <- $x21
	;DEBUG_VALUE: find_first_greater_than:operand <- $x19
	;DEBUG_VALUE: emulate_AMX_GENLUT:table <- $x21
	;DEBUG_VALUE: emulate_AMX_GENLUT:mode <- $x26
	;DEBUG_VALUE: emulate_AMX_GENLUT:state <- $x20
	;DEBUG_VALUE: emulate_AMX_GENLUT:operand <- $x19
	.loc	2 0 13                          ; genlut.c:0:13
	mov	w13, #1
	b	LBB1_207
Ltmp388:
LBB1_213:                               ;   in Loop: Header=BB1_208 Depth=1
	;DEBUG_VALUE: v <- 2
	;DEBUG_VALUE: i <- $x8
	;DEBUG_VALUE: find_first_greater_than:mode <- $w26
	;DEBUG_VALUE: find_first_greater_than:vs <- [DW_OP_plus_uconst 72, DW_OP_stack_value] $sp
	;DEBUG_VALUE: find_first_greater_than:xy <- [DW_OP_plus_uconst 8, DW_OP_stack_value] $sp
	;DEBUG_VALUE: find_first_greater_than:table <- $x21
	;DEBUG_VALUE: find_first_greater_than:operand <- $x19
	;DEBUG_VALUE: emulate_AMX_GENLUT:table <- $x21
	;DEBUG_VALUE: emulate_AMX_GENLUT:mode <- $x26
	;DEBUG_VALUE: emulate_AMX_GENLUT:state <- $x20
	;DEBUG_VALUE: emulate_AMX_GENLUT:operand <- $x19
	;DEBUG_VALUE: v <- 3
	.loc	2 25 13                         ; genlut.c:25:13
	ldrh	w14, [x21, #6]
Ltmp389:
	.loc	2 25 13                         ; genlut.c:25:13
	cmp	w14, w13
	b.ls	LBB1_215
Ltmp390:
; %bb.214:                              ;   in Loop: Header=BB1_208 Depth=1
	;DEBUG_VALUE: v <- 3
	;DEBUG_VALUE: i <- $x8
	;DEBUG_VALUE: find_first_greater_than:mode <- $w26
	;DEBUG_VALUE: find_first_greater_than:vs <- [DW_OP_plus_uconst 72, DW_OP_stack_value] $sp
	;DEBUG_VALUE: find_first_greater_than:xy <- [DW_OP_plus_uconst 8, DW_OP_stack_value] $sp
	;DEBUG_VALUE: find_first_greater_than:table <- $x21
	;DEBUG_VALUE: find_first_greater_than:operand <- $x19
	;DEBUG_VALUE: emulate_AMX_GENLUT:table <- $x21
	;DEBUG_VALUE: emulate_AMX_GENLUT:mode <- $x26
	;DEBUG_VALUE: emulate_AMX_GENLUT:state <- $x20
	;DEBUG_VALUE: emulate_AMX_GENLUT:operand <- $x19
	.loc	2 0 13                          ; genlut.c:0:13
	mov	w13, #2
	b	LBB1_207
Ltmp391:
LBB1_215:                               ;   in Loop: Header=BB1_208 Depth=1
	;DEBUG_VALUE: v <- 3
	;DEBUG_VALUE: i <- $x8
	;DEBUG_VALUE: find_first_greater_than:mode <- $w26
	;DEBUG_VALUE: find_first_greater_than:vs <- [DW_OP_plus_uconst 72, DW_OP_stack_value] $sp
	;DEBUG_VALUE: find_first_greater_than:xy <- [DW_OP_plus_uconst 8, DW_OP_stack_value] $sp
	;DEBUG_VALUE: find_first_greater_than:table <- $x21
	;DEBUG_VALUE: find_first_greater_than:operand <- $x19
	;DEBUG_VALUE: emulate_AMX_GENLUT:table <- $x21
	;DEBUG_VALUE: emulate_AMX_GENLUT:mode <- $x26
	;DEBUG_VALUE: emulate_AMX_GENLUT:state <- $x20
	;DEBUG_VALUE: emulate_AMX_GENLUT:operand <- $x19
	;DEBUG_VALUE: v <- 4
	.loc	2 25 13                         ; genlut.c:25:13
	ldrh	w14, [x21, #8]
Ltmp392:
	.loc	2 25 13                         ; genlut.c:25:13
	cmp	w14, w13
	b.ls	LBB1_217
Ltmp393:
; %bb.216:                              ;   in Loop: Header=BB1_208 Depth=1
	;DEBUG_VALUE: v <- 4
	;DEBUG_VALUE: i <- $x8
	;DEBUG_VALUE: find_first_greater_than:mode <- $w26
	;DEBUG_VALUE: find_first_greater_than:vs <- [DW_OP_plus_uconst 72, DW_OP_stack_value] $sp
	;DEBUG_VALUE: find_first_greater_than:xy <- [DW_OP_plus_uconst 8, DW_OP_stack_value] $sp
	;DEBUG_VALUE: find_first_greater_than:table <- $x21
	;DEBUG_VALUE: find_first_greater_than:operand <- $x19
	;DEBUG_VALUE: emulate_AMX_GENLUT:table <- $x21
	;DEBUG_VALUE: emulate_AMX_GENLUT:mode <- $x26
	;DEBUG_VALUE: emulate_AMX_GENLUT:state <- $x20
	;DEBUG_VALUE: emulate_AMX_GENLUT:operand <- $x19
	.loc	2 0 13                          ; genlut.c:0:13
	mov	w13, #3
	b	LBB1_207
Ltmp394:
LBB1_217:                               ;   in Loop: Header=BB1_208 Depth=1
	;DEBUG_VALUE: v <- 4
	;DEBUG_VALUE: i <- $x8
	;DEBUG_VALUE: find_first_greater_than:mode <- $w26
	;DEBUG_VALUE: find_first_greater_than:vs <- [DW_OP_plus_uconst 72, DW_OP_stack_value] $sp
	;DEBUG_VALUE: find_first_greater_than:xy <- [DW_OP_plus_uconst 8, DW_OP_stack_value] $sp
	;DEBUG_VALUE: find_first_greater_than:table <- $x21
	;DEBUG_VALUE: find_first_greater_than:operand <- $x19
	;DEBUG_VALUE: emulate_AMX_GENLUT:table <- $x21
	;DEBUG_VALUE: emulate_AMX_GENLUT:mode <- $x26
	;DEBUG_VALUE: emulate_AMX_GENLUT:state <- $x20
	;DEBUG_VALUE: emulate_AMX_GENLUT:operand <- $x19
	;DEBUG_VALUE: v <- 5
	.loc	2 25 13                         ; genlut.c:25:13
	ldrh	w14, [x21, #10]
Ltmp395:
	.loc	2 25 13                         ; genlut.c:25:13
	cmp	w14, w13
	b.ls	LBB1_219
Ltmp396:
; %bb.218:                              ;   in Loop: Header=BB1_208 Depth=1
	;DEBUG_VALUE: v <- 5
	;DEBUG_VALUE: i <- $x8
	;DEBUG_VALUE: find_first_greater_than:mode <- $w26
	;DEBUG_VALUE: find_first_greater_than:vs <- [DW_OP_plus_uconst 72, DW_OP_stack_value] $sp
	;DEBUG_VALUE: find_first_greater_than:xy <- [DW_OP_plus_uconst 8, DW_OP_stack_value] $sp
	;DEBUG_VALUE: find_first_greater_than:table <- $x21
	;DEBUG_VALUE: find_first_greater_than:operand <- $x19
	;DEBUG_VALUE: emulate_AMX_GENLUT:table <- $x21
	;DEBUG_VALUE: emulate_AMX_GENLUT:mode <- $x26
	;DEBUG_VALUE: emulate_AMX_GENLUT:state <- $x20
	;DEBUG_VALUE: emulate_AMX_GENLUT:operand <- $x19
	.loc	2 0 13                          ; genlut.c:0:13
	mov	w13, #4
	b	LBB1_207
Ltmp397:
LBB1_219:                               ;   in Loop: Header=BB1_208 Depth=1
	;DEBUG_VALUE: v <- 5
	;DEBUG_VALUE: i <- $x8
	;DEBUG_VALUE: find_first_greater_than:mode <- $w26
	;DEBUG_VALUE: find_first_greater_than:vs <- [DW_OP_plus_uconst 72, DW_OP_stack_value] $sp
	;DEBUG_VALUE: find_first_greater_than:xy <- [DW_OP_plus_uconst 8, DW_OP_stack_value] $sp
	;DEBUG_VALUE: find_first_greater_than:table <- $x21
	;DEBUG_VALUE: find_first_greater_than:operand <- $x19
	;DEBUG_VALUE: emulate_AMX_GENLUT:table <- $x21
	;DEBUG_VALUE: emulate_AMX_GENLUT:mode <- $x26
	;DEBUG_VALUE: emulate_AMX_GENLUT:state <- $x20
	;DEBUG_VALUE: emulate_AMX_GENLUT:operand <- $x19
	;DEBUG_VALUE: v <- 6
	.loc	2 25 13                         ; genlut.c:25:13
	ldrh	w14, [x21, #12]
Ltmp398:
	.loc	2 25 13                         ; genlut.c:25:13
	cmp	w14, w13
	b.ls	LBB1_221
Ltmp399:
; %bb.220:                              ;   in Loop: Header=BB1_208 Depth=1
	;DEBUG_VALUE: v <- 6
	;DEBUG_VALUE: i <- $x8
	;DEBUG_VALUE: find_first_greater_than:mode <- $w26
	;DEBUG_VALUE: find_first_greater_than:vs <- [DW_OP_plus_uconst 72, DW_OP_stack_value] $sp
	;DEBUG_VALUE: find_first_greater_than:xy <- [DW_OP_plus_uconst 8, DW_OP_stack_value] $sp
	;DEBUG_VALUE: find_first_greater_than:table <- $x21
	;DEBUG_VALUE: find_first_greater_than:operand <- $x19
	;DEBUG_VALUE: emulate_AMX_GENLUT:table <- $x21
	;DEBUG_VALUE: emulate_AMX_GENLUT:mode <- $x26
	;DEBUG_VALUE: emulate_AMX_GENLUT:state <- $x20
	;DEBUG_VALUE: emulate_AMX_GENLUT:operand <- $x19
	.loc	2 0 13                          ; genlut.c:0:13
	mov	w13, #5
	b	LBB1_207
Ltmp400:
LBB1_221:                               ;   in Loop: Header=BB1_208 Depth=1
	;DEBUG_VALUE: v <- 6
	;DEBUG_VALUE: i <- $x8
	;DEBUG_VALUE: find_first_greater_than:mode <- $w26
	;DEBUG_VALUE: find_first_greater_than:vs <- [DW_OP_plus_uconst 72, DW_OP_stack_value] $sp
	;DEBUG_VALUE: find_first_greater_than:xy <- [DW_OP_plus_uconst 8, DW_OP_stack_value] $sp
	;DEBUG_VALUE: find_first_greater_than:table <- $x21
	;DEBUG_VALUE: find_first_greater_than:operand <- $x19
	;DEBUG_VALUE: emulate_AMX_GENLUT:table <- $x21
	;DEBUG_VALUE: emulate_AMX_GENLUT:mode <- $x26
	;DEBUG_VALUE: emulate_AMX_GENLUT:state <- $x20
	;DEBUG_VALUE: emulate_AMX_GENLUT:operand <- $x19
	;DEBUG_VALUE: v <- 7
	.loc	2 25 13                         ; genlut.c:25:13
	ldrh	w14, [x21, #14]
Ltmp401:
	.loc	2 25 13                         ; genlut.c:25:13
	cmp	w14, w13
	b.ls	LBB1_223
Ltmp402:
; %bb.222:                              ;   in Loop: Header=BB1_208 Depth=1
	;DEBUG_VALUE: v <- 7
	;DEBUG_VALUE: i <- $x8
	;DEBUG_VALUE: find_first_greater_than:mode <- $w26
	;DEBUG_VALUE: find_first_greater_than:vs <- [DW_OP_plus_uconst 72, DW_OP_stack_value] $sp
	;DEBUG_VALUE: find_first_greater_than:xy <- [DW_OP_plus_uconst 8, DW_OP_stack_value] $sp
	;DEBUG_VALUE: find_first_greater_than:table <- $x21
	;DEBUG_VALUE: find_first_greater_than:operand <- $x19
	;DEBUG_VALUE: emulate_AMX_GENLUT:table <- $x21
	;DEBUG_VALUE: emulate_AMX_GENLUT:mode <- $x26
	;DEBUG_VALUE: emulate_AMX_GENLUT:state <- $x20
	;DEBUG_VALUE: emulate_AMX_GENLUT:operand <- $x19
	.loc	2 0 13                          ; genlut.c:0:13
	mov	w13, #6
	b	LBB1_207
Ltmp403:
LBB1_223:                               ;   in Loop: Header=BB1_208 Depth=1
	;DEBUG_VALUE: v <- 7
	;DEBUG_VALUE: i <- $x8
	;DEBUG_VALUE: find_first_greater_than:mode <- $w26
	;DEBUG_VALUE: find_first_greater_than:vs <- [DW_OP_plus_uconst 72, DW_OP_stack_value] $sp
	;DEBUG_VALUE: find_first_greater_than:xy <- [DW_OP_plus_uconst 8, DW_OP_stack_value] $sp
	;DEBUG_VALUE: find_first_greater_than:table <- $x21
	;DEBUG_VALUE: find_first_greater_than:operand <- $x19
	;DEBUG_VALUE: emulate_AMX_GENLUT:table <- $x21
	;DEBUG_VALUE: emulate_AMX_GENLUT:mode <- $x26
	;DEBUG_VALUE: emulate_AMX_GENLUT:state <- $x20
	;DEBUG_VALUE: emulate_AMX_GENLUT:operand <- $x19
	;DEBUG_VALUE: v <- 8
	.loc	2 25 13                         ; genlut.c:25:13
	ldrh	w14, [x21, #16]
Ltmp404:
	.loc	2 25 13                         ; genlut.c:25:13
	cmp	w14, w13
	b.ls	LBB1_225
Ltmp405:
; %bb.224:                              ;   in Loop: Header=BB1_208 Depth=1
	;DEBUG_VALUE: v <- 8
	;DEBUG_VALUE: i <- $x8
	;DEBUG_VALUE: find_first_greater_than:mode <- $w26
	;DEBUG_VALUE: find_first_greater_than:vs <- [DW_OP_plus_uconst 72, DW_OP_stack_value] $sp
	;DEBUG_VALUE: find_first_greater_than:xy <- [DW_OP_plus_uconst 8, DW_OP_stack_value] $sp
	;DEBUG_VALUE: find_first_greater_than:table <- $x21
	;DEBUG_VALUE: find_first_greater_than:operand <- $x19
	;DEBUG_VALUE: emulate_AMX_GENLUT:table <- $x21
	;DEBUG_VALUE: emulate_AMX_GENLUT:mode <- $x26
	;DEBUG_VALUE: emulate_AMX_GENLUT:state <- $x20
	;DEBUG_VALUE: emulate_AMX_GENLUT:operand <- $x19
	.loc	2 0 13                          ; genlut.c:0:13
	mov	w13, #7
	b	LBB1_207
Ltmp406:
LBB1_225:                               ;   in Loop: Header=BB1_208 Depth=1
	;DEBUG_VALUE: v <- 8
	;DEBUG_VALUE: i <- $x8
	;DEBUG_VALUE: find_first_greater_than:mode <- $w26
	;DEBUG_VALUE: find_first_greater_than:vs <- [DW_OP_plus_uconst 72, DW_OP_stack_value] $sp
	;DEBUG_VALUE: find_first_greater_than:xy <- [DW_OP_plus_uconst 8, DW_OP_stack_value] $sp
	;DEBUG_VALUE: find_first_greater_than:table <- $x21
	;DEBUG_VALUE: find_first_greater_than:operand <- $x19
	;DEBUG_VALUE: emulate_AMX_GENLUT:table <- $x21
	;DEBUG_VALUE: emulate_AMX_GENLUT:mode <- $x26
	;DEBUG_VALUE: emulate_AMX_GENLUT:state <- $x20
	;DEBUG_VALUE: emulate_AMX_GENLUT:operand <- $x19
	;DEBUG_VALUE: v <- 9
	.loc	2 25 13                         ; genlut.c:25:13
	ldrh	w14, [x21, #18]
Ltmp407:
	.loc	2 25 13                         ; genlut.c:25:13
	cmp	w14, w13
	b.ls	LBB1_227
Ltmp408:
; %bb.226:                              ;   in Loop: Header=BB1_208 Depth=1
	;DEBUG_VALUE: v <- 9
	;DEBUG_VALUE: i <- $x8
	;DEBUG_VALUE: find_first_greater_than:mode <- $w26
	;DEBUG_VALUE: find_first_greater_than:vs <- [DW_OP_plus_uconst 72, DW_OP_stack_value] $sp
	;DEBUG_VALUE: find_first_greater_than:xy <- [DW_OP_plus_uconst 8, DW_OP_stack_value] $sp
	;DEBUG_VALUE: find_first_greater_than:table <- $x21
	;DEBUG_VALUE: find_first_greater_than:operand <- $x19
	;DEBUG_VALUE: emulate_AMX_GENLUT:table <- $x21
	;DEBUG_VALUE: emulate_AMX_GENLUT:mode <- $x26
	;DEBUG_VALUE: emulate_AMX_GENLUT:state <- $x20
	;DEBUG_VALUE: emulate_AMX_GENLUT:operand <- $x19
	.loc	2 0 13                          ; genlut.c:0:13
	mov	w13, #8
	b	LBB1_207
Ltmp409:
LBB1_227:                               ;   in Loop: Header=BB1_208 Depth=1
	;DEBUG_VALUE: v <- 9
	;DEBUG_VALUE: i <- $x8
	;DEBUG_VALUE: find_first_greater_than:mode <- $w26
	;DEBUG_VALUE: find_first_greater_than:vs <- [DW_OP_plus_uconst 72, DW_OP_stack_value] $sp
	;DEBUG_VALUE: find_first_greater_than:xy <- [DW_OP_plus_uconst 8, DW_OP_stack_value] $sp
	;DEBUG_VALUE: find_first_greater_than:table <- $x21
	;DEBUG_VALUE: find_first_greater_than:operand <- $x19
	;DEBUG_VALUE: emulate_AMX_GENLUT:table <- $x21
	;DEBUG_VALUE: emulate_AMX_GENLUT:mode <- $x26
	;DEBUG_VALUE: emulate_AMX_GENLUT:state <- $x20
	;DEBUG_VALUE: emulate_AMX_GENLUT:operand <- $x19
	;DEBUG_VALUE: v <- 10
	.loc	2 25 13                         ; genlut.c:25:13
	ldrh	w14, [x21, #20]
Ltmp410:
	.loc	2 25 13                         ; genlut.c:25:13
	cmp	w14, w13
	b.ls	LBB1_229
Ltmp411:
; %bb.228:                              ;   in Loop: Header=BB1_208 Depth=1
	;DEBUG_VALUE: v <- 10
	;DEBUG_VALUE: i <- $x8
	;DEBUG_VALUE: find_first_greater_than:mode <- $w26
	;DEBUG_VALUE: find_first_greater_than:vs <- [DW_OP_plus_uconst 72, DW_OP_stack_value] $sp
	;DEBUG_VALUE: find_first_greater_than:xy <- [DW_OP_plus_uconst 8, DW_OP_stack_value] $sp
	;DEBUG_VALUE: find_first_greater_than:table <- $x21
	;DEBUG_VALUE: find_first_greater_than:operand <- $x19
	;DEBUG_VALUE: emulate_AMX_GENLUT:table <- $x21
	;DEBUG_VALUE: emulate_AMX_GENLUT:mode <- $x26
	;DEBUG_VALUE: emulate_AMX_GENLUT:state <- $x20
	;DEBUG_VALUE: emulate_AMX_GENLUT:operand <- $x19
	.loc	2 0 13                          ; genlut.c:0:13
	mov	w13, #9
	b	LBB1_207
Ltmp412:
LBB1_229:                               ;   in Loop: Header=BB1_208 Depth=1
	;DEBUG_VALUE: v <- 10
	;DEBUG_VALUE: i <- $x8
	;DEBUG_VALUE: find_first_greater_than:mode <- $w26
	;DEBUG_VALUE: find_first_greater_than:vs <- [DW_OP_plus_uconst 72, DW_OP_stack_value] $sp
	;DEBUG_VALUE: find_first_greater_than:xy <- [DW_OP_plus_uconst 8, DW_OP_stack_value] $sp
	;DEBUG_VALUE: find_first_greater_than:table <- $x21
	;DEBUG_VALUE: find_first_greater_than:operand <- $x19
	;DEBUG_VALUE: emulate_AMX_GENLUT:table <- $x21
	;DEBUG_VALUE: emulate_AMX_GENLUT:mode <- $x26
	;DEBUG_VALUE: emulate_AMX_GENLUT:state <- $x20
	;DEBUG_VALUE: emulate_AMX_GENLUT:operand <- $x19
	;DEBUG_VALUE: v <- 11
	.loc	2 25 13                         ; genlut.c:25:13
	ldrh	w14, [x21, #22]
Ltmp413:
	.loc	2 25 13                         ; genlut.c:25:13
	cmp	w14, w13
	b.ls	LBB1_231
Ltmp414:
; %bb.230:                              ;   in Loop: Header=BB1_208 Depth=1
	;DEBUG_VALUE: v <- 11
	;DEBUG_VALUE: i <- $x8
	;DEBUG_VALUE: find_first_greater_than:mode <- $w26
	;DEBUG_VALUE: find_first_greater_than:vs <- [DW_OP_plus_uconst 72, DW_OP_stack_value] $sp
	;DEBUG_VALUE: find_first_greater_than:xy <- [DW_OP_plus_uconst 8, DW_OP_stack_value] $sp
	;DEBUG_VALUE: find_first_greater_than:table <- $x21
	;DEBUG_VALUE: find_first_greater_than:operand <- $x19
	;DEBUG_VALUE: emulate_AMX_GENLUT:table <- $x21
	;DEBUG_VALUE: emulate_AMX_GENLUT:mode <- $x26
	;DEBUG_VALUE: emulate_AMX_GENLUT:state <- $x20
	;DEBUG_VALUE: emulate_AMX_GENLUT:operand <- $x19
	.loc	2 0 13                          ; genlut.c:0:13
	mov	w13, #10
	b	LBB1_207
Ltmp415:
LBB1_231:                               ;   in Loop: Header=BB1_208 Depth=1
	;DEBUG_VALUE: v <- 11
	;DEBUG_VALUE: i <- $x8
	;DEBUG_VALUE: find_first_greater_than:mode <- $w26
	;DEBUG_VALUE: find_first_greater_than:vs <- [DW_OP_plus_uconst 72, DW_OP_stack_value] $sp
	;DEBUG_VALUE: find_first_greater_than:xy <- [DW_OP_plus_uconst 8, DW_OP_stack_value] $sp
	;DEBUG_VALUE: find_first_greater_than:table <- $x21
	;DEBUG_VALUE: find_first_greater_than:operand <- $x19
	;DEBUG_VALUE: emulate_AMX_GENLUT:table <- $x21
	;DEBUG_VALUE: emulate_AMX_GENLUT:mode <- $x26
	;DEBUG_VALUE: emulate_AMX_GENLUT:state <- $x20
	;DEBUG_VALUE: emulate_AMX_GENLUT:operand <- $x19
	;DEBUG_VALUE: v <- 12
	.loc	2 25 13                         ; genlut.c:25:13
	ldrh	w14, [x21, #24]
Ltmp416:
	.loc	2 25 13                         ; genlut.c:25:13
	cmp	w14, w13
	b.ls	LBB1_233
Ltmp417:
; %bb.232:                              ;   in Loop: Header=BB1_208 Depth=1
	;DEBUG_VALUE: v <- 12
	;DEBUG_VALUE: i <- $x8
	;DEBUG_VALUE: find_first_greater_than:mode <- $w26
	;DEBUG_VALUE: find_first_greater_than:vs <- [DW_OP_plus_uconst 72, DW_OP_stack_value] $sp
	;DEBUG_VALUE: find_first_greater_than:xy <- [DW_OP_plus_uconst 8, DW_OP_stack_value] $sp
	;DEBUG_VALUE: find_first_greater_than:table <- $x21
	;DEBUG_VALUE: find_first_greater_than:operand <- $x19
	;DEBUG_VALUE: emulate_AMX_GENLUT:table <- $x21
	;DEBUG_VALUE: emulate_AMX_GENLUT:mode <- $x26
	;DEBUG_VALUE: emulate_AMX_GENLUT:state <- $x20
	;DEBUG_VALUE: emulate_AMX_GENLUT:operand <- $x19
	.loc	2 0 13                          ; genlut.c:0:13
	mov	w13, #11
	b	LBB1_207
Ltmp418:
LBB1_233:                               ;   in Loop: Header=BB1_208 Depth=1
	;DEBUG_VALUE: v <- 12
	;DEBUG_VALUE: i <- $x8
	;DEBUG_VALUE: find_first_greater_than:mode <- $w26
	;DEBUG_VALUE: find_first_greater_than:vs <- [DW_OP_plus_uconst 72, DW_OP_stack_value] $sp
	;DEBUG_VALUE: find_first_greater_than:xy <- [DW_OP_plus_uconst 8, DW_OP_stack_value] $sp
	;DEBUG_VALUE: find_first_greater_than:table <- $x21
	;DEBUG_VALUE: find_first_greater_than:operand <- $x19
	;DEBUG_VALUE: emulate_AMX_GENLUT:table <- $x21
	;DEBUG_VALUE: emulate_AMX_GENLUT:mode <- $x26
	;DEBUG_VALUE: emulate_AMX_GENLUT:state <- $x20
	;DEBUG_VALUE: emulate_AMX_GENLUT:operand <- $x19
	;DEBUG_VALUE: v <- 13
	.loc	2 25 13                         ; genlut.c:25:13
	ldrh	w14, [x21, #26]
Ltmp419:
	.loc	2 25 13                         ; genlut.c:25:13
	cmp	w14, w13
	b.ls	LBB1_235
Ltmp420:
; %bb.234:                              ;   in Loop: Header=BB1_208 Depth=1
	;DEBUG_VALUE: v <- 13
	;DEBUG_VALUE: i <- $x8
	;DEBUG_VALUE: find_first_greater_than:mode <- $w26
	;DEBUG_VALUE: find_first_greater_than:vs <- [DW_OP_plus_uconst 72, DW_OP_stack_value] $sp
	;DEBUG_VALUE: find_first_greater_than:xy <- [DW_OP_plus_uconst 8, DW_OP_stack_value] $sp
	;DEBUG_VALUE: find_first_greater_than:table <- $x21
	;DEBUG_VALUE: find_first_greater_than:operand <- $x19
	;DEBUG_VALUE: emulate_AMX_GENLUT:table <- $x21
	;DEBUG_VALUE: emulate_AMX_GENLUT:mode <- $x26
	;DEBUG_VALUE: emulate_AMX_GENLUT:state <- $x20
	;DEBUG_VALUE: emulate_AMX_GENLUT:operand <- $x19
	.loc	2 0 13                          ; genlut.c:0:13
	mov	w13, #12
	b	LBB1_207
Ltmp421:
LBB1_235:                               ;   in Loop: Header=BB1_208 Depth=1
	;DEBUG_VALUE: v <- 13
	;DEBUG_VALUE: i <- $x8
	;DEBUG_VALUE: find_first_greater_than:mode <- $w26
	;DEBUG_VALUE: find_first_greater_than:vs <- [DW_OP_plus_uconst 72, DW_OP_stack_value] $sp
	;DEBUG_VALUE: find_first_greater_than:xy <- [DW_OP_plus_uconst 8, DW_OP_stack_value] $sp
	;DEBUG_VALUE: find_first_greater_than:table <- $x21
	;DEBUG_VALUE: find_first_greater_than:operand <- $x19
	;DEBUG_VALUE: emulate_AMX_GENLUT:table <- $x21
	;DEBUG_VALUE: emulate_AMX_GENLUT:mode <- $x26
	;DEBUG_VALUE: emulate_AMX_GENLUT:state <- $x20
	;DEBUG_VALUE: emulate_AMX_GENLUT:operand <- $x19
	;DEBUG_VALUE: v <- 14
	.loc	2 25 13                         ; genlut.c:25:13
	ldrh	w14, [x21, #28]
Ltmp422:
	.loc	2 25 13                         ; genlut.c:25:13
	cmp	w14, w13
	b.ls	LBB1_237
Ltmp423:
; %bb.236:                              ;   in Loop: Header=BB1_208 Depth=1
	;DEBUG_VALUE: v <- 14
	;DEBUG_VALUE: i <- $x8
	;DEBUG_VALUE: find_first_greater_than:mode <- $w26
	;DEBUG_VALUE: find_first_greater_than:vs <- [DW_OP_plus_uconst 72, DW_OP_stack_value] $sp
	;DEBUG_VALUE: find_first_greater_than:xy <- [DW_OP_plus_uconst 8, DW_OP_stack_value] $sp
	;DEBUG_VALUE: find_first_greater_than:table <- $x21
	;DEBUG_VALUE: find_first_greater_than:operand <- $x19
	;DEBUG_VALUE: emulate_AMX_GENLUT:table <- $x21
	;DEBUG_VALUE: emulate_AMX_GENLUT:mode <- $x26
	;DEBUG_VALUE: emulate_AMX_GENLUT:state <- $x20
	;DEBUG_VALUE: emulate_AMX_GENLUT:operand <- $x19
	.loc	2 0 13                          ; genlut.c:0:13
	mov	w13, #13
	b	LBB1_207
Ltmp424:
LBB1_237:                               ;   in Loop: Header=BB1_208 Depth=1
	;DEBUG_VALUE: v <- 14
	;DEBUG_VALUE: i <- $x8
	;DEBUG_VALUE: find_first_greater_than:mode <- $w26
	;DEBUG_VALUE: find_first_greater_than:vs <- [DW_OP_plus_uconst 72, DW_OP_stack_value] $sp
	;DEBUG_VALUE: find_first_greater_than:xy <- [DW_OP_plus_uconst 8, DW_OP_stack_value] $sp
	;DEBUG_VALUE: find_first_greater_than:table <- $x21
	;DEBUG_VALUE: find_first_greater_than:operand <- $x19
	;DEBUG_VALUE: emulate_AMX_GENLUT:table <- $x21
	;DEBUG_VALUE: emulate_AMX_GENLUT:mode <- $x26
	;DEBUG_VALUE: emulate_AMX_GENLUT:state <- $x20
	;DEBUG_VALUE: emulate_AMX_GENLUT:operand <- $x19
	;DEBUG_VALUE: v <- 15
	.loc	2 25 13                         ; genlut.c:25:13
	ldrh	w14, [x21, #30]
Ltmp425:
	.loc	2 25 13                         ; genlut.c:25:13
	cmp	w14, w13
	b.ls	LBB1_239
Ltmp426:
; %bb.238:                              ;   in Loop: Header=BB1_208 Depth=1
	;DEBUG_VALUE: v <- 15
	;DEBUG_VALUE: i <- $x8
	;DEBUG_VALUE: find_first_greater_than:mode <- $w26
	;DEBUG_VALUE: find_first_greater_than:vs <- [DW_OP_plus_uconst 72, DW_OP_stack_value] $sp
	;DEBUG_VALUE: find_first_greater_than:xy <- [DW_OP_plus_uconst 8, DW_OP_stack_value] $sp
	;DEBUG_VALUE: find_first_greater_than:table <- $x21
	;DEBUG_VALUE: find_first_greater_than:operand <- $x19
	;DEBUG_VALUE: emulate_AMX_GENLUT:table <- $x21
	;DEBUG_VALUE: emulate_AMX_GENLUT:mode <- $x26
	;DEBUG_VALUE: emulate_AMX_GENLUT:state <- $x20
	;DEBUG_VALUE: emulate_AMX_GENLUT:operand <- $x19
	.loc	2 0 13                          ; genlut.c:0:13
	mov	w13, #14
	b	LBB1_207
Ltmp427:
LBB1_239:                               ;   in Loop: Header=BB1_208 Depth=1
	;DEBUG_VALUE: v <- 15
	;DEBUG_VALUE: i <- $x8
	;DEBUG_VALUE: find_first_greater_than:mode <- $w26
	;DEBUG_VALUE: find_first_greater_than:vs <- [DW_OP_plus_uconst 72, DW_OP_stack_value] $sp
	;DEBUG_VALUE: find_first_greater_than:xy <- [DW_OP_plus_uconst 8, DW_OP_stack_value] $sp
	;DEBUG_VALUE: find_first_greater_than:table <- $x21
	;DEBUG_VALUE: find_first_greater_than:operand <- $x19
	;DEBUG_VALUE: emulate_AMX_GENLUT:table <- $x21
	;DEBUG_VALUE: emulate_AMX_GENLUT:mode <- $x26
	;DEBUG_VALUE: emulate_AMX_GENLUT:state <- $x20
	;DEBUG_VALUE: emulate_AMX_GENLUT:operand <- $x19
	;DEBUG_VALUE: v <- 16
	.loc	2 25 13                         ; genlut.c:25:13
	ldrh	w14, [x21, #32]
Ltmp428:
	.loc	2 25 13                         ; genlut.c:25:13
	cmp	w14, w13
	b.ls	LBB1_241
Ltmp429:
; %bb.240:                              ;   in Loop: Header=BB1_208 Depth=1
	;DEBUG_VALUE: v <- 16
	;DEBUG_VALUE: i <- $x8
	;DEBUG_VALUE: find_first_greater_than:mode <- $w26
	;DEBUG_VALUE: find_first_greater_than:vs <- [DW_OP_plus_uconst 72, DW_OP_stack_value] $sp
	;DEBUG_VALUE: find_first_greater_than:xy <- [DW_OP_plus_uconst 8, DW_OP_stack_value] $sp
	;DEBUG_VALUE: find_first_greater_than:table <- $x21
	;DEBUG_VALUE: find_first_greater_than:operand <- $x19
	;DEBUG_VALUE: emulate_AMX_GENLUT:table <- $x21
	;DEBUG_VALUE: emulate_AMX_GENLUT:mode <- $x26
	;DEBUG_VALUE: emulate_AMX_GENLUT:state <- $x20
	;DEBUG_VALUE: emulate_AMX_GENLUT:operand <- $x19
	.loc	2 0 13                          ; genlut.c:0:13
	mov	w13, #15
	b	LBB1_207
Ltmp430:
LBB1_241:                               ;   in Loop: Header=BB1_208 Depth=1
	;DEBUG_VALUE: v <- 16
	;DEBUG_VALUE: i <- $x8
	;DEBUG_VALUE: find_first_greater_than:mode <- $w26
	;DEBUG_VALUE: find_first_greater_than:vs <- [DW_OP_plus_uconst 72, DW_OP_stack_value] $sp
	;DEBUG_VALUE: find_first_greater_than:xy <- [DW_OP_plus_uconst 8, DW_OP_stack_value] $sp
	;DEBUG_VALUE: find_first_greater_than:table <- $x21
	;DEBUG_VALUE: find_first_greater_than:operand <- $x19
	;DEBUG_VALUE: emulate_AMX_GENLUT:table <- $x21
	;DEBUG_VALUE: emulate_AMX_GENLUT:mode <- $x26
	;DEBUG_VALUE: emulate_AMX_GENLUT:state <- $x20
	;DEBUG_VALUE: emulate_AMX_GENLUT:operand <- $x19
	;DEBUG_VALUE: v <- 17
	.loc	2 25 13                         ; genlut.c:25:13
	ldrh	w14, [x21, #34]
Ltmp431:
	.loc	2 25 13                         ; genlut.c:25:13
	cmp	w14, w13
	b.ls	LBB1_243
Ltmp432:
; %bb.242:                              ;   in Loop: Header=BB1_208 Depth=1
	;DEBUG_VALUE: v <- 17
	;DEBUG_VALUE: i <- $x8
	;DEBUG_VALUE: find_first_greater_than:mode <- $w26
	;DEBUG_VALUE: find_first_greater_than:vs <- [DW_OP_plus_uconst 72, DW_OP_stack_value] $sp
	;DEBUG_VALUE: find_first_greater_than:xy <- [DW_OP_plus_uconst 8, DW_OP_stack_value] $sp
	;DEBUG_VALUE: find_first_greater_than:table <- $x21
	;DEBUG_VALUE: find_first_greater_than:operand <- $x19
	;DEBUG_VALUE: emulate_AMX_GENLUT:table <- $x21
	;DEBUG_VALUE: emulate_AMX_GENLUT:mode <- $x26
	;DEBUG_VALUE: emulate_AMX_GENLUT:state <- $x20
	;DEBUG_VALUE: emulate_AMX_GENLUT:operand <- $x19
	.loc	2 0 13                          ; genlut.c:0:13
	mov	w13, #16
	b	LBB1_207
Ltmp433:
LBB1_243:                               ;   in Loop: Header=BB1_208 Depth=1
	;DEBUG_VALUE: v <- 17
	;DEBUG_VALUE: i <- $x8
	;DEBUG_VALUE: find_first_greater_than:mode <- $w26
	;DEBUG_VALUE: find_first_greater_than:vs <- [DW_OP_plus_uconst 72, DW_OP_stack_value] $sp
	;DEBUG_VALUE: find_first_greater_than:xy <- [DW_OP_plus_uconst 8, DW_OP_stack_value] $sp
	;DEBUG_VALUE: find_first_greater_than:table <- $x21
	;DEBUG_VALUE: find_first_greater_than:operand <- $x19
	;DEBUG_VALUE: emulate_AMX_GENLUT:table <- $x21
	;DEBUG_VALUE: emulate_AMX_GENLUT:mode <- $x26
	;DEBUG_VALUE: emulate_AMX_GENLUT:state <- $x20
	;DEBUG_VALUE: emulate_AMX_GENLUT:operand <- $x19
	;DEBUG_VALUE: v <- 18
	.loc	2 25 13                         ; genlut.c:25:13
	ldrh	w14, [x21, #36]
Ltmp434:
	.loc	2 25 13                         ; genlut.c:25:13
	cmp	w14, w13
	b.ls	LBB1_245
Ltmp435:
; %bb.244:                              ;   in Loop: Header=BB1_208 Depth=1
	;DEBUG_VALUE: v <- 18
	;DEBUG_VALUE: i <- $x8
	;DEBUG_VALUE: find_first_greater_than:mode <- $w26
	;DEBUG_VALUE: find_first_greater_than:vs <- [DW_OP_plus_uconst 72, DW_OP_stack_value] $sp
	;DEBUG_VALUE: find_first_greater_than:xy <- [DW_OP_plus_uconst 8, DW_OP_stack_value] $sp
	;DEBUG_VALUE: find_first_greater_than:table <- $x21
	;DEBUG_VALUE: find_first_greater_than:operand <- $x19
	;DEBUG_VALUE: emulate_AMX_GENLUT:table <- $x21
	;DEBUG_VALUE: emulate_AMX_GENLUT:mode <- $x26
	;DEBUG_VALUE: emulate_AMX_GENLUT:state <- $x20
	;DEBUG_VALUE: emulate_AMX_GENLUT:operand <- $x19
	.loc	2 0 13                          ; genlut.c:0:13
	mov	w13, #17
	b	LBB1_207
Ltmp436:
LBB1_245:                               ;   in Loop: Header=BB1_208 Depth=1
	;DEBUG_VALUE: v <- 18
	;DEBUG_VALUE: i <- $x8
	;DEBUG_VALUE: find_first_greater_than:mode <- $w26
	;DEBUG_VALUE: find_first_greater_than:vs <- [DW_OP_plus_uconst 72, DW_OP_stack_value] $sp
	;DEBUG_VALUE: find_first_greater_than:xy <- [DW_OP_plus_uconst 8, DW_OP_stack_value] $sp
	;DEBUG_VALUE: find_first_greater_than:table <- $x21
	;DEBUG_VALUE: find_first_greater_than:operand <- $x19
	;DEBUG_VALUE: emulate_AMX_GENLUT:table <- $x21
	;DEBUG_VALUE: emulate_AMX_GENLUT:mode <- $x26
	;DEBUG_VALUE: emulate_AMX_GENLUT:state <- $x20
	;DEBUG_VALUE: emulate_AMX_GENLUT:operand <- $x19
	;DEBUG_VALUE: v <- 19
	.loc	2 25 13                         ; genlut.c:25:13
	ldrh	w14, [x21, #38]
Ltmp437:
	.loc	2 25 13                         ; genlut.c:25:13
	cmp	w14, w13
	b.ls	LBB1_247
Ltmp438:
; %bb.246:                              ;   in Loop: Header=BB1_208 Depth=1
	;DEBUG_VALUE: v <- 19
	;DEBUG_VALUE: i <- $x8
	;DEBUG_VALUE: find_first_greater_than:mode <- $w26
	;DEBUG_VALUE: find_first_greater_than:vs <- [DW_OP_plus_uconst 72, DW_OP_stack_value] $sp
	;DEBUG_VALUE: find_first_greater_than:xy <- [DW_OP_plus_uconst 8, DW_OP_stack_value] $sp
	;DEBUG_VALUE: find_first_greater_than:table <- $x21
	;DEBUG_VALUE: find_first_greater_than:operand <- $x19
	;DEBUG_VALUE: emulate_AMX_GENLUT:table <- $x21
	;DEBUG_VALUE: emulate_AMX_GENLUT:mode <- $x26
	;DEBUG_VALUE: emulate_AMX_GENLUT:state <- $x20
	;DEBUG_VALUE: emulate_AMX_GENLUT:operand <- $x19
	.loc	2 0 13                          ; genlut.c:0:13
	mov	w13, #18
	b	LBB1_207
Ltmp439:
LBB1_247:                               ;   in Loop: Header=BB1_208 Depth=1
	;DEBUG_VALUE: v <- 19
	;DEBUG_VALUE: i <- $x8
	;DEBUG_VALUE: find_first_greater_than:mode <- $w26
	;DEBUG_VALUE: find_first_greater_than:vs <- [DW_OP_plus_uconst 72, DW_OP_stack_value] $sp
	;DEBUG_VALUE: find_first_greater_than:xy <- [DW_OP_plus_uconst 8, DW_OP_stack_value] $sp
	;DEBUG_VALUE: find_first_greater_than:table <- $x21
	;DEBUG_VALUE: find_first_greater_than:operand <- $x19
	;DEBUG_VALUE: emulate_AMX_GENLUT:table <- $x21
	;DEBUG_VALUE: emulate_AMX_GENLUT:mode <- $x26
	;DEBUG_VALUE: emulate_AMX_GENLUT:state <- $x20
	;DEBUG_VALUE: emulate_AMX_GENLUT:operand <- $x19
	;DEBUG_VALUE: v <- 20
	.loc	2 25 13                         ; genlut.c:25:13
	ldrh	w14, [x21, #40]
Ltmp440:
	.loc	2 25 13                         ; genlut.c:25:13
	cmp	w14, w13
	b.ls	LBB1_249
Ltmp441:
; %bb.248:                              ;   in Loop: Header=BB1_208 Depth=1
	;DEBUG_VALUE: v <- 20
	;DEBUG_VALUE: i <- $x8
	;DEBUG_VALUE: find_first_greater_than:mode <- $w26
	;DEBUG_VALUE: find_first_greater_than:vs <- [DW_OP_plus_uconst 72, DW_OP_stack_value] $sp
	;DEBUG_VALUE: find_first_greater_than:xy <- [DW_OP_plus_uconst 8, DW_OP_stack_value] $sp
	;DEBUG_VALUE: find_first_greater_than:table <- $x21
	;DEBUG_VALUE: find_first_greater_than:operand <- $x19
	;DEBUG_VALUE: emulate_AMX_GENLUT:table <- $x21
	;DEBUG_VALUE: emulate_AMX_GENLUT:mode <- $x26
	;DEBUG_VALUE: emulate_AMX_GENLUT:state <- $x20
	;DEBUG_VALUE: emulate_AMX_GENLUT:operand <- $x19
	.loc	2 0 13                          ; genlut.c:0:13
	mov	w13, #19
	b	LBB1_207
Ltmp442:
LBB1_249:                               ;   in Loop: Header=BB1_208 Depth=1
	;DEBUG_VALUE: v <- 20
	;DEBUG_VALUE: i <- $x8
	;DEBUG_VALUE: find_first_greater_than:mode <- $w26
	;DEBUG_VALUE: find_first_greater_than:vs <- [DW_OP_plus_uconst 72, DW_OP_stack_value] $sp
	;DEBUG_VALUE: find_first_greater_than:xy <- [DW_OP_plus_uconst 8, DW_OP_stack_value] $sp
	;DEBUG_VALUE: find_first_greater_than:table <- $x21
	;DEBUG_VALUE: find_first_greater_than:operand <- $x19
	;DEBUG_VALUE: emulate_AMX_GENLUT:table <- $x21
	;DEBUG_VALUE: emulate_AMX_GENLUT:mode <- $x26
	;DEBUG_VALUE: emulate_AMX_GENLUT:state <- $x20
	;DEBUG_VALUE: emulate_AMX_GENLUT:operand <- $x19
	;DEBUG_VALUE: v <- 21
	.loc	2 25 13                         ; genlut.c:25:13
	ldrh	w14, [x21, #42]
Ltmp443:
	.loc	2 25 13                         ; genlut.c:25:13
	cmp	w14, w13
	b.ls	LBB1_251
Ltmp444:
; %bb.250:                              ;   in Loop: Header=BB1_208 Depth=1
	;DEBUG_VALUE: v <- 21
	;DEBUG_VALUE: i <- $x8
	;DEBUG_VALUE: find_first_greater_than:mode <- $w26
	;DEBUG_VALUE: find_first_greater_than:vs <- [DW_OP_plus_uconst 72, DW_OP_stack_value] $sp
	;DEBUG_VALUE: find_first_greater_than:xy <- [DW_OP_plus_uconst 8, DW_OP_stack_value] $sp
	;DEBUG_VALUE: find_first_greater_than:table <- $x21
	;DEBUG_VALUE: find_first_greater_than:operand <- $x19
	;DEBUG_VALUE: emulate_AMX_GENLUT:table <- $x21
	;DEBUG_VALUE: emulate_AMX_GENLUT:mode <- $x26
	;DEBUG_VALUE: emulate_AMX_GENLUT:state <- $x20
	;DEBUG_VALUE: emulate_AMX_GENLUT:operand <- $x19
	.loc	2 0 13                          ; genlut.c:0:13
	mov	w13, #20
	b	LBB1_207
Ltmp445:
LBB1_251:                               ;   in Loop: Header=BB1_208 Depth=1
	;DEBUG_VALUE: v <- 21
	;DEBUG_VALUE: i <- $x8
	;DEBUG_VALUE: find_first_greater_than:mode <- $w26
	;DEBUG_VALUE: find_first_greater_than:vs <- [DW_OP_plus_uconst 72, DW_OP_stack_value] $sp
	;DEBUG_VALUE: find_first_greater_than:xy <- [DW_OP_plus_uconst 8, DW_OP_stack_value] $sp
	;DEBUG_VALUE: find_first_greater_than:table <- $x21
	;DEBUG_VALUE: find_first_greater_than:operand <- $x19
	;DEBUG_VALUE: emulate_AMX_GENLUT:table <- $x21
	;DEBUG_VALUE: emulate_AMX_GENLUT:mode <- $x26
	;DEBUG_VALUE: emulate_AMX_GENLUT:state <- $x20
	;DEBUG_VALUE: emulate_AMX_GENLUT:operand <- $x19
	;DEBUG_VALUE: v <- 22
	.loc	2 25 13                         ; genlut.c:25:13
	ldrh	w14, [x21, #44]
Ltmp446:
	.loc	2 25 13                         ; genlut.c:25:13
	cmp	w14, w13
	b.ls	LBB1_253
Ltmp447:
; %bb.252:                              ;   in Loop: Header=BB1_208 Depth=1
	;DEBUG_VALUE: v <- 22
	;DEBUG_VALUE: i <- $x8
	;DEBUG_VALUE: find_first_greater_than:mode <- $w26
	;DEBUG_VALUE: find_first_greater_than:vs <- [DW_OP_plus_uconst 72, DW_OP_stack_value] $sp
	;DEBUG_VALUE: find_first_greater_than:xy <- [DW_OP_plus_uconst 8, DW_OP_stack_value] $sp
	;DEBUG_VALUE: find_first_greater_than:table <- $x21
	;DEBUG_VALUE: find_first_greater_than:operand <- $x19
	;DEBUG_VALUE: emulate_AMX_GENLUT:table <- $x21
	;DEBUG_VALUE: emulate_AMX_GENLUT:mode <- $x26
	;DEBUG_VALUE: emulate_AMX_GENLUT:state <- $x20
	;DEBUG_VALUE: emulate_AMX_GENLUT:operand <- $x19
	.loc	2 0 13                          ; genlut.c:0:13
	mov	w13, #21
	b	LBB1_207
Ltmp448:
LBB1_253:                               ;   in Loop: Header=BB1_208 Depth=1
	;DEBUG_VALUE: v <- 22
	;DEBUG_VALUE: i <- $x8
	;DEBUG_VALUE: find_first_greater_than:mode <- $w26
	;DEBUG_VALUE: find_first_greater_than:vs <- [DW_OP_plus_uconst 72, DW_OP_stack_value] $sp
	;DEBUG_VALUE: find_first_greater_than:xy <- [DW_OP_plus_uconst 8, DW_OP_stack_value] $sp
	;DEBUG_VALUE: find_first_greater_than:table <- $x21
	;DEBUG_VALUE: find_first_greater_than:operand <- $x19
	;DEBUG_VALUE: emulate_AMX_GENLUT:table <- $x21
	;DEBUG_VALUE: emulate_AMX_GENLUT:mode <- $x26
	;DEBUG_VALUE: emulate_AMX_GENLUT:state <- $x20
	;DEBUG_VALUE: emulate_AMX_GENLUT:operand <- $x19
	;DEBUG_VALUE: v <- 23
	.loc	2 25 13                         ; genlut.c:25:13
	ldrh	w14, [x21, #46]
Ltmp449:
	.loc	2 25 13                         ; genlut.c:25:13
	cmp	w14, w13
	b.ls	LBB1_255
Ltmp450:
; %bb.254:                              ;   in Loop: Header=BB1_208 Depth=1
	;DEBUG_VALUE: v <- 23
	;DEBUG_VALUE: i <- $x8
	;DEBUG_VALUE: find_first_greater_than:mode <- $w26
	;DEBUG_VALUE: find_first_greater_than:vs <- [DW_OP_plus_uconst 72, DW_OP_stack_value] $sp
	;DEBUG_VALUE: find_first_greater_than:xy <- [DW_OP_plus_uconst 8, DW_OP_stack_value] $sp
	;DEBUG_VALUE: find_first_greater_than:table <- $x21
	;DEBUG_VALUE: find_first_greater_than:operand <- $x19
	;DEBUG_VALUE: emulate_AMX_GENLUT:table <- $x21
	;DEBUG_VALUE: emulate_AMX_GENLUT:mode <- $x26
	;DEBUG_VALUE: emulate_AMX_GENLUT:state <- $x20
	;DEBUG_VALUE: emulate_AMX_GENLUT:operand <- $x19
	.loc	2 0 13                          ; genlut.c:0:13
	mov	w13, #22
	b	LBB1_207
Ltmp451:
LBB1_255:                               ;   in Loop: Header=BB1_208 Depth=1
	;DEBUG_VALUE: v <- 23
	;DEBUG_VALUE: i <- $x8
	;DEBUG_VALUE: find_first_greater_than:mode <- $w26
	;DEBUG_VALUE: find_first_greater_than:vs <- [DW_OP_plus_uconst 72, DW_OP_stack_value] $sp
	;DEBUG_VALUE: find_first_greater_than:xy <- [DW_OP_plus_uconst 8, DW_OP_stack_value] $sp
	;DEBUG_VALUE: find_first_greater_than:table <- $x21
	;DEBUG_VALUE: find_first_greater_than:operand <- $x19
	;DEBUG_VALUE: emulate_AMX_GENLUT:table <- $x21
	;DEBUG_VALUE: emulate_AMX_GENLUT:mode <- $x26
	;DEBUG_VALUE: emulate_AMX_GENLUT:state <- $x20
	;DEBUG_VALUE: emulate_AMX_GENLUT:operand <- $x19
	;DEBUG_VALUE: v <- 24
	.loc	2 25 13                         ; genlut.c:25:13
	ldrh	w14, [x21, #48]
Ltmp452:
	.loc	2 25 13                         ; genlut.c:25:13
	cmp	w14, w13
	b.ls	LBB1_257
Ltmp453:
; %bb.256:                              ;   in Loop: Header=BB1_208 Depth=1
	;DEBUG_VALUE: v <- 24
	;DEBUG_VALUE: i <- $x8
	;DEBUG_VALUE: find_first_greater_than:mode <- $w26
	;DEBUG_VALUE: find_first_greater_than:vs <- [DW_OP_plus_uconst 72, DW_OP_stack_value] $sp
	;DEBUG_VALUE: find_first_greater_than:xy <- [DW_OP_plus_uconst 8, DW_OP_stack_value] $sp
	;DEBUG_VALUE: find_first_greater_than:table <- $x21
	;DEBUG_VALUE: find_first_greater_than:operand <- $x19
	;DEBUG_VALUE: emulate_AMX_GENLUT:table <- $x21
	;DEBUG_VALUE: emulate_AMX_GENLUT:mode <- $x26
	;DEBUG_VALUE: emulate_AMX_GENLUT:state <- $x20
	;DEBUG_VALUE: emulate_AMX_GENLUT:operand <- $x19
	.loc	2 0 13                          ; genlut.c:0:13
	mov	w13, #23
	b	LBB1_207
Ltmp454:
LBB1_257:                               ;   in Loop: Header=BB1_208 Depth=1
	;DEBUG_VALUE: v <- 24
	;DEBUG_VALUE: i <- $x8
	;DEBUG_VALUE: find_first_greater_than:mode <- $w26
	;DEBUG_VALUE: find_first_greater_than:vs <- [DW_OP_plus_uconst 72, DW_OP_stack_value] $sp
	;DEBUG_VALUE: find_first_greater_than:xy <- [DW_OP_plus_uconst 8, DW_OP_stack_value] $sp
	;DEBUG_VALUE: find_first_greater_than:table <- $x21
	;DEBUG_VALUE: find_first_greater_than:operand <- $x19
	;DEBUG_VALUE: emulate_AMX_GENLUT:table <- $x21
	;DEBUG_VALUE: emulate_AMX_GENLUT:mode <- $x26
	;DEBUG_VALUE: emulate_AMX_GENLUT:state <- $x20
	;DEBUG_VALUE: emulate_AMX_GENLUT:operand <- $x19
	;DEBUG_VALUE: v <- 25
	.loc	2 25 13                         ; genlut.c:25:13
	ldrh	w14, [x21, #50]
Ltmp455:
	.loc	2 25 13                         ; genlut.c:25:13
	cmp	w14, w13
	b.ls	LBB1_259
Ltmp456:
; %bb.258:                              ;   in Loop: Header=BB1_208 Depth=1
	;DEBUG_VALUE: v <- 25
	;DEBUG_VALUE: i <- $x8
	;DEBUG_VALUE: find_first_greater_than:mode <- $w26
	;DEBUG_VALUE: find_first_greater_than:vs <- [DW_OP_plus_uconst 72, DW_OP_stack_value] $sp
	;DEBUG_VALUE: find_first_greater_than:xy <- [DW_OP_plus_uconst 8, DW_OP_stack_value] $sp
	;DEBUG_VALUE: find_first_greater_than:table <- $x21
	;DEBUG_VALUE: find_first_greater_than:operand <- $x19
	;DEBUG_VALUE: emulate_AMX_GENLUT:table <- $x21
	;DEBUG_VALUE: emulate_AMX_GENLUT:mode <- $x26
	;DEBUG_VALUE: emulate_AMX_GENLUT:state <- $x20
	;DEBUG_VALUE: emulate_AMX_GENLUT:operand <- $x19
	.loc	2 0 13                          ; genlut.c:0:13
	mov	w13, #24
	b	LBB1_207
Ltmp457:
LBB1_259:                               ;   in Loop: Header=BB1_208 Depth=1
	;DEBUG_VALUE: v <- 25
	;DEBUG_VALUE: i <- $x8
	;DEBUG_VALUE: find_first_greater_than:mode <- $w26
	;DEBUG_VALUE: find_first_greater_than:vs <- [DW_OP_plus_uconst 72, DW_OP_stack_value] $sp
	;DEBUG_VALUE: find_first_greater_than:xy <- [DW_OP_plus_uconst 8, DW_OP_stack_value] $sp
	;DEBUG_VALUE: find_first_greater_than:table <- $x21
	;DEBUG_VALUE: find_first_greater_than:operand <- $x19
	;DEBUG_VALUE: emulate_AMX_GENLUT:table <- $x21
	;DEBUG_VALUE: emulate_AMX_GENLUT:mode <- $x26
	;DEBUG_VALUE: emulate_AMX_GENLUT:state <- $x20
	;DEBUG_VALUE: emulate_AMX_GENLUT:operand <- $x19
	;DEBUG_VALUE: v <- 26
	.loc	2 25 13                         ; genlut.c:25:13
	ldrh	w14, [x21, #52]
Ltmp458:
	.loc	2 25 13                         ; genlut.c:25:13
	cmp	w14, w13
	b.ls	LBB1_261
Ltmp459:
; %bb.260:                              ;   in Loop: Header=BB1_208 Depth=1
	;DEBUG_VALUE: v <- 26
	;DEBUG_VALUE: i <- $x8
	;DEBUG_VALUE: find_first_greater_than:mode <- $w26
	;DEBUG_VALUE: find_first_greater_than:vs <- [DW_OP_plus_uconst 72, DW_OP_stack_value] $sp
	;DEBUG_VALUE: find_first_greater_than:xy <- [DW_OP_plus_uconst 8, DW_OP_stack_value] $sp
	;DEBUG_VALUE: find_first_greater_than:table <- $x21
	;DEBUG_VALUE: find_first_greater_than:operand <- $x19
	;DEBUG_VALUE: emulate_AMX_GENLUT:table <- $x21
	;DEBUG_VALUE: emulate_AMX_GENLUT:mode <- $x26
	;DEBUG_VALUE: emulate_AMX_GENLUT:state <- $x20
	;DEBUG_VALUE: emulate_AMX_GENLUT:operand <- $x19
	.loc	2 0 13                          ; genlut.c:0:13
	mov	w13, #25
	b	LBB1_207
Ltmp460:
LBB1_261:                               ;   in Loop: Header=BB1_208 Depth=1
	;DEBUG_VALUE: v <- 26
	;DEBUG_VALUE: i <- $x8
	;DEBUG_VALUE: find_first_greater_than:mode <- $w26
	;DEBUG_VALUE: find_first_greater_than:vs <- [DW_OP_plus_uconst 72, DW_OP_stack_value] $sp
	;DEBUG_VALUE: find_first_greater_than:xy <- [DW_OP_plus_uconst 8, DW_OP_stack_value] $sp
	;DEBUG_VALUE: find_first_greater_than:table <- $x21
	;DEBUG_VALUE: find_first_greater_than:operand <- $x19
	;DEBUG_VALUE: emulate_AMX_GENLUT:table <- $x21
	;DEBUG_VALUE: emulate_AMX_GENLUT:mode <- $x26
	;DEBUG_VALUE: emulate_AMX_GENLUT:state <- $x20
	;DEBUG_VALUE: emulate_AMX_GENLUT:operand <- $x19
	;DEBUG_VALUE: v <- 27
	.loc	2 25 13                         ; genlut.c:25:13
	ldrh	w14, [x21, #54]
Ltmp461:
	.loc	2 25 13                         ; genlut.c:25:13
	cmp	w14, w13
	b.ls	LBB1_263
Ltmp462:
; %bb.262:                              ;   in Loop: Header=BB1_208 Depth=1
	;DEBUG_VALUE: v <- 27
	;DEBUG_VALUE: i <- $x8
	;DEBUG_VALUE: find_first_greater_than:mode <- $w26
	;DEBUG_VALUE: find_first_greater_than:vs <- [DW_OP_plus_uconst 72, DW_OP_stack_value] $sp
	;DEBUG_VALUE: find_first_greater_than:xy <- [DW_OP_plus_uconst 8, DW_OP_stack_value] $sp
	;DEBUG_VALUE: find_first_greater_than:table <- $x21
	;DEBUG_VALUE: find_first_greater_than:operand <- $x19
	;DEBUG_VALUE: emulate_AMX_GENLUT:table <- $x21
	;DEBUG_VALUE: emulate_AMX_GENLUT:mode <- $x26
	;DEBUG_VALUE: emulate_AMX_GENLUT:state <- $x20
	;DEBUG_VALUE: emulate_AMX_GENLUT:operand <- $x19
	.loc	2 0 13                          ; genlut.c:0:13
	mov	w13, #26
	b	LBB1_207
Ltmp463:
LBB1_263:                               ;   in Loop: Header=BB1_208 Depth=1
	;DEBUG_VALUE: v <- 27
	;DEBUG_VALUE: i <- $x8
	;DEBUG_VALUE: find_first_greater_than:mode <- $w26
	;DEBUG_VALUE: find_first_greater_than:vs <- [DW_OP_plus_uconst 72, DW_OP_stack_value] $sp
	;DEBUG_VALUE: find_first_greater_than:xy <- [DW_OP_plus_uconst 8, DW_OP_stack_value] $sp
	;DEBUG_VALUE: find_first_greater_than:table <- $x21
	;DEBUG_VALUE: find_first_greater_than:operand <- $x19
	;DEBUG_VALUE: emulate_AMX_GENLUT:table <- $x21
	;DEBUG_VALUE: emulate_AMX_GENLUT:mode <- $x26
	;DEBUG_VALUE: emulate_AMX_GENLUT:state <- $x20
	;DEBUG_VALUE: emulate_AMX_GENLUT:operand <- $x19
	;DEBUG_VALUE: v <- 28
	.loc	2 25 13                         ; genlut.c:25:13
	ldrh	w14, [x21, #56]
Ltmp464:
	.loc	2 25 13                         ; genlut.c:25:13
	cmp	w14, w13
	b.ls	LBB1_265
Ltmp465:
; %bb.264:                              ;   in Loop: Header=BB1_208 Depth=1
	;DEBUG_VALUE: v <- 28
	;DEBUG_VALUE: i <- $x8
	;DEBUG_VALUE: find_first_greater_than:mode <- $w26
	;DEBUG_VALUE: find_first_greater_than:vs <- [DW_OP_plus_uconst 72, DW_OP_stack_value] $sp
	;DEBUG_VALUE: find_first_greater_than:xy <- [DW_OP_plus_uconst 8, DW_OP_stack_value] $sp
	;DEBUG_VALUE: find_first_greater_than:table <- $x21
	;DEBUG_VALUE: find_first_greater_than:operand <- $x19
	;DEBUG_VALUE: emulate_AMX_GENLUT:table <- $x21
	;DEBUG_VALUE: emulate_AMX_GENLUT:mode <- $x26
	;DEBUG_VALUE: emulate_AMX_GENLUT:state <- $x20
	;DEBUG_VALUE: emulate_AMX_GENLUT:operand <- $x19
	.loc	2 0 13                          ; genlut.c:0:13
	mov	w13, #27
	b	LBB1_207
Ltmp466:
LBB1_265:                               ;   in Loop: Header=BB1_208 Depth=1
	;DEBUG_VALUE: v <- 28
	;DEBUG_VALUE: i <- $x8
	;DEBUG_VALUE: find_first_greater_than:mode <- $w26
	;DEBUG_VALUE: find_first_greater_than:vs <- [DW_OP_plus_uconst 72, DW_OP_stack_value] $sp
	;DEBUG_VALUE: find_first_greater_than:xy <- [DW_OP_plus_uconst 8, DW_OP_stack_value] $sp
	;DEBUG_VALUE: find_first_greater_than:table <- $x21
	;DEBUG_VALUE: find_first_greater_than:operand <- $x19
	;DEBUG_VALUE: emulate_AMX_GENLUT:table <- $x21
	;DEBUG_VALUE: emulate_AMX_GENLUT:mode <- $x26
	;DEBUG_VALUE: emulate_AMX_GENLUT:state <- $x20
	;DEBUG_VALUE: emulate_AMX_GENLUT:operand <- $x19
	;DEBUG_VALUE: v <- 29
	.loc	2 25 13                         ; genlut.c:25:13
	ldrh	w14, [x21, #58]
Ltmp467:
	.loc	2 25 13                         ; genlut.c:25:13
	cmp	w14, w13
	b.ls	LBB1_267
Ltmp468:
; %bb.266:                              ;   in Loop: Header=BB1_208 Depth=1
	;DEBUG_VALUE: v <- 29
	;DEBUG_VALUE: i <- $x8
	;DEBUG_VALUE: find_first_greater_than:mode <- $w26
	;DEBUG_VALUE: find_first_greater_than:vs <- [DW_OP_plus_uconst 72, DW_OP_stack_value] $sp
	;DEBUG_VALUE: find_first_greater_than:xy <- [DW_OP_plus_uconst 8, DW_OP_stack_value] $sp
	;DEBUG_VALUE: find_first_greater_than:table <- $x21
	;DEBUG_VALUE: find_first_greater_than:operand <- $x19
	;DEBUG_VALUE: emulate_AMX_GENLUT:table <- $x21
	;DEBUG_VALUE: emulate_AMX_GENLUT:mode <- $x26
	;DEBUG_VALUE: emulate_AMX_GENLUT:state <- $x20
	;DEBUG_VALUE: emulate_AMX_GENLUT:operand <- $x19
	.loc	2 0 13                          ; genlut.c:0:13
	mov	w13, #28
	b	LBB1_207
Ltmp469:
LBB1_267:                               ;   in Loop: Header=BB1_208 Depth=1
	;DEBUG_VALUE: v <- 29
	;DEBUG_VALUE: i <- $x8
	;DEBUG_VALUE: find_first_greater_than:mode <- $w26
	;DEBUG_VALUE: find_first_greater_than:vs <- [DW_OP_plus_uconst 72, DW_OP_stack_value] $sp
	;DEBUG_VALUE: find_first_greater_than:xy <- [DW_OP_plus_uconst 8, DW_OP_stack_value] $sp
	;DEBUG_VALUE: find_first_greater_than:table <- $x21
	;DEBUG_VALUE: find_first_greater_than:operand <- $x19
	;DEBUG_VALUE: emulate_AMX_GENLUT:table <- $x21
	;DEBUG_VALUE: emulate_AMX_GENLUT:mode <- $x26
	;DEBUG_VALUE: emulate_AMX_GENLUT:state <- $x20
	;DEBUG_VALUE: emulate_AMX_GENLUT:operand <- $x19
	;DEBUG_VALUE: v <- 30
	.loc	2 25 13                         ; genlut.c:25:13
	ldrh	w14, [x21, #60]
Ltmp470:
	.loc	2 25 13                         ; genlut.c:25:13
	cmp	w14, w13
	b.ls	LBB1_269
Ltmp471:
; %bb.268:                              ;   in Loop: Header=BB1_208 Depth=1
	;DEBUG_VALUE: v <- 30
	;DEBUG_VALUE: i <- $x8
	;DEBUG_VALUE: find_first_greater_than:mode <- $w26
	;DEBUG_VALUE: find_first_greater_than:vs <- [DW_OP_plus_uconst 72, DW_OP_stack_value] $sp
	;DEBUG_VALUE: find_first_greater_than:xy <- [DW_OP_plus_uconst 8, DW_OP_stack_value] $sp
	;DEBUG_VALUE: find_first_greater_than:table <- $x21
	;DEBUG_VALUE: find_first_greater_than:operand <- $x19
	;DEBUG_VALUE: emulate_AMX_GENLUT:table <- $x21
	;DEBUG_VALUE: emulate_AMX_GENLUT:mode <- $x26
	;DEBUG_VALUE: emulate_AMX_GENLUT:state <- $x20
	;DEBUG_VALUE: emulate_AMX_GENLUT:operand <- $x19
	.loc	2 0 13                          ; genlut.c:0:13
	mov	w13, #29
	b	LBB1_207
Ltmp472:
LBB1_269:                               ;   in Loop: Header=BB1_208 Depth=1
	;DEBUG_VALUE: v <- 30
	;DEBUG_VALUE: i <- $x8
	;DEBUG_VALUE: find_first_greater_than:mode <- $w26
	;DEBUG_VALUE: find_first_greater_than:vs <- [DW_OP_plus_uconst 72, DW_OP_stack_value] $sp
	;DEBUG_VALUE: find_first_greater_than:xy <- [DW_OP_plus_uconst 8, DW_OP_stack_value] $sp
	;DEBUG_VALUE: find_first_greater_than:table <- $x21
	;DEBUG_VALUE: find_first_greater_than:operand <- $x19
	;DEBUG_VALUE: emulate_AMX_GENLUT:table <- $x21
	;DEBUG_VALUE: emulate_AMX_GENLUT:mode <- $x26
	;DEBUG_VALUE: emulate_AMX_GENLUT:state <- $x20
	;DEBUG_VALUE: emulate_AMX_GENLUT:operand <- $x19
	;DEBUG_VALUE: v <- 31
	.loc	2 25 13                         ; genlut.c:25:13
	ldrh	w14, [x21, #62]
Ltmp473:
	.loc	2 25 13                         ; genlut.c:25:13
	cmp	w14, w13
	cinc	w13, w12, ls
	b	LBB1_207
Ltmp474:
LBB1_270:
	;DEBUG_VALUE: find_first_greater_than:mode <- $w26
	;DEBUG_VALUE: find_first_greater_than:vs <- [DW_OP_plus_uconst 72, DW_OP_stack_value] $sp
	;DEBUG_VALUE: find_first_greater_than:xy <- [DW_OP_plus_uconst 8, DW_OP_stack_value] $sp
	;DEBUG_VALUE: find_first_greater_than:table <- $x21
	;DEBUG_VALUE: find_first_greater_than:operand <- $x19
	;DEBUG_VALUE: emulate_AMX_GENLUT:table <- $x21
	;DEBUG_VALUE: emulate_AMX_GENLUT:mode <- $x26
	;DEBUG_VALUE: emulate_AMX_GENLUT:state <- $x20
	;DEBUG_VALUE: emulate_AMX_GENLUT:operand <- $x19
	.loc	2 0 13                          ; genlut.c:0:13
	mov	x8, #0
	ldr	h0, [x21]
	add	x9, sp, #8
	add	x10, sp, #72
	b	LBB1_273
Ltmp475:
LBB1_271:                               ;   in Loop: Header=BB1_273 Depth=1
	;DEBUG_VALUE: i <- $x8
	;DEBUG_VALUE: v <- 0
	;DEBUG_VALUE: find_first_greater_than:mode <- $w26
	;DEBUG_VALUE: find_first_greater_than:vs <- [DW_OP_plus_uconst 72, DW_OP_stack_value] $sp
	;DEBUG_VALUE: find_first_greater_than:xy <- [DW_OP_plus_uconst 8, DW_OP_stack_value] $sp
	;DEBUG_VALUE: find_first_greater_than:table <- $x21
	;DEBUG_VALUE: find_first_greater_than:operand <- $x19
	;DEBUG_VALUE: emulate_AMX_GENLUT:table <- $x21
	;DEBUG_VALUE: emulate_AMX_GENLUT:mode <- $x26
	;DEBUG_VALUE: emulate_AMX_GENLUT:state <- $x20
	;DEBUG_VALUE: emulate_AMX_GENLUT:operand <- $x19
	mov	w11, #255
Ltmp476:
LBB1_272:                               ;   in Loop: Header=BB1_273 Depth=1
	;DEBUG_VALUE: i <- $x8
	;DEBUG_VALUE: find_first_greater_than:mode <- $w26
	;DEBUG_VALUE: find_first_greater_than:vs <- [DW_OP_plus_uconst 72, DW_OP_stack_value] $sp
	;DEBUG_VALUE: find_first_greater_than:xy <- [DW_OP_plus_uconst 8, DW_OP_stack_value] $sp
	;DEBUG_VALUE: find_first_greater_than:table <- $x21
	;DEBUG_VALUE: find_first_greater_than:operand <- $x19
	;DEBUG_VALUE: emulate_AMX_GENLUT:table <- $x21
	;DEBUG_VALUE: emulate_AMX_GENLUT:mode <- $x26
	;DEBUG_VALUE: emulate_AMX_GENLUT:state <- $x20
	;DEBUG_VALUE: emulate_AMX_GENLUT:operand <- $x19
	.loc	2 20 105 is_stmt 1              ; genlut.c:20:105
	strb	w11, [x10, x8]
Ltmp477:
	.loc	2 20 105 is_stmt 0              ; genlut.c:20:105
	add	x8, x8, #1
Ltmp478:
	;DEBUG_VALUE: i <- $x8
	.loc	2 20 105                        ; genlut.c:20:105
	cmp	x8, #32
	b.eq	LBB1_337
Ltmp479:
LBB1_273:                               ; =>This Inner Loop Header: Depth=1
	;DEBUG_VALUE: find_first_greater_than:mode <- $w26
	;DEBUG_VALUE: find_first_greater_than:vs <- [DW_OP_plus_uconst 72, DW_OP_stack_value] $sp
	;DEBUG_VALUE: find_first_greater_than:xy <- [DW_OP_plus_uconst 8, DW_OP_stack_value] $sp
	;DEBUG_VALUE: find_first_greater_than:table <- $x21
	;DEBUG_VALUE: find_first_greater_than:operand <- $x19
	;DEBUG_VALUE: emulate_AMX_GENLUT:table <- $x21
	;DEBUG_VALUE: emulate_AMX_GENLUT:mode <- $x26
	;DEBUG_VALUE: emulate_AMX_GENLUT:state <- $x20
	;DEBUG_VALUE: emulate_AMX_GENLUT:operand <- $x19
	.loc	2 0 105                         ; genlut.c:0:105
	ldr	h1, [x9, x8, lsl #1]
Ltmp480:
	;DEBUG_VALUE: v <- 0
	;DEBUG_VALUE: i <- $x8
	.loc	2 20 105                        ; genlut.c:20:105
	fcmp	h0, h1
	b.gt	LBB1_271
Ltmp481:
; %bb.274:                              ;   in Loop: Header=BB1_273 Depth=1
	;DEBUG_VALUE: i <- $x8
	;DEBUG_VALUE: v <- 0
	;DEBUG_VALUE: find_first_greater_than:mode <- $w26
	;DEBUG_VALUE: find_first_greater_than:vs <- [DW_OP_plus_uconst 72, DW_OP_stack_value] $sp
	;DEBUG_VALUE: find_first_greater_than:xy <- [DW_OP_plus_uconst 8, DW_OP_stack_value] $sp
	;DEBUG_VALUE: find_first_greater_than:table <- $x21
	;DEBUG_VALUE: find_first_greater_than:operand <- $x19
	;DEBUG_VALUE: emulate_AMX_GENLUT:table <- $x21
	;DEBUG_VALUE: emulate_AMX_GENLUT:mode <- $x26
	;DEBUG_VALUE: emulate_AMX_GENLUT:state <- $x20
	;DEBUG_VALUE: emulate_AMX_GENLUT:operand <- $x19
	;DEBUG_VALUE: v <- 1
	.loc	2 20 105                        ; genlut.c:20:105
	ldr	h2, [x21, #2]
Ltmp482:
	.loc	2 20 105                        ; genlut.c:20:105
	fcmp	h2, h1
	b.le	LBB1_276
Ltmp483:
; %bb.275:                              ;   in Loop: Header=BB1_273 Depth=1
	;DEBUG_VALUE: v <- 1
	;DEBUG_VALUE: i <- $x8
	;DEBUG_VALUE: find_first_greater_than:mode <- $w26
	;DEBUG_VALUE: find_first_greater_than:vs <- [DW_OP_plus_uconst 72, DW_OP_stack_value] $sp
	;DEBUG_VALUE: find_first_greater_than:xy <- [DW_OP_plus_uconst 8, DW_OP_stack_value] $sp
	;DEBUG_VALUE: find_first_greater_than:table <- $x21
	;DEBUG_VALUE: find_first_greater_than:operand <- $x19
	;DEBUG_VALUE: emulate_AMX_GENLUT:table <- $x21
	;DEBUG_VALUE: emulate_AMX_GENLUT:mode <- $x26
	;DEBUG_VALUE: emulate_AMX_GENLUT:state <- $x20
	;DEBUG_VALUE: emulate_AMX_GENLUT:operand <- $x19
	.loc	2 0 105                         ; genlut.c:0:105
	mov	w11, #0
	b	LBB1_272
Ltmp484:
LBB1_276:                               ;   in Loop: Header=BB1_273 Depth=1
	;DEBUG_VALUE: v <- 1
	;DEBUG_VALUE: i <- $x8
	;DEBUG_VALUE: find_first_greater_than:mode <- $w26
	;DEBUG_VALUE: find_first_greater_than:vs <- [DW_OP_plus_uconst 72, DW_OP_stack_value] $sp
	;DEBUG_VALUE: find_first_greater_than:xy <- [DW_OP_plus_uconst 8, DW_OP_stack_value] $sp
	;DEBUG_VALUE: find_first_greater_than:table <- $x21
	;DEBUG_VALUE: find_first_greater_than:operand <- $x19
	;DEBUG_VALUE: emulate_AMX_GENLUT:table <- $x21
	;DEBUG_VALUE: emulate_AMX_GENLUT:mode <- $x26
	;DEBUG_VALUE: emulate_AMX_GENLUT:state <- $x20
	;DEBUG_VALUE: emulate_AMX_GENLUT:operand <- $x19
	;DEBUG_VALUE: v <- 2
	.loc	2 20 105                        ; genlut.c:20:105
	ldr	h2, [x21, #4]
Ltmp485:
	.loc	2 20 105                        ; genlut.c:20:105
	fcmp	h2, h1
	b.le	LBB1_278
Ltmp486:
; %bb.277:                              ;   in Loop: Header=BB1_273 Depth=1
	;DEBUG_VALUE: v <- 2
	;DEBUG_VALUE: i <- $x8
	;DEBUG_VALUE: find_first_greater_than:mode <- $w26
	;DEBUG_VALUE: find_first_greater_than:vs <- [DW_OP_plus_uconst 72, DW_OP_stack_value] $sp
	;DEBUG_VALUE: find_first_greater_than:xy <- [DW_OP_plus_uconst 8, DW_OP_stack_value] $sp
	;DEBUG_VALUE: find_first_greater_than:table <- $x21
	;DEBUG_VALUE: find_first_greater_than:operand <- $x19
	;DEBUG_VALUE: emulate_AMX_GENLUT:table <- $x21
	;DEBUG_VALUE: emulate_AMX_GENLUT:mode <- $x26
	;DEBUG_VALUE: emulate_AMX_GENLUT:state <- $x20
	;DEBUG_VALUE: emulate_AMX_GENLUT:operand <- $x19
	.loc	2 0 105                         ; genlut.c:0:105
	mov	w11, #1
	b	LBB1_272
Ltmp487:
LBB1_278:                               ;   in Loop: Header=BB1_273 Depth=1
	;DEBUG_VALUE: v <- 2
	;DEBUG_VALUE: i <- $x8
	;DEBUG_VALUE: find_first_greater_than:mode <- $w26
	;DEBUG_VALUE: find_first_greater_than:vs <- [DW_OP_plus_uconst 72, DW_OP_stack_value] $sp
	;DEBUG_VALUE: find_first_greater_than:xy <- [DW_OP_plus_uconst 8, DW_OP_stack_value] $sp
	;DEBUG_VALUE: find_first_greater_than:table <- $x21
	;DEBUG_VALUE: find_first_greater_than:operand <- $x19
	;DEBUG_VALUE: emulate_AMX_GENLUT:table <- $x21
	;DEBUG_VALUE: emulate_AMX_GENLUT:mode <- $x26
	;DEBUG_VALUE: emulate_AMX_GENLUT:state <- $x20
	;DEBUG_VALUE: emulate_AMX_GENLUT:operand <- $x19
	;DEBUG_VALUE: v <- 3
	.loc	2 20 105                        ; genlut.c:20:105
	ldr	h2, [x21, #6]
Ltmp488:
	.loc	2 20 105                        ; genlut.c:20:105
	fcmp	h2, h1
	b.le	LBB1_280
Ltmp489:
; %bb.279:                              ;   in Loop: Header=BB1_273 Depth=1
	;DEBUG_VALUE: v <- 3
	;DEBUG_VALUE: i <- $x8
	;DEBUG_VALUE: find_first_greater_than:mode <- $w26
	;DEBUG_VALUE: find_first_greater_than:vs <- [DW_OP_plus_uconst 72, DW_OP_stack_value] $sp
	;DEBUG_VALUE: find_first_greater_than:xy <- [DW_OP_plus_uconst 8, DW_OP_stack_value] $sp
	;DEBUG_VALUE: find_first_greater_than:table <- $x21
	;DEBUG_VALUE: find_first_greater_than:operand <- $x19
	;DEBUG_VALUE: emulate_AMX_GENLUT:table <- $x21
	;DEBUG_VALUE: emulate_AMX_GENLUT:mode <- $x26
	;DEBUG_VALUE: emulate_AMX_GENLUT:state <- $x20
	;DEBUG_VALUE: emulate_AMX_GENLUT:operand <- $x19
	.loc	2 0 105                         ; genlut.c:0:105
	mov	w11, #2
	b	LBB1_272
Ltmp490:
LBB1_280:                               ;   in Loop: Header=BB1_273 Depth=1
	;DEBUG_VALUE: v <- 3
	;DEBUG_VALUE: i <- $x8
	;DEBUG_VALUE: find_first_greater_than:mode <- $w26
	;DEBUG_VALUE: find_first_greater_than:vs <- [DW_OP_plus_uconst 72, DW_OP_stack_value] $sp
	;DEBUG_VALUE: find_first_greater_than:xy <- [DW_OP_plus_uconst 8, DW_OP_stack_value] $sp
	;DEBUG_VALUE: find_first_greater_than:table <- $x21
	;DEBUG_VALUE: find_first_greater_than:operand <- $x19
	;DEBUG_VALUE: emulate_AMX_GENLUT:table <- $x21
	;DEBUG_VALUE: emulate_AMX_GENLUT:mode <- $x26
	;DEBUG_VALUE: emulate_AMX_GENLUT:state <- $x20
	;DEBUG_VALUE: emulate_AMX_GENLUT:operand <- $x19
	;DEBUG_VALUE: v <- 4
	.loc	2 20 105                        ; genlut.c:20:105
	ldr	h2, [x21, #8]
Ltmp491:
	.loc	2 20 105                        ; genlut.c:20:105
	fcmp	h2, h1
	b.le	LBB1_282
Ltmp492:
; %bb.281:                              ;   in Loop: Header=BB1_273 Depth=1
	;DEBUG_VALUE: v <- 4
	;DEBUG_VALUE: i <- $x8
	;DEBUG_VALUE: find_first_greater_than:mode <- $w26
	;DEBUG_VALUE: find_first_greater_than:vs <- [DW_OP_plus_uconst 72, DW_OP_stack_value] $sp
	;DEBUG_VALUE: find_first_greater_than:xy <- [DW_OP_plus_uconst 8, DW_OP_stack_value] $sp
	;DEBUG_VALUE: find_first_greater_than:table <- $x21
	;DEBUG_VALUE: find_first_greater_than:operand <- $x19
	;DEBUG_VALUE: emulate_AMX_GENLUT:table <- $x21
	;DEBUG_VALUE: emulate_AMX_GENLUT:mode <- $x26
	;DEBUG_VALUE: emulate_AMX_GENLUT:state <- $x20
	;DEBUG_VALUE: emulate_AMX_GENLUT:operand <- $x19
	.loc	2 0 105                         ; genlut.c:0:105
	mov	w11, #3
	b	LBB1_272
Ltmp493:
LBB1_282:                               ;   in Loop: Header=BB1_273 Depth=1
	;DEBUG_VALUE: v <- 4
	;DEBUG_VALUE: i <- $x8
	;DEBUG_VALUE: find_first_greater_than:mode <- $w26
	;DEBUG_VALUE: find_first_greater_than:vs <- [DW_OP_plus_uconst 72, DW_OP_stack_value] $sp
	;DEBUG_VALUE: find_first_greater_than:xy <- [DW_OP_plus_uconst 8, DW_OP_stack_value] $sp
	;DEBUG_VALUE: find_first_greater_than:table <- $x21
	;DEBUG_VALUE: find_first_greater_than:operand <- $x19
	;DEBUG_VALUE: emulate_AMX_GENLUT:table <- $x21
	;DEBUG_VALUE: emulate_AMX_GENLUT:mode <- $x26
	;DEBUG_VALUE: emulate_AMX_GENLUT:state <- $x20
	;DEBUG_VALUE: emulate_AMX_GENLUT:operand <- $x19
	;DEBUG_VALUE: v <- 5
	.loc	2 20 105                        ; genlut.c:20:105
	ldr	h2, [x21, #10]
Ltmp494:
	.loc	2 20 105                        ; genlut.c:20:105
	fcmp	h2, h1
	b.le	LBB1_284
Ltmp495:
; %bb.283:                              ;   in Loop: Header=BB1_273 Depth=1
	;DEBUG_VALUE: v <- 5
	;DEBUG_VALUE: i <- $x8
	;DEBUG_VALUE: find_first_greater_than:mode <- $w26
	;DEBUG_VALUE: find_first_greater_than:vs <- [DW_OP_plus_uconst 72, DW_OP_stack_value] $sp
	;DEBUG_VALUE: find_first_greater_than:xy <- [DW_OP_plus_uconst 8, DW_OP_stack_value] $sp
	;DEBUG_VALUE: find_first_greater_than:table <- $x21
	;DEBUG_VALUE: find_first_greater_than:operand <- $x19
	;DEBUG_VALUE: emulate_AMX_GENLUT:table <- $x21
	;DEBUG_VALUE: emulate_AMX_GENLUT:mode <- $x26
	;DEBUG_VALUE: emulate_AMX_GENLUT:state <- $x20
	;DEBUG_VALUE: emulate_AMX_GENLUT:operand <- $x19
	.loc	2 0 105                         ; genlut.c:0:105
	mov	w11, #4
	b	LBB1_272
Ltmp496:
LBB1_284:                               ;   in Loop: Header=BB1_273 Depth=1
	;DEBUG_VALUE: v <- 5
	;DEBUG_VALUE: i <- $x8
	;DEBUG_VALUE: find_first_greater_than:mode <- $w26
	;DEBUG_VALUE: find_first_greater_than:vs <- [DW_OP_plus_uconst 72, DW_OP_stack_value] $sp
	;DEBUG_VALUE: find_first_greater_than:xy <- [DW_OP_plus_uconst 8, DW_OP_stack_value] $sp
	;DEBUG_VALUE: find_first_greater_than:table <- $x21
	;DEBUG_VALUE: find_first_greater_than:operand <- $x19
	;DEBUG_VALUE: emulate_AMX_GENLUT:table <- $x21
	;DEBUG_VALUE: emulate_AMX_GENLUT:mode <- $x26
	;DEBUG_VALUE: emulate_AMX_GENLUT:state <- $x20
	;DEBUG_VALUE: emulate_AMX_GENLUT:operand <- $x19
	;DEBUG_VALUE: v <- 6
	.loc	2 20 105                        ; genlut.c:20:105
	ldr	h2, [x21, #12]
Ltmp497:
	.loc	2 20 105                        ; genlut.c:20:105
	fcmp	h2, h1
	b.le	LBB1_286
Ltmp498:
; %bb.285:                              ;   in Loop: Header=BB1_273 Depth=1
	;DEBUG_VALUE: v <- 6
	;DEBUG_VALUE: i <- $x8
	;DEBUG_VALUE: find_first_greater_than:mode <- $w26
	;DEBUG_VALUE: find_first_greater_than:vs <- [DW_OP_plus_uconst 72, DW_OP_stack_value] $sp
	;DEBUG_VALUE: find_first_greater_than:xy <- [DW_OP_plus_uconst 8, DW_OP_stack_value] $sp
	;DEBUG_VALUE: find_first_greater_than:table <- $x21
	;DEBUG_VALUE: find_first_greater_than:operand <- $x19
	;DEBUG_VALUE: emulate_AMX_GENLUT:table <- $x21
	;DEBUG_VALUE: emulate_AMX_GENLUT:mode <- $x26
	;DEBUG_VALUE: emulate_AMX_GENLUT:state <- $x20
	;DEBUG_VALUE: emulate_AMX_GENLUT:operand <- $x19
	.loc	2 0 105                         ; genlut.c:0:105
	mov	w11, #5
	b	LBB1_272
Ltmp499:
LBB1_286:                               ;   in Loop: Header=BB1_273 Depth=1
	;DEBUG_VALUE: v <- 6
	;DEBUG_VALUE: i <- $x8
	;DEBUG_VALUE: find_first_greater_than:mode <- $w26
	;DEBUG_VALUE: find_first_greater_than:vs <- [DW_OP_plus_uconst 72, DW_OP_stack_value] $sp
	;DEBUG_VALUE: find_first_greater_than:xy <- [DW_OP_plus_uconst 8, DW_OP_stack_value] $sp
	;DEBUG_VALUE: find_first_greater_than:table <- $x21
	;DEBUG_VALUE: find_first_greater_than:operand <- $x19
	;DEBUG_VALUE: emulate_AMX_GENLUT:table <- $x21
	;DEBUG_VALUE: emulate_AMX_GENLUT:mode <- $x26
	;DEBUG_VALUE: emulate_AMX_GENLUT:state <- $x20
	;DEBUG_VALUE: emulate_AMX_GENLUT:operand <- $x19
	;DEBUG_VALUE: v <- 7
	.loc	2 20 105                        ; genlut.c:20:105
	ldr	h2, [x21, #14]
Ltmp500:
	.loc	2 20 105                        ; genlut.c:20:105
	fcmp	h2, h1
	b.le	LBB1_288
Ltmp501:
; %bb.287:                              ;   in Loop: Header=BB1_273 Depth=1
	;DEBUG_VALUE: v <- 7
	;DEBUG_VALUE: i <- $x8
	;DEBUG_VALUE: find_first_greater_than:mode <- $w26
	;DEBUG_VALUE: find_first_greater_than:vs <- [DW_OP_plus_uconst 72, DW_OP_stack_value] $sp
	;DEBUG_VALUE: find_first_greater_than:xy <- [DW_OP_plus_uconst 8, DW_OP_stack_value] $sp
	;DEBUG_VALUE: find_first_greater_than:table <- $x21
	;DEBUG_VALUE: find_first_greater_than:operand <- $x19
	;DEBUG_VALUE: emulate_AMX_GENLUT:table <- $x21
	;DEBUG_VALUE: emulate_AMX_GENLUT:mode <- $x26
	;DEBUG_VALUE: emulate_AMX_GENLUT:state <- $x20
	;DEBUG_VALUE: emulate_AMX_GENLUT:operand <- $x19
	.loc	2 0 105                         ; genlut.c:0:105
	mov	w11, #6
	b	LBB1_272
Ltmp502:
LBB1_288:                               ;   in Loop: Header=BB1_273 Depth=1
	;DEBUG_VALUE: v <- 7
	;DEBUG_VALUE: i <- $x8
	;DEBUG_VALUE: find_first_greater_than:mode <- $w26
	;DEBUG_VALUE: find_first_greater_than:vs <- [DW_OP_plus_uconst 72, DW_OP_stack_value] $sp
	;DEBUG_VALUE: find_first_greater_than:xy <- [DW_OP_plus_uconst 8, DW_OP_stack_value] $sp
	;DEBUG_VALUE: find_first_greater_than:table <- $x21
	;DEBUG_VALUE: find_first_greater_than:operand <- $x19
	;DEBUG_VALUE: emulate_AMX_GENLUT:table <- $x21
	;DEBUG_VALUE: emulate_AMX_GENLUT:mode <- $x26
	;DEBUG_VALUE: emulate_AMX_GENLUT:state <- $x20
	;DEBUG_VALUE: emulate_AMX_GENLUT:operand <- $x19
	;DEBUG_VALUE: v <- 8
	.loc	2 20 105                        ; genlut.c:20:105
	ldr	h2, [x21, #16]
Ltmp503:
	.loc	2 20 105                        ; genlut.c:20:105
	fcmp	h2, h1
	b.le	LBB1_290
Ltmp504:
; %bb.289:                              ;   in Loop: Header=BB1_273 Depth=1
	;DEBUG_VALUE: v <- 8
	;DEBUG_VALUE: i <- $x8
	;DEBUG_VALUE: find_first_greater_than:mode <- $w26
	;DEBUG_VALUE: find_first_greater_than:vs <- [DW_OP_plus_uconst 72, DW_OP_stack_value] $sp
	;DEBUG_VALUE: find_first_greater_than:xy <- [DW_OP_plus_uconst 8, DW_OP_stack_value] $sp
	;DEBUG_VALUE: find_first_greater_than:table <- $x21
	;DEBUG_VALUE: find_first_greater_than:operand <- $x19
	;DEBUG_VALUE: emulate_AMX_GENLUT:table <- $x21
	;DEBUG_VALUE: emulate_AMX_GENLUT:mode <- $x26
	;DEBUG_VALUE: emulate_AMX_GENLUT:state <- $x20
	;DEBUG_VALUE: emulate_AMX_GENLUT:operand <- $x19
	.loc	2 0 105                         ; genlut.c:0:105
	mov	w11, #7
	b	LBB1_272
Ltmp505:
LBB1_290:                               ;   in Loop: Header=BB1_273 Depth=1
	;DEBUG_VALUE: v <- 8
	;DEBUG_VALUE: i <- $x8
	;DEBUG_VALUE: find_first_greater_than:mode <- $w26
	;DEBUG_VALUE: find_first_greater_than:vs <- [DW_OP_plus_uconst 72, DW_OP_stack_value] $sp
	;DEBUG_VALUE: find_first_greater_than:xy <- [DW_OP_plus_uconst 8, DW_OP_stack_value] $sp
	;DEBUG_VALUE: find_first_greater_than:table <- $x21
	;DEBUG_VALUE: find_first_greater_than:operand <- $x19
	;DEBUG_VALUE: emulate_AMX_GENLUT:table <- $x21
	;DEBUG_VALUE: emulate_AMX_GENLUT:mode <- $x26
	;DEBUG_VALUE: emulate_AMX_GENLUT:state <- $x20
	;DEBUG_VALUE: emulate_AMX_GENLUT:operand <- $x19
	;DEBUG_VALUE: v <- 9
	.loc	2 20 105                        ; genlut.c:20:105
	ldr	h2, [x21, #18]
Ltmp506:
	.loc	2 20 105                        ; genlut.c:20:105
	fcmp	h2, h1
	b.le	LBB1_292
Ltmp507:
; %bb.291:                              ;   in Loop: Header=BB1_273 Depth=1
	;DEBUG_VALUE: v <- 9
	;DEBUG_VALUE: i <- $x8
	;DEBUG_VALUE: find_first_greater_than:mode <- $w26
	;DEBUG_VALUE: find_first_greater_than:vs <- [DW_OP_plus_uconst 72, DW_OP_stack_value] $sp
	;DEBUG_VALUE: find_first_greater_than:xy <- [DW_OP_plus_uconst 8, DW_OP_stack_value] $sp
	;DEBUG_VALUE: find_first_greater_than:table <- $x21
	;DEBUG_VALUE: find_first_greater_than:operand <- $x19
	;DEBUG_VALUE: emulate_AMX_GENLUT:table <- $x21
	;DEBUG_VALUE: emulate_AMX_GENLUT:mode <- $x26
	;DEBUG_VALUE: emulate_AMX_GENLUT:state <- $x20
	;DEBUG_VALUE: emulate_AMX_GENLUT:operand <- $x19
	.loc	2 0 105                         ; genlut.c:0:105
	mov	w11, #8
	b	LBB1_272
Ltmp508:
LBB1_292:                               ;   in Loop: Header=BB1_273 Depth=1
	;DEBUG_VALUE: v <- 9
	;DEBUG_VALUE: i <- $x8
	;DEBUG_VALUE: find_first_greater_than:mode <- $w26
	;DEBUG_VALUE: find_first_greater_than:vs <- [DW_OP_plus_uconst 72, DW_OP_stack_value] $sp
	;DEBUG_VALUE: find_first_greater_than:xy <- [DW_OP_plus_uconst 8, DW_OP_stack_value] $sp
	;DEBUG_VALUE: find_first_greater_than:table <- $x21
	;DEBUG_VALUE: find_first_greater_than:operand <- $x19
	;DEBUG_VALUE: emulate_AMX_GENLUT:table <- $x21
	;DEBUG_VALUE: emulate_AMX_GENLUT:mode <- $x26
	;DEBUG_VALUE: emulate_AMX_GENLUT:state <- $x20
	;DEBUG_VALUE: emulate_AMX_GENLUT:operand <- $x19
	;DEBUG_VALUE: v <- 10
	.loc	2 20 105                        ; genlut.c:20:105
	ldr	h2, [x21, #20]
Ltmp509:
	.loc	2 20 105                        ; genlut.c:20:105
	fcmp	h2, h1
	b.le	LBB1_294
Ltmp510:
; %bb.293:                              ;   in Loop: Header=BB1_273 Depth=1
	;DEBUG_VALUE: v <- 10
	;DEBUG_VALUE: i <- $x8
	;DEBUG_VALUE: find_first_greater_than:mode <- $w26
	;DEBUG_VALUE: find_first_greater_than:vs <- [DW_OP_plus_uconst 72, DW_OP_stack_value] $sp
	;DEBUG_VALUE: find_first_greater_than:xy <- [DW_OP_plus_uconst 8, DW_OP_stack_value] $sp
	;DEBUG_VALUE: find_first_greater_than:table <- $x21
	;DEBUG_VALUE: find_first_greater_than:operand <- $x19
	;DEBUG_VALUE: emulate_AMX_GENLUT:table <- $x21
	;DEBUG_VALUE: emulate_AMX_GENLUT:mode <- $x26
	;DEBUG_VALUE: emulate_AMX_GENLUT:state <- $x20
	;DEBUG_VALUE: emulate_AMX_GENLUT:operand <- $x19
	.loc	2 0 105                         ; genlut.c:0:105
	mov	w11, #9
	b	LBB1_272
Ltmp511:
LBB1_294:                               ;   in Loop: Header=BB1_273 Depth=1
	;DEBUG_VALUE: v <- 10
	;DEBUG_VALUE: i <- $x8
	;DEBUG_VALUE: find_first_greater_than:mode <- $w26
	;DEBUG_VALUE: find_first_greater_than:vs <- [DW_OP_plus_uconst 72, DW_OP_stack_value] $sp
	;DEBUG_VALUE: find_first_greater_than:xy <- [DW_OP_plus_uconst 8, DW_OP_stack_value] $sp
	;DEBUG_VALUE: find_first_greater_than:table <- $x21
	;DEBUG_VALUE: find_first_greater_than:operand <- $x19
	;DEBUG_VALUE: emulate_AMX_GENLUT:table <- $x21
	;DEBUG_VALUE: emulate_AMX_GENLUT:mode <- $x26
	;DEBUG_VALUE: emulate_AMX_GENLUT:state <- $x20
	;DEBUG_VALUE: emulate_AMX_GENLUT:operand <- $x19
	;DEBUG_VALUE: v <- 11
	.loc	2 20 105                        ; genlut.c:20:105
	ldr	h2, [x21, #22]
Ltmp512:
	.loc	2 20 105                        ; genlut.c:20:105
	fcmp	h2, h1
	b.le	LBB1_296
Ltmp513:
; %bb.295:                              ;   in Loop: Header=BB1_273 Depth=1
	;DEBUG_VALUE: v <- 11
	;DEBUG_VALUE: i <- $x8
	;DEBUG_VALUE: find_first_greater_than:mode <- $w26
	;DEBUG_VALUE: find_first_greater_than:vs <- [DW_OP_plus_uconst 72, DW_OP_stack_value] $sp
	;DEBUG_VALUE: find_first_greater_than:xy <- [DW_OP_plus_uconst 8, DW_OP_stack_value] $sp
	;DEBUG_VALUE: find_first_greater_than:table <- $x21
	;DEBUG_VALUE: find_first_greater_than:operand <- $x19
	;DEBUG_VALUE: emulate_AMX_GENLUT:table <- $x21
	;DEBUG_VALUE: emulate_AMX_GENLUT:mode <- $x26
	;DEBUG_VALUE: emulate_AMX_GENLUT:state <- $x20
	;DEBUG_VALUE: emulate_AMX_GENLUT:operand <- $x19
	.loc	2 0 105                         ; genlut.c:0:105
	mov	w11, #10
	b	LBB1_272
Ltmp514:
LBB1_296:                               ;   in Loop: Header=BB1_273 Depth=1
	;DEBUG_VALUE: v <- 11
	;DEBUG_VALUE: i <- $x8
	;DEBUG_VALUE: find_first_greater_than:mode <- $w26
	;DEBUG_VALUE: find_first_greater_than:vs <- [DW_OP_plus_uconst 72, DW_OP_stack_value] $sp
	;DEBUG_VALUE: find_first_greater_than:xy <- [DW_OP_plus_uconst 8, DW_OP_stack_value] $sp
	;DEBUG_VALUE: find_first_greater_than:table <- $x21
	;DEBUG_VALUE: find_first_greater_than:operand <- $x19
	;DEBUG_VALUE: emulate_AMX_GENLUT:table <- $x21
	;DEBUG_VALUE: emulate_AMX_GENLUT:mode <- $x26
	;DEBUG_VALUE: emulate_AMX_GENLUT:state <- $x20
	;DEBUG_VALUE: emulate_AMX_GENLUT:operand <- $x19
	;DEBUG_VALUE: v <- 12
	.loc	2 20 105                        ; genlut.c:20:105
	ldr	h2, [x21, #24]
Ltmp515:
	.loc	2 20 105                        ; genlut.c:20:105
	fcmp	h2, h1
	b.le	LBB1_298
Ltmp516:
; %bb.297:                              ;   in Loop: Header=BB1_273 Depth=1
	;DEBUG_VALUE: v <- 12
	;DEBUG_VALUE: i <- $x8
	;DEBUG_VALUE: find_first_greater_than:mode <- $w26
	;DEBUG_VALUE: find_first_greater_than:vs <- [DW_OP_plus_uconst 72, DW_OP_stack_value] $sp
	;DEBUG_VALUE: find_first_greater_than:xy <- [DW_OP_plus_uconst 8, DW_OP_stack_value] $sp
	;DEBUG_VALUE: find_first_greater_than:table <- $x21
	;DEBUG_VALUE: find_first_greater_than:operand <- $x19
	;DEBUG_VALUE: emulate_AMX_GENLUT:table <- $x21
	;DEBUG_VALUE: emulate_AMX_GENLUT:mode <- $x26
	;DEBUG_VALUE: emulate_AMX_GENLUT:state <- $x20
	;DEBUG_VALUE: emulate_AMX_GENLUT:operand <- $x19
	.loc	2 0 105                         ; genlut.c:0:105
	mov	w11, #11
	b	LBB1_272
Ltmp517:
LBB1_298:                               ;   in Loop: Header=BB1_273 Depth=1
	;DEBUG_VALUE: v <- 12
	;DEBUG_VALUE: i <- $x8
	;DEBUG_VALUE: find_first_greater_than:mode <- $w26
	;DEBUG_VALUE: find_first_greater_than:vs <- [DW_OP_plus_uconst 72, DW_OP_stack_value] $sp
	;DEBUG_VALUE: find_first_greater_than:xy <- [DW_OP_plus_uconst 8, DW_OP_stack_value] $sp
	;DEBUG_VALUE: find_first_greater_than:table <- $x21
	;DEBUG_VALUE: find_first_greater_than:operand <- $x19
	;DEBUG_VALUE: emulate_AMX_GENLUT:table <- $x21
	;DEBUG_VALUE: emulate_AMX_GENLUT:mode <- $x26
	;DEBUG_VALUE: emulate_AMX_GENLUT:state <- $x20
	;DEBUG_VALUE: emulate_AMX_GENLUT:operand <- $x19
	;DEBUG_VALUE: v <- 13
	.loc	2 20 105                        ; genlut.c:20:105
	ldr	h2, [x21, #26]
Ltmp518:
	.loc	2 20 105                        ; genlut.c:20:105
	fcmp	h2, h1
	b.le	LBB1_300
Ltmp519:
; %bb.299:                              ;   in Loop: Header=BB1_273 Depth=1
	;DEBUG_VALUE: v <- 13
	;DEBUG_VALUE: i <- $x8
	;DEBUG_VALUE: find_first_greater_than:mode <- $w26
	;DEBUG_VALUE: find_first_greater_than:vs <- [DW_OP_plus_uconst 72, DW_OP_stack_value] $sp
	;DEBUG_VALUE: find_first_greater_than:xy <- [DW_OP_plus_uconst 8, DW_OP_stack_value] $sp
	;DEBUG_VALUE: find_first_greater_than:table <- $x21
	;DEBUG_VALUE: find_first_greater_than:operand <- $x19
	;DEBUG_VALUE: emulate_AMX_GENLUT:table <- $x21
	;DEBUG_VALUE: emulate_AMX_GENLUT:mode <- $x26
	;DEBUG_VALUE: emulate_AMX_GENLUT:state <- $x20
	;DEBUG_VALUE: emulate_AMX_GENLUT:operand <- $x19
	.loc	2 0 105                         ; genlut.c:0:105
	mov	w11, #12
	b	LBB1_272
Ltmp520:
LBB1_300:                               ;   in Loop: Header=BB1_273 Depth=1
	;DEBUG_VALUE: v <- 13
	;DEBUG_VALUE: i <- $x8
	;DEBUG_VALUE: find_first_greater_than:mode <- $w26
	;DEBUG_VALUE: find_first_greater_than:vs <- [DW_OP_plus_uconst 72, DW_OP_stack_value] $sp
	;DEBUG_VALUE: find_first_greater_than:xy <- [DW_OP_plus_uconst 8, DW_OP_stack_value] $sp
	;DEBUG_VALUE: find_first_greater_than:table <- $x21
	;DEBUG_VALUE: find_first_greater_than:operand <- $x19
	;DEBUG_VALUE: emulate_AMX_GENLUT:table <- $x21
	;DEBUG_VALUE: emulate_AMX_GENLUT:mode <- $x26
	;DEBUG_VALUE: emulate_AMX_GENLUT:state <- $x20
	;DEBUG_VALUE: emulate_AMX_GENLUT:operand <- $x19
	;DEBUG_VALUE: v <- 14
	.loc	2 20 105                        ; genlut.c:20:105
	ldr	h2, [x21, #28]
Ltmp521:
	.loc	2 20 105                        ; genlut.c:20:105
	fcmp	h2, h1
	b.le	LBB1_302
Ltmp522:
; %bb.301:                              ;   in Loop: Header=BB1_273 Depth=1
	;DEBUG_VALUE: v <- 14
	;DEBUG_VALUE: i <- $x8
	;DEBUG_VALUE: find_first_greater_than:mode <- $w26
	;DEBUG_VALUE: find_first_greater_than:vs <- [DW_OP_plus_uconst 72, DW_OP_stack_value] $sp
	;DEBUG_VALUE: find_first_greater_than:xy <- [DW_OP_plus_uconst 8, DW_OP_stack_value] $sp
	;DEBUG_VALUE: find_first_greater_than:table <- $x21
	;DEBUG_VALUE: find_first_greater_than:operand <- $x19
	;DEBUG_VALUE: emulate_AMX_GENLUT:table <- $x21
	;DEBUG_VALUE: emulate_AMX_GENLUT:mode <- $x26
	;DEBUG_VALUE: emulate_AMX_GENLUT:state <- $x20
	;DEBUG_VALUE: emulate_AMX_GENLUT:operand <- $x19
	.loc	2 0 105                         ; genlut.c:0:105
	mov	w11, #13
	b	LBB1_272
Ltmp523:
LBB1_302:                               ;   in Loop: Header=BB1_273 Depth=1
	;DEBUG_VALUE: v <- 14
	;DEBUG_VALUE: i <- $x8
	;DEBUG_VALUE: find_first_greater_than:mode <- $w26
	;DEBUG_VALUE: find_first_greater_than:vs <- [DW_OP_plus_uconst 72, DW_OP_stack_value] $sp
	;DEBUG_VALUE: find_first_greater_than:xy <- [DW_OP_plus_uconst 8, DW_OP_stack_value] $sp
	;DEBUG_VALUE: find_first_greater_than:table <- $x21
	;DEBUG_VALUE: find_first_greater_than:operand <- $x19
	;DEBUG_VALUE: emulate_AMX_GENLUT:table <- $x21
	;DEBUG_VALUE: emulate_AMX_GENLUT:mode <- $x26
	;DEBUG_VALUE: emulate_AMX_GENLUT:state <- $x20
	;DEBUG_VALUE: emulate_AMX_GENLUT:operand <- $x19
	;DEBUG_VALUE: v <- 15
	.loc	2 20 105                        ; genlut.c:20:105
	ldr	h2, [x21, #30]
Ltmp524:
	.loc	2 20 105                        ; genlut.c:20:105
	fcmp	h2, h1
	b.le	LBB1_304
Ltmp525:
; %bb.303:                              ;   in Loop: Header=BB1_273 Depth=1
	;DEBUG_VALUE: v <- 15
	;DEBUG_VALUE: i <- $x8
	;DEBUG_VALUE: find_first_greater_than:mode <- $w26
	;DEBUG_VALUE: find_first_greater_than:vs <- [DW_OP_plus_uconst 72, DW_OP_stack_value] $sp
	;DEBUG_VALUE: find_first_greater_than:xy <- [DW_OP_plus_uconst 8, DW_OP_stack_value] $sp
	;DEBUG_VALUE: find_first_greater_than:table <- $x21
	;DEBUG_VALUE: find_first_greater_than:operand <- $x19
