	.section	__TEXT,__text,regular,pure_instructions
	.build_version macos, 14, 0	sdk_version 14, 4
	.file	1 "/Library/Developer/CommandLineTools/SDKs/MacOSX.sdk/usr/include/_types" "_uint8_t.h"
	.file	2 "/Library/Developer/CommandLineTools/SDKs/MacOSX.sdk/usr/include/sys/_types" "_int8_t.h"
	.globl	_emulate_AMX_MAC16              ; -- Begin function emulate_AMX_MAC16
	.p2align	2
_emulate_AMX_MAC16:                     ; @emulate_AMX_MAC16
Lfunc_begin0:
	.file	3 "/Users/tarindujayatilaka/Documents/superopt/apple-amx" "mac16.c"
	.loc	3 28 0                          ; mac16.c:28:0
	.cfi_startproc
; %bb.0:
	;DEBUG_VALUE: emulate_AMX_MAC16:state <- $x0
	;DEBUG_VALUE: emulate_AMX_MAC16:operand <- $x1
	;DEBUG_VALUE: emulate_AMX_MAC16:operand <- $x1
	;DEBUG_VALUE: emulate_AMX_MAC16:state <- $x0
	sub	sp, sp, #240
	.cfi_def_cfa_offset 240
	stp	x28, x27, [sp, #144]            ; 16-byte Folded Spill
	stp	x26, x25, [sp, #160]            ; 16-byte Folded Spill
	stp	x24, x23, [sp, #176]            ; 16-byte Folded Spill
	stp	x22, x21, [sp, #192]            ; 16-byte Folded Spill
	stp	x20, x19, [sp, #208]            ; 16-byte Folded Spill
	stp	x29, x30, [sp, #224]            ; 16-byte Folded Spill
	add	x29, sp, #224
	.cfi_def_cfa w29, 16
	.cfi_offset w30, -8
	.cfi_offset w29, -16
	.cfi_offset w19, -24
	.cfi_offset w20, -32
	.cfi_offset w21, -40
	.cfi_offset w22, -48
	.cfi_offset w23, -56
	.cfi_offset w24, -64
	.cfi_offset w25, -72
	.cfi_offset w26, -80
	.cfi_offset w27, -88
	.cfi_offset w28, -96
Lloh0:
	adrp	x8, ___stack_chk_guard@GOTPAGE
Lloh1:
	ldr	x8, [x8, ___stack_chk_guard@GOTPAGEOFF]
Lloh2:
	ldr	x8, [x8]
	stur	x8, [x29, #-88]
Ltmp0:
	.loc	3 29 33 prologue_end            ; mac16.c:29:33
	and	x23, x1, #0x1ff
Ltmp1:
	;DEBUG_VALUE: emulate_AMX_MAC16:y_offset <- $x23
	.loc	3 30 41                         ; mac16.c:30:41
	ubfx	x8, x1, #10, #9
Ltmp2:
	;DEBUG_VALUE: emulate_AMX_MAC16:x_offset <- $x8
	.loc	3 31 38                         ; mac16.c:31:38
	ubfx	x15, x1, #20, #6
Ltmp3:
	;DEBUG_VALUE: emulate_AMX_MAC16:z_row <- $x15
	.loc	3 32 49                         ; mac16.c:32:49
	lsr	x9, x1, #41
	mov	w10, #3
Ltmp4:
	;DEBUG_VALUE: parse_writemask:maskbits <- 7
	;DEBUG_VALUE: parse_writemask:g <- 2
	;DEBUG_VALUE: parse_writemask:val <- $w9
	.file	4 "/Users/tarindujayatilaka/Documents/superopt/apple-amx" "./emulate.h"
	.loc	4 67 14                         ; ./emulate.h:67:14
	ands	w11, w10, w9, lsr #5
Ltmp5:
	;DEBUG_VALUE: parse_writemask:mode <- $w11
	cset	w10, ne
Ltmp6:
	.loc	4 67 9 is_stmt 0                ; ./emulate.h:67:9
	lsl	w10, w9, w10
Ltmp7:
	;DEBUG_VALUE: parse_writemask:val <- $w10
	.loc	4 68 9 is_stmt 1                ; ./emulate.h:68:9
	and	w9, w10, #0x3f
Ltmp8:
	;DEBUG_VALUE: parse_writemask:all <- -1
	;DEBUG_VALUE: parse_writemask:val <- $w9
	.loc	4 0 9 is_stmt 0                 ; ./emulate.h:0:9
	mov	x19, x1
Ltmp9:
	;DEBUG_VALUE: emulate_AMX_MAC16:operand <- $x19
	mov	x20, x0
Ltmp10:
	;DEBUG_VALUE: emulate_AMX_MAC16:state <- $x20
Lloh3:
	adrp	x12, lJTI0_0@PAGE
Lloh4:
	add	x12, x12, lJTI0_0@PAGEOFF
	adr	x13, LBB0_1
	ldrb	w14, [x12, x11]
	add	x13, x13, x14, lsl #2
	br	x13
Ltmp11:
LBB0_1:
	;DEBUG_VALUE: emulate_AMX_MAC16:state <- $x20
	;DEBUG_VALUE: emulate_AMX_MAC16:operand <- $x19
	;DEBUG_VALUE: parse_writemask:all <- -1
	;DEBUG_VALUE: parse_writemask:mode <- $w11
	;DEBUG_VALUE: parse_writemask:val <- $w9
	;DEBUG_VALUE: parse_writemask:g <- 2
	;DEBUG_VALUE: parse_writemask:maskbits <- 7
	;DEBUG_VALUE: emulate_AMX_MAC16:z_row <- $x15
	;DEBUG_VALUE: emulate_AMX_MAC16:x_offset <- $x8
	;DEBUG_VALUE: emulate_AMX_MAC16:y_offset <- $x23
	.loc	4 72 22 is_stmt 1               ; ./emulate.h:72:22
	sub	w11, w9, #1
Ltmp12:
	ubfiz	w10, w10, #1, #1
	mov	x12, #3689348814741910323
	lsl	x10, x12, x10
	cmp	w11, #2
	csinv	x10, x10, xzr, lo
Ltmp13:
	;DEBUG_VALUE: parse_writemask:all <- $x10
	.loc	4 83 16                         ; ./emulate.h:83:16
	cmp	w9, #3
	csel	x24, x10, xzr, lo
	b	LBB0_8
Ltmp14:
LBB0_2:
	;DEBUG_VALUE: emulate_AMX_MAC16:state <- $x20
	;DEBUG_VALUE: emulate_AMX_MAC16:operand <- $x19
	;DEBUG_VALUE: parse_writemask:all <- -1
	;DEBUG_VALUE: parse_writemask:mode <- $w11
	;DEBUG_VALUE: parse_writemask:val <- $w9
	;DEBUG_VALUE: parse_writemask:g <- 2
	;DEBUG_VALUE: parse_writemask:maskbits <- 7
	;DEBUG_VALUE: emulate_AMX_MAC16:z_row <- $x15
	;DEBUG_VALUE: emulate_AMX_MAC16:x_offset <- $x8
	;DEBUG_VALUE: emulate_AMX_MAC16:y_offset <- $x23
	.loc	4 0 16 is_stmt 0                ; ./emulate.h:0:16
	mov	x24, #-1
	.loc	4 88 13 is_stmt 1               ; ./emulate.h:88:13
	cbz	w9, LBB0_8
Ltmp15:
; %bb.3:
	;DEBUG_VALUE: emulate_AMX_MAC16:state <- $x20
	;DEBUG_VALUE: emulate_AMX_MAC16:operand <- $x19
	;DEBUG_VALUE: parse_writemask:all <- -1
	;DEBUG_VALUE: parse_writemask:mode <- $w11
	;DEBUG_VALUE: parse_writemask:val <- $w9
	;DEBUG_VALUE: parse_writemask:g <- 2
	;DEBUG_VALUE: parse_writemask:maskbits <- 7
	;DEBUG_VALUE: emulate_AMX_MAC16:z_row <- $x15
	;DEBUG_VALUE: emulate_AMX_MAC16:x_offset <- $x8
	;DEBUG_VALUE: emulate_AMX_MAC16:y_offset <- $x23
	.loc	4 91 22                         ; ./emulate.h:91:22
	lsl	x9, x24, x9
Ltmp16:
	.loc	4 0 22 is_stmt 0                ; ./emulate.h:0:22
	b	LBB0_6
Ltmp17:
LBB0_4:
	;DEBUG_VALUE: emulate_AMX_MAC16:state <- $x20
	;DEBUG_VALUE: emulate_AMX_MAC16:operand <- $x19
	;DEBUG_VALUE: parse_writemask:all <- -1
	;DEBUG_VALUE: parse_writemask:mode <- $w11
	;DEBUG_VALUE: parse_writemask:val <- $w9
	;DEBUG_VALUE: parse_writemask:g <- 2
	;DEBUG_VALUE: parse_writemask:maskbits <- 7
	;DEBUG_VALUE: emulate_AMX_MAC16:z_row <- $x15
	;DEBUG_VALUE: emulate_AMX_MAC16:x_offset <- $x8
	;DEBUG_VALUE: emulate_AMX_MAC16:y_offset <- $x23
	mov	x24, #-1
	.loc	4 93 13 is_stmt 1               ; ./emulate.h:93:13
	cbz	w9, LBB0_8
Ltmp18:
; %bb.5:
	;DEBUG_VALUE: emulate_AMX_MAC16:state <- $x20
	;DEBUG_VALUE: emulate_AMX_MAC16:operand <- $x19
	;DEBUG_VALUE: parse_writemask:all <- -1
	;DEBUG_VALUE: parse_writemask:mode <- $w11
	;DEBUG_VALUE: parse_writemask:val <- $w9
	;DEBUG_VALUE: parse_writemask:g <- 2
	;DEBUG_VALUE: parse_writemask:maskbits <- 7
	;DEBUG_VALUE: emulate_AMX_MAC16:z_row <- $x15
	;DEBUG_VALUE: emulate_AMX_MAC16:x_offset <- $x8
	;DEBUG_VALUE: emulate_AMX_MAC16:y_offset <- $x23
	.loc	4 96 22                         ; ./emulate.h:96:22
	lsr	x9, x24, x9
Ltmp19:
LBB0_6:
	;DEBUG_VALUE: emulate_AMX_MAC16:state <- $x20
	;DEBUG_VALUE: emulate_AMX_MAC16:operand <- $x19
	;DEBUG_VALUE: parse_writemask:all <- -1
	;DEBUG_VALUE: parse_writemask:mode <- $w11
	;DEBUG_VALUE: parse_writemask:g <- 2
	;DEBUG_VALUE: parse_writemask:maskbits <- 7
	;DEBUG_VALUE: emulate_AMX_MAC16:z_row <- $x15
	;DEBUG_VALUE: emulate_AMX_MAC16:x_offset <- $x8
	;DEBUG_VALUE: emulate_AMX_MAC16:y_offset <- $x23
	.loc	4 0 0 is_stmt 0                 ; ./emulate.h:0:0
	mvn	x24, x9
	b	LBB0_8
Ltmp20:
LBB0_7:
	;DEBUG_VALUE: emulate_AMX_MAC16:state <- $x20
	;DEBUG_VALUE: emulate_AMX_MAC16:operand <- $x19
	;DEBUG_VALUE: parse_writemask:all <- -1
	;DEBUG_VALUE: parse_writemask:mode <- $w11
	;DEBUG_VALUE: parse_writemask:val <- $w9
	;DEBUG_VALUE: parse_writemask:g <- 2
	;DEBUG_VALUE: parse_writemask:maskbits <- 7
	;DEBUG_VALUE: emulate_AMX_MAC16:z_row <- $x15
	;DEBUG_VALUE: emulate_AMX_MAC16:x_offset <- $x8
	;DEBUG_VALUE: emulate_AMX_MAC16:y_offset <- $x23
	mov	w10, #3
	.loc	4 86 30 is_stmt 1               ; ./emulate.h:86:30
	lsl	x24, x10, x9
Ltmp21:
LBB0_8:
	;DEBUG_VALUE: emulate_AMX_MAC16:state <- $x20
	;DEBUG_VALUE: emulate_AMX_MAC16:operand <- $x19
	;DEBUG_VALUE: emulate_AMX_MAC16:z_row <- $x15
	;DEBUG_VALUE: emulate_AMX_MAC16:x_offset <- $x8
	;DEBUG_VALUE: emulate_AMX_MAC16:y_offset <- $x23
	;DEBUG_VALUE: emulate_AMX_MAC16:x_enable <- $x24
	.loc	3 33 49                         ; mac16.c:33:49
	lsr	x9, x19, #32
Ltmp22:
	;DEBUG_VALUE: parse_writemask:maskbits <- 7
	;DEBUG_VALUE: parse_writemask:g <- 2
	;DEBUG_VALUE: parse_writemask:val <- $w9
	.loc	4 66 61                         ; ./emulate.h:66:61
	lsr	x10, x19, #37
Ltmp23:
	.loc	4 67 14                         ; ./emulate.h:67:14
	ands	w11, w10, #0x3
Ltmp24:
	;DEBUG_VALUE: parse_writemask:mode <- $w11
	cset	w10, ne
Ltmp25:
	.loc	4 67 9 is_stmt 0                ; ./emulate.h:67:9
	lsl	w10, w9, w10
Ltmp26:
	;DEBUG_VALUE: parse_writemask:val <- $w10
	.loc	4 68 9 is_stmt 1                ; ./emulate.h:68:9
	and	w9, w10, #0x3f
Ltmp27:
	;DEBUG_VALUE: parse_writemask:all <- -1
	;DEBUG_VALUE: parse_writemask:val <- $w9
	.loc	4 0 9 is_stmt 0                 ; ./emulate.h:0:9
Lloh5:
	adrp	x12, lJTI0_1@PAGE
Lloh6:
	add	x12, x12, lJTI0_1@PAGEOFF
	adr	x13, LBB0_9
	ldrb	w14, [x12, x11]
	add	x13, x13, x14, lsl #2
	str	x15, [sp]                       ; 8-byte Folded Spill
Ltmp28:
	;DEBUG_VALUE: emulate_AMX_MAC16:z_row <- [$sp+0]
	br	x13
Ltmp29:
LBB0_9:
	;DEBUG_VALUE: emulate_AMX_MAC16:z_row <- [$sp+0]
	;DEBUG_VALUE: parse_writemask:all <- -1
	;DEBUG_VALUE: parse_writemask:mode <- $w11
	;DEBUG_VALUE: parse_writemask:val <- $w9
	;DEBUG_VALUE: parse_writemask:g <- 2
	;DEBUG_VALUE: parse_writemask:maskbits <- 7
	;DEBUG_VALUE: emulate_AMX_MAC16:x_enable <- $x24
	;DEBUG_VALUE: emulate_AMX_MAC16:state <- $x20
	;DEBUG_VALUE: emulate_AMX_MAC16:operand <- $x19
	;DEBUG_VALUE: emulate_AMX_MAC16:x_offset <- $x8
	;DEBUG_VALUE: emulate_AMX_MAC16:y_offset <- $x23
	.loc	4 72 22 is_stmt 1               ; ./emulate.h:72:22
	sub	w11, w9, #1
Ltmp30:
	ubfiz	w10, w10, #1, #1
	mov	x12, #3689348814741910323
	lsl	x10, x12, x10
	cmp	w11, #2
	csinv	x10, x10, xzr, lo
Ltmp31:
	;DEBUG_VALUE: parse_writemask:all <- $x10
	.loc	4 83 16                         ; ./emulate.h:83:16
	cmp	w9, #3
	csel	x25, x10, xzr, lo
	b	LBB0_16
Ltmp32:
LBB0_10:
	;DEBUG_VALUE: emulate_AMX_MAC16:z_row <- [$sp+0]
	;DEBUG_VALUE: parse_writemask:all <- -1
	;DEBUG_VALUE: parse_writemask:mode <- $w11
	;DEBUG_VALUE: parse_writemask:val <- $w9
	;DEBUG_VALUE: parse_writemask:g <- 2
	;DEBUG_VALUE: parse_writemask:maskbits <- 7
	;DEBUG_VALUE: emulate_AMX_MAC16:x_enable <- $x24
	;DEBUG_VALUE: emulate_AMX_MAC16:state <- $x20
	;DEBUG_VALUE: emulate_AMX_MAC16:operand <- $x19
	;DEBUG_VALUE: emulate_AMX_MAC16:x_offset <- $x8
	;DEBUG_VALUE: emulate_AMX_MAC16:y_offset <- $x23
	.loc	4 0 16 is_stmt 0                ; ./emulate.h:0:16
	mov	x25, #-1
	.loc	4 88 13 is_stmt 1               ; ./emulate.h:88:13
	cbz	w9, LBB0_16
Ltmp33:
; %bb.11:
	;DEBUG_VALUE: emulate_AMX_MAC16:z_row <- [$sp+0]
	;DEBUG_VALUE: parse_writemask:all <- -1
	;DEBUG_VALUE: parse_writemask:mode <- $w11
	;DEBUG_VALUE: parse_writemask:val <- $w9
	;DEBUG_VALUE: parse_writemask:g <- 2
	;DEBUG_VALUE: parse_writemask:maskbits <- 7
	;DEBUG_VALUE: emulate_AMX_MAC16:x_enable <- $x24
	;DEBUG_VALUE: emulate_AMX_MAC16:state <- $x20
	;DEBUG_VALUE: emulate_AMX_MAC16:operand <- $x19
	;DEBUG_VALUE: emulate_AMX_MAC16:x_offset <- $x8
	;DEBUG_VALUE: emulate_AMX_MAC16:y_offset <- $x23
	.loc	4 91 22                         ; ./emulate.h:91:22
	lsl	x9, x25, x9
Ltmp34:
	.loc	4 0 22 is_stmt 0                ; ./emulate.h:0:22
	b	LBB0_14
Ltmp35:
LBB0_12:
	;DEBUG_VALUE: emulate_AMX_MAC16:z_row <- [$sp+0]
	;DEBUG_VALUE: parse_writemask:all <- -1
	;DEBUG_VALUE: parse_writemask:mode <- $w11
	;DEBUG_VALUE: parse_writemask:val <- $w9
	;DEBUG_VALUE: parse_writemask:g <- 2
	;DEBUG_VALUE: parse_writemask:maskbits <- 7
	;DEBUG_VALUE: emulate_AMX_MAC16:x_enable <- $x24
	;DEBUG_VALUE: emulate_AMX_MAC16:state <- $x20
	;DEBUG_VALUE: emulate_AMX_MAC16:operand <- $x19
	;DEBUG_VALUE: emulate_AMX_MAC16:x_offset <- $x8
	;DEBUG_VALUE: emulate_AMX_MAC16:y_offset <- $x23
	mov	x25, #-1
	.loc	4 93 13 is_stmt 1               ; ./emulate.h:93:13
	cbz	w9, LBB0_16
Ltmp36:
; %bb.13:
	;DEBUG_VALUE: emulate_AMX_MAC16:z_row <- [$sp+0]
	;DEBUG_VALUE: parse_writemask:all <- -1
	;DEBUG_VALUE: parse_writemask:mode <- $w11
	;DEBUG_VALUE: parse_writemask:val <- $w9
	;DEBUG_VALUE: parse_writemask:g <- 2
	;DEBUG_VALUE: parse_writemask:maskbits <- 7
	;DEBUG_VALUE: emulate_AMX_MAC16:x_enable <- $x24
	;DEBUG_VALUE: emulate_AMX_MAC16:state <- $x20
	;DEBUG_VALUE: emulate_AMX_MAC16:operand <- $x19
	;DEBUG_VALUE: emulate_AMX_MAC16:x_offset <- $x8
	;DEBUG_VALUE: emulate_AMX_MAC16:y_offset <- $x23
	.loc	4 96 22                         ; ./emulate.h:96:22
	lsr	x9, x25, x9
Ltmp37:
LBB0_14:
	;DEBUG_VALUE: emulate_AMX_MAC16:z_row <- [$sp+0]
	;DEBUG_VALUE: parse_writemask:all <- -1
	;DEBUG_VALUE: parse_writemask:mode <- $w11
	;DEBUG_VALUE: parse_writemask:g <- 2
	;DEBUG_VALUE: parse_writemask:maskbits <- 7
	;DEBUG_VALUE: emulate_AMX_MAC16:x_enable <- $x24
	;DEBUG_VALUE: emulate_AMX_MAC16:state <- $x20
	;DEBUG_VALUE: emulate_AMX_MAC16:operand <- $x19
	;DEBUG_VALUE: emulate_AMX_MAC16:x_offset <- $x8
	;DEBUG_VALUE: emulate_AMX_MAC16:y_offset <- $x23
	.loc	4 0 0 is_stmt 0                 ; ./emulate.h:0:0
	mvn	x25, x9
	b	LBB0_16
Ltmp38:
LBB0_15:
	;DEBUG_VALUE: emulate_AMX_MAC16:z_row <- [$sp+0]
	;DEBUG_VALUE: parse_writemask:all <- -1
	;DEBUG_VALUE: parse_writemask:mode <- $w11
	;DEBUG_VALUE: parse_writemask:val <- $w9
	;DEBUG_VALUE: parse_writemask:g <- 2
	;DEBUG_VALUE: parse_writemask:maskbits <- 7
	;DEBUG_VALUE: emulate_AMX_MAC16:x_enable <- $x24
	;DEBUG_VALUE: emulate_AMX_MAC16:state <- $x20
	;DEBUG_VALUE: emulate_AMX_MAC16:operand <- $x19
	;DEBUG_VALUE: emulate_AMX_MAC16:x_offset <- $x8
	;DEBUG_VALUE: emulate_AMX_MAC16:y_offset <- $x23
	mov	w10, #3
	.loc	4 86 30 is_stmt 1               ; ./emulate.h:86:30
	lsl	x25, x10, x9
Ltmp39:
LBB0_16:
	;DEBUG_VALUE: emulate_AMX_MAC16:z_row <- [$sp+0]
	;DEBUG_VALUE: emulate_AMX_MAC16:x_enable <- $x24
	;DEBUG_VALUE: emulate_AMX_MAC16:state <- $x20
	;DEBUG_VALUE: emulate_AMX_MAC16:operand <- $x19
	;DEBUG_VALUE: emulate_AMX_MAC16:x_offset <- $x8
	;DEBUG_VALUE: emulate_AMX_MAC16:y_offset <- $x23
	;DEBUG_VALUE: emulate_AMX_MAC16:y_enable <- $x25
	.loc	4 0 30 is_stmt 0                ; ./emulate.h:0:30
	mov	w28, #512
Ltmp40:
	;DEBUG_VALUE: load_xy_reg:offset <- $x8
	;DEBUG_VALUE: load_xy_reg:src <- $x20
	;DEBUG_VALUE: load_xy_reg:dst <- [DW_OP_plus_uconst 72, DW_OP_stack_value] $sp
	.loc	4 42 26 is_stmt 1               ; ./emulate.h:42:26
	sub	x9, x28, x8
Ltmp41:
	;DEBUG_VALUE: load_xy_reg:avail <- $x9
	.loc	4 43 5                          ; ./emulate.h:43:5
	add	x1, x20, x8
	.loc	4 44 5                          ; ./emulate.h:44:5
	sub	x10, x8, #448
	mov	w27, #64
	.loc	4 43 5                          ; ./emulate.h:43:5
	cmp	x8, #449
	csel	x2, x27, x9, lo
	add	x26, sp, #72
	.loc	4 44 5                          ; ./emulate.h:44:5
	add	x21, x26, x9
	csel	x22, xzr, x10, lo
	.loc	4 43 5                          ; ./emulate.h:43:5
	add	x0, sp, #72
	mov	w3, #64
	bl	___memcpy_chk
Ltmp42:
	.loc	4 44 5                          ; ./emulate.h:44:5
	mov	x0, x21
	mov	x1, x20
	mov	x2, x22
	bl	_memcpy
Ltmp43:
	.loc	3 38 27                         ; mac16.c:38:27
	add	x21, x20, #512
Ltmp44:
	;DEBUG_VALUE: load_xy_reg:offset <- $x23
	;DEBUG_VALUE: load_xy_reg:dst <- [DW_OP_plus_uconst 8, DW_OP_stack_value] $sp
	;DEBUG_VALUE: load_xy_reg:src <- $x21
	.loc	4 42 26                         ; ./emulate.h:42:26
	sub	x8, x28, x23
Ltmp45:
	;DEBUG_VALUE: load_xy_reg:avail <- $x8
	.loc	4 43 5                          ; ./emulate.h:43:5
	add	x1, x21, x23
	.loc	4 44 5                          ; ./emulate.h:44:5
	sub	x9, x23, #448
	.loc	4 43 5                          ; ./emulate.h:43:5
	cmp	x23, #449
	csel	x2, x27, x8, lo
	add	x28, sp, #8
	.loc	4 44 5                          ; ./emulate.h:44:5
	add	x22, x28, x8
	csel	x23, xzr, x9, lo
Ltmp46:
	.loc	4 43 5                          ; ./emulate.h:43:5
	add	x0, sp, #8
	mov	w3, #64
	bl	___memcpy_chk
Ltmp47:
	.loc	4 44 5                          ; ./emulate.h:44:5
	mov	x0, x22
	mov	x1, x21
	mov	x2, x23
	bl	_memcpy
Ltmp48:
	;DEBUG_VALUE: i <- 0
	.loc	4 0 5 is_stmt 0                 ; ./emulate.h:0:5
	mov	x8, #0
	ldr	x9, [sp]                        ; 8-byte Folded Reload
	add	x9, x20, x9, lsl #6
	add	x9, x9, #1024
	ubfx	x10, x19, #28, #2
	ubfx	x11, x19, #55, #5
	ubfx	x12, x19, #20, #1
	b	LBB0_19
Ltmp49:
LBB0_17:                                ;   in Loop: Header=BB0_19 Depth=1
	;DEBUG_VALUE: i <- $x8
	;DEBUG_VALUE: emulate_AMX_MAC16:y_enable <- $x25
	;DEBUG_VALUE: emulate_AMX_MAC16:z_row <- [$sp+0]
	;DEBUG_VALUE: emulate_AMX_MAC16:x_enable <- $x24
	;DEBUG_VALUE: emulate_AMX_MAC16:state <- $x20
	;DEBUG_VALUE: emulate_AMX_MAC16:operand <- $x19
	;DEBUG_VALUE: z <- undef
	.loc	3 44 28                         ; mac16.c:44:28
	ldrsh	x14, [x26, x13]
	.loc	3 44 34                         ; mac16.c:44:34
	ldrsh	x15, [x28, x13]
	.loc	3 44 40                         ; mac16.c:44:40
	ldrh	w13, [x9, x13]
Ltmp50:
	;DEBUG_VALUE: mac32_alu:x <- $x14
	;DEBUG_VALUE: mac32_alu:y <- $x15
	;DEBUG_VALUE: mac32_alu:operand <- $x19
	;DEBUG_VALUE: mac32_alu:z <- [DW_OP_LLVM_convert 16 5, DW_OP_LLVM_convert 64 5, DW_OP_stack_value] undef
	.loc	3 11 9 is_stmt 1                ; mac16.c:11:9
	sxtb	x16, w14
	tst	x19, #0x2000000000000000
	csel	x14, x14, x16, eq
Ltmp51:
	;DEBUG_VALUE: mac32_alu:x <- $x14
	.loc	3 12 9                          ; mac16.c:12:9
	sxtb	x16, w15
	tst	x19, #0x1000000000000000
	csel	x15, x15, x16, eq
Ltmp52:
	;DEBUG_VALUE: mac32_alu:y <- $x15
	.loc	3 15 22                         ; mac16.c:15:22
	mul	x16, x15, x14
Ltmp53:
	;DEBUG_VALUE: mac32_alu:val <- $x16
	.loc	3 14 5                          ; mac16.c:14:5
	cmp	x10, #3
Ltmp54:
	;DEBUG_VALUE: mac32_alu:val <- 0
	csel	x16, xzr, x16, eq
	cmp	x10, #2
	csel	x15, x15, x16, eq
Ltmp55:
	cmp	x10, #1
	csel	x14, x14, x15, eq
Ltmp56:
	;DEBUG_VALUE: mac32_alu:shift <- $x11
	;DEBUG_VALUE: mac32_alu:val <- $x14
	.loc	3 21 9                          ; mac16.c:21:9
	asr	x14, x14, x11
Ltmp57:
	;DEBUG_VALUE: mac32_alu:val <- $x14
	.loc	3 22 9                          ; mac16.c:22:9
	tst	x19, #0x8000000
	csel	w13, w13, wzr, eq
	add	w13, w14, w13
Ltmp58:
	;DEBUG_VALUE: mac32_alu:val <- [DW_OP_LLVM_arg 0, DW_OP_LLVM_arg 1, DW_OP_plus, DW_OP_stack_value] undef
	.loc	3 44 16                         ; mac16.c:44:16
	strh	w13, [x9, x8, lsl #1]
Ltmp59:
LBB0_18:                                ;   in Loop: Header=BB0_19 Depth=1
	;DEBUG_VALUE: i <- $x8
	;DEBUG_VALUE: emulate_AMX_MAC16:y_enable <- $x25
	;DEBUG_VALUE: emulate_AMX_MAC16:z_row <- [$sp+0]
	;DEBUG_VALUE: emulate_AMX_MAC16:x_enable <- $x24
	;DEBUG_VALUE: emulate_AMX_MAC16:state <- $x20
	;DEBUG_VALUE: emulate_AMX_MAC16:operand <- $x19
	.loc	3 40 30                         ; mac16.c:40:30
	add	x8, x8, #1
Ltmp60:
	;DEBUG_VALUE: i <- $x8
	.loc	3 40 5 is_stmt 0                ; mac16.c:40:5
	cmp	x8, #32
	b.eq	LBB0_27
Ltmp61:
LBB0_19:                                ; =>This Loop Header: Depth=1
                                        ;     Child Loop BB0_24 Depth 2
	;DEBUG_VALUE: emulate_AMX_MAC16:y_enable <- $x25
	;DEBUG_VALUE: emulate_AMX_MAC16:z_row <- [$sp+0]
	;DEBUG_VALUE: emulate_AMX_MAC16:x_enable <- $x24
	;DEBUG_VALUE: emulate_AMX_MAC16:state <- $x20
	;DEBUG_VALUE: emulate_AMX_MAC16:operand <- $x19
	;DEBUG_VALUE: i <- $x8
	.loc	3 41 31 is_stmt 1               ; mac16.c:41:31
	lsl	x13, x8, #1
Ltmp62:
	.loc	3 41 13 is_stmt 0               ; mac16.c:41:13
	lsr	x14, x24, x13
	tbz	w14, #0, LBB0_18
Ltmp63:
; %bb.20:                               ;   in Loop: Header=BB0_19 Depth=1
	;DEBUG_VALUE: i <- $x8
	;DEBUG_VALUE: emulate_AMX_MAC16:y_enable <- $x25
	;DEBUG_VALUE: emulate_AMX_MAC16:z_row <- [$sp+0]
	;DEBUG_VALUE: emulate_AMX_MAC16:x_enable <- $x24
	;DEBUG_VALUE: emulate_AMX_MAC16:state <- $x20
	;DEBUG_VALUE: emulate_AMX_MAC16:operand <- $x19
	.loc	3 42 13 is_stmt 1               ; mac16.c:42:13
	tbnz	x19, #63, LBB0_17
Ltmp64:
; %bb.21:                               ;   in Loop: Header=BB0_19 Depth=1
	;DEBUG_VALUE: i <- $x8
	;DEBUG_VALUE: emulate_AMX_MAC16:y_enable <- $x25
	;DEBUG_VALUE: emulate_AMX_MAC16:z_row <- [$sp+0]
	;DEBUG_VALUE: emulate_AMX_MAC16:x_enable <- $x24
	;DEBUG_VALUE: emulate_AMX_MAC16:state <- $x20
	;DEBUG_VALUE: emulate_AMX_MAC16:operand <- $x19
	;DEBUG_VALUE: j <- 0
	.loc	3 0 13 is_stmt 0                ; mac16.c:0:13
	mov	x14, #0
	and	x15, x8, #0x1
	ubfx	x16, x8, #1, #31
	b	LBB0_24
Ltmp65:
LBB0_22:                                ;   in Loop: Header=BB0_24 Depth=2
	;DEBUG_VALUE: j <- [DW_OP_consts 2, DW_OP_div, DW_OP_stack_value] $x14
	;DEBUG_VALUE: i <- $x8
	;DEBUG_VALUE: emulate_AMX_MAC16:y_enable <- $x25
	;DEBUG_VALUE: emulate_AMX_MAC16:z_row <- [$sp+0]
	;DEBUG_VALUE: emulate_AMX_MAC16:x_enable <- $x24
	;DEBUG_VALUE: emulate_AMX_MAC16:state <- $x20
	;DEBUG_VALUE: emulate_AMX_MAC16:operand <- $x19
	.loc	3 52 52 is_stmt 1               ; mac16.c:52:52
	orr	x17, x12, x14
	.loc	3 52 35 is_stmt 0               ; mac16.c:52:35
	add	x17, x20, x17, lsl #6
	.loc	3 53 36 is_stmt 1               ; mac16.c:53:36
	ldrsh	x0, [x26, x13]
	.loc	3 52 35                         ; mac16.c:52:35
	add	x17, x17, #1024
Ltmp66:
	;DEBUG_VALUE: z <- undef
	.loc	3 53 42                         ; mac16.c:53:42
	ldrsh	x1, [x28, x14]
	.loc	3 53 48 is_stmt 0               ; mac16.c:53:48
	ldrh	w2, [x17, x13]
Ltmp67:
	;DEBUG_VALUE: mac32_alu:x <- $x0
	;DEBUG_VALUE: mac32_alu:y <- $x1
	;DEBUG_VALUE: mac32_alu:operand <- $x19
	;DEBUG_VALUE: mac32_alu:z <- [DW_OP_LLVM_convert 16 5, DW_OP_LLVM_convert 64 5, DW_OP_stack_value] undef
	.loc	3 11 9 is_stmt 1                ; mac16.c:11:9
	sxtb	x3, w0
	tst	x19, #0x2000000000000000
	csel	x0, x0, x3, eq
Ltmp68:
	;DEBUG_VALUE: mac32_alu:x <- $x0
	.loc	3 12 9                          ; mac16.c:12:9
	sxtb	x3, w1
	tst	x19, #0x1000000000000000
	csel	x1, x1, x3, eq
Ltmp69:
	;DEBUG_VALUE: mac32_alu:y <- $x1
	.loc	3 15 22                         ; mac16.c:15:22
	mul	x3, x1, x0
Ltmp70:
	;DEBUG_VALUE: mac32_alu:val <- $x3
	.loc	3 14 5                          ; mac16.c:14:5
	cmp	x10, #3
Ltmp71:
	;DEBUG_VALUE: mac32_alu:val <- 0
	csel	x3, xzr, x3, eq
	cmp	x10, #2
	csel	x1, x1, x3, eq
Ltmp72:
	cmp	x10, #1
	csel	x0, x0, x1, eq
Ltmp73:
	;DEBUG_VALUE: mac32_alu:shift <- $x11
	;DEBUG_VALUE: mac32_alu:val <- $x0
	.loc	3 21 9                          ; mac16.c:21:9
	asr	x0, x0, x11
Ltmp74:
	;DEBUG_VALUE: mac32_alu:val <- $x0
	.loc	3 22 9                          ; mac16.c:22:9
	tst	x19, #0x8000000
	csel	w1, w2, wzr, eq
	add	w0, w0, w1
Ltmp75:
	;DEBUG_VALUE: mac32_alu:val <- [DW_OP_LLVM_arg 0, DW_OP_LLVM_arg 1, DW_OP_plus, DW_OP_stack_value] undef
	.loc	3 53 24                         ; mac16.c:53:24
	strh	w0, [x17, x8, lsl #1]
Ltmp76:
LBB0_23:                                ;   in Loop: Header=BB0_24 Depth=2
	;DEBUG_VALUE: j <- [DW_OP_consts 2, DW_OP_div, DW_OP_stack_value] $x14
	;DEBUG_VALUE: i <- $x8
	;DEBUG_VALUE: emulate_AMX_MAC16:y_enable <- $x25
	;DEBUG_VALUE: emulate_AMX_MAC16:z_row <- [$sp+0]
	;DEBUG_VALUE: emulate_AMX_MAC16:x_enable <- $x24
	;DEBUG_VALUE: emulate_AMX_MAC16:state <- $x20
	;DEBUG_VALUE: emulate_AMX_MAC16:operand <- $x19
	;DEBUG_VALUE: j <- [DW_OP_consts 2, DW_OP_div, DW_OP_consts 1, DW_OP_plus, DW_OP_stack_value] $x14
	.loc	3 46 31                         ; mac16.c:46:31
	add	x14, x14, #2
Ltmp77:
	.loc	3 46 13 is_stmt 0               ; mac16.c:46:13
	cmp	x14, #64
	b.eq	LBB0_18
Ltmp78:
LBB0_24:                                ;   Parent Loop BB0_19 Depth=1
                                        ; =>  This Inner Loop Header: Depth=2
	;DEBUG_VALUE: i <- $x8
	;DEBUG_VALUE: emulate_AMX_MAC16:y_enable <- $x25
	;DEBUG_VALUE: emulate_AMX_MAC16:z_row <- [$sp+0]
	;DEBUG_VALUE: emulate_AMX_MAC16:x_enable <- $x24
	;DEBUG_VALUE: emulate_AMX_MAC16:state <- $x20
	;DEBUG_VALUE: emulate_AMX_MAC16:operand <- $x19
	;DEBUG_VALUE: j <- [DW_OP_consts 2, DW_OP_div, DW_OP_stack_value] $x14
	.loc	3 47 21 is_stmt 1               ; mac16.c:47:21
	lsr	x17, x25, x14
	tbz	w17, #0, LBB0_23
Ltmp79:
; %bb.25:                               ;   in Loop: Header=BB0_24 Depth=2
	;DEBUG_VALUE: j <- [DW_OP_consts 2, DW_OP_div, DW_OP_stack_value] $x14
	;DEBUG_VALUE: i <- $x8
	;DEBUG_VALUE: emulate_AMX_MAC16:y_enable <- $x25
	;DEBUG_VALUE: emulate_AMX_MAC16:z_row <- [$sp+0]
	;DEBUG_VALUE: emulate_AMX_MAC16:x_enable <- $x24
	;DEBUG_VALUE: emulate_AMX_MAC16:state <- $x20
	;DEBUG_VALUE: emulate_AMX_MAC16:operand <- $x19
	.loc	3 48 21                         ; mac16.c:48:21
	tbz	x19, #62, LBB0_22
Ltmp80:
; %bb.26:                               ;   in Loop: Header=BB0_24 Depth=2
	;DEBUG_VALUE: j <- [DW_OP_consts 2, DW_OP_div, DW_OP_stack_value] $x14
	;DEBUG_VALUE: i <- $x8
	;DEBUG_VALUE: emulate_AMX_MAC16:y_enable <- $x25
	;DEBUG_VALUE: emulate_AMX_MAC16:z_row <- [$sp+0]
	;DEBUG_VALUE: emulate_AMX_MAC16:x_enable <- $x24
	;DEBUG_VALUE: emulate_AMX_MAC16:state <- $x20
	;DEBUG_VALUE: emulate_AMX_MAC16:operand <- $x19
	.loc	3 49 35                         ; mac16.c:49:35
	orr	x17, x15, x14
	add	x17, x20, x17, lsl #6
	.loc	3 50 36                         ; mac16.c:50:36
	ldrsh	x0, [x26, x8, lsl #1]
	.loc	3 49 35                         ; mac16.c:49:35
	add	x17, x17, #1024
Ltmp81:
	;DEBUG_VALUE: z <- undef
	.loc	3 50 42                         ; mac16.c:50:42
	ldrsh	x1, [x28, x14]
	.loc	3 50 48 is_stmt 0               ; mac16.c:50:48
	ldr	w2, [x17, x16, lsl #2]
Ltmp82:
	;DEBUG_VALUE: mac32_alu:x <- $x0
	;DEBUG_VALUE: mac32_alu:y <- $x1
	;DEBUG_VALUE: mac32_alu:operand <- $x19
	;DEBUG_VALUE: mac32_alu:z <- [DW_OP_LLVM_convert 32 5, DW_OP_LLVM_convert 64 5, DW_OP_stack_value] undef
	.loc	3 11 9 is_stmt 1                ; mac16.c:11:9
	sxtb	x3, w0
	tst	x19, #0x2000000000000000
	csel	x0, x0, x3, eq
Ltmp83:
	;DEBUG_VALUE: mac32_alu:x <- $x0
	.loc	3 12 9                          ; mac16.c:12:9
	sxtb	x3, w1
	tst	x19, #0x1000000000000000
	csel	x1, x1, x3, eq
Ltmp84:
	;DEBUG_VALUE: mac32_alu:y <- $x1
	.loc	3 15 22                         ; mac16.c:15:22
	mul	x3, x1, x0
Ltmp85:
	;DEBUG_VALUE: mac32_alu:val <- $x3
	.loc	3 14 5                          ; mac16.c:14:5
	cmp	x10, #3
Ltmp86:
	;DEBUG_VALUE: mac32_alu:val <- 0
	csel	x3, xzr, x3, eq
	cmp	x10, #2
	csel	x1, x1, x3, eq
Ltmp87:
	cmp	x10, #1
	csel	x0, x0, x1, eq
Ltmp88:
	;DEBUG_VALUE: mac32_alu:shift <- $x11
	;DEBUG_VALUE: mac32_alu:val <- $x0
	.loc	3 21 9                          ; mac16.c:21:9
	asr	x0, x0, x11
Ltmp89:
	;DEBUG_VALUE: mac32_alu:val <- $x0
	.loc	3 22 9                          ; mac16.c:22:9
	tst	x19, #0x8000000
	csel	w1, w2, wzr, eq
	add	w0, w0, w1
Ltmp90:
	;DEBUG_VALUE: mac32_alu:val <- [DW_OP_LLVM_arg 0, DW_OP_LLVM_arg 1, DW_OP_plus, DW_OP_stack_value] undef
	.loc	3 50 24                         ; mac16.c:50:24
	str	w0, [x17, x16, lsl #2]
	b	LBB0_23
Ltmp91:
LBB0_27:
	;DEBUG_VALUE: i <- $x8
	;DEBUG_VALUE: emulate_AMX_MAC16:y_enable <- $x25
	;DEBUG_VALUE: emulate_AMX_MAC16:z_row <- [$sp+0]
	;DEBUG_VALUE: emulate_AMX_MAC16:x_enable <- $x24
	;DEBUG_VALUE: emulate_AMX_MAC16:state <- $x20
	;DEBUG_VALUE: emulate_AMX_MAC16:operand <- $x19
	.loc	3 0 24 is_stmt 0                ; mac16.c:0:24
	ldur	x8, [x29, #-88]
Lloh7:
	adrp	x9, ___stack_chk_guard@GOTPAGE
Lloh8:
	ldr	x9, [x9, ___stack_chk_guard@GOTPAGEOFF]
Lloh9:
	ldr	x9, [x9]
	cmp	x9, x8
	b.ne	LBB0_29
Ltmp92:
; %bb.28:
	;DEBUG_VALUE: emulate_AMX_MAC16:y_enable <- $x25
	;DEBUG_VALUE: emulate_AMX_MAC16:z_row <- [$sp+0]
	;DEBUG_VALUE: emulate_AMX_MAC16:x_enable <- $x24
	;DEBUG_VALUE: emulate_AMX_MAC16:state <- $x20
	;DEBUG_VALUE: emulate_AMX_MAC16:operand <- $x19
	.loc	3 58 1 is_stmt 1                ; mac16.c:58:1
	ldp	x29, x30, [sp, #224]            ; 16-byte Folded Reload
	ldp	x20, x19, [sp, #208]            ; 16-byte Folded Reload
Ltmp93:
	;DEBUG_VALUE: emulate_AMX_MAC16:state <- [DW_OP_LLVM_entry_value 1] $x0
	;DEBUG_VALUE: emulate_AMX_MAC16:operand <- [DW_OP_LLVM_entry_value 1] $x1
	ldp	x22, x21, [sp, #192]            ; 16-byte Folded Reload
	ldp	x24, x23, [sp, #176]            ; 16-byte Folded Reload
Ltmp94:
	ldp	x26, x25, [sp, #160]            ; 16-byte Folded Reload
Ltmp95:
	ldp	x28, x27, [sp, #144]            ; 16-byte Folded Reload
	add	sp, sp, #240
Ltmp96:
	ret
Ltmp97:
LBB0_29:
	;DEBUG_VALUE: emulate_AMX_MAC16:y_enable <- $x25
	;DEBUG_VALUE: emulate_AMX_MAC16:z_row <- [$sp+0]
	;DEBUG_VALUE: emulate_AMX_MAC16:x_enable <- $x24
	;DEBUG_VALUE: emulate_AMX_MAC16:state <- $x20
	;DEBUG_VALUE: emulate_AMX_MAC16:operand <- $x19
	.loc	3 0 1 is_stmt 0                 ; mac16.c:0:1
	bl	___stack_chk_fail
Ltmp98:
	.loh AdrpAdd	Lloh3, Lloh4
	.loh AdrpLdrGotLdr	Lloh0, Lloh1, Lloh2
	.loh AdrpAdd	Lloh5, Lloh6
	.loh AdrpLdrGotLdr	Lloh7, Lloh8, Lloh9
Lfunc_end0:
	.cfi_endproc
	.section	__TEXT,__const
lJTI0_0:
	.byte	(LBB0_1-LBB0_1)>>2
	.byte	(LBB0_7-LBB0_1)>>2
	.byte	(LBB0_2-LBB0_1)>>2
	.byte	(LBB0_4-LBB0_1)>>2
lJTI0_1:
	.byte	(LBB0_9-LBB0_9)>>2
	.byte	(LBB0_15-LBB0_9)>>2
	.byte	(LBB0_10-LBB0_9)>>2
	.byte	(LBB0_12-LBB0_9)>>2
	.file	5 "/Library/Developer/CommandLineTools/SDKs/MacOSX.sdk/usr/include/_types" "_uint64_t.h"
	.file	6 "/Library/Developer/CommandLineTools/SDKs/MacOSX.sdk/usr/include/_types" "_uint32_t.h"
	.file	7 "/Library/Developer/CommandLineTools/SDKs/MacOSX.sdk/usr/include/sys/_types" "_int64_t.h"
                                        ; -- End function
	.file	8 "/Library/Developer/CommandLineTools/SDKs/MacOSX.sdk/usr/include/sys/_types" "_int16_t.h"
	.file	9 "/Library/Developer/CommandLineTools/SDKs/MacOSX.sdk/usr/include/_types" "_uint16_t.h"
	.file	10 "/Library/Developer/CommandLineTools/SDKs/MacOSX.sdk/usr/include/sys/_types" "_int32_t.h"