	.section	__TEXT,__text,regular,pure_instructions
	.build_version macos, 14, 0	sdk_version 14, 4
	.file	1 "/Users/tarindujayatilaka/Documents/superopt/apple-amx" "./tp_utils.h"
	.file	2 "/Users/tarindujayatilaka/Documents/superopt/apple-amx" "transpose.c"
	.file	3 "/Library/Developer/CommandLineTools/SDKs/MacOSX.sdk/usr/include/_types" "_uint32_t.h"
	.file	4 "/Library/Developer/CommandLineTools/SDKs/MacOSX.sdk/usr/include/_types" "_uint64_t.h"
	.file	5 "/Library/Developer/CommandLineTools/SDKs/MacOSX.sdk/usr/include/_types" "_uint8_t.h"
	.file	6 "/Library/Developer/CommandLineTools/SDKs/MacOSX.sdk/usr/include/arm" "_types.h"
	.file	7 "/Library/Developer/CommandLineTools/SDKs/MacOSX.sdk/usr/include/sys/_types" "_clock_t.h"
	.globl	_print_amx_state                ; -- Begin function print_amx_state
	.p2align	2
_print_amx_state:                       ; @print_amx_state
Lfunc_begin0:
	.loc	1 5 0                           ; ./tp_utils.h:5:0
	.cfi_startproc
; %bb.0:
	;DEBUG_VALUE: print_amx_state:state <- $x0
	sub	sp, sp, #96
	.cfi_def_cfa_offset 96
	stp	x26, x25, [sp, #16]             ; 16-byte Folded Spill
	stp	x24, x23, [sp, #32]             ; 16-byte Folded Spill
	stp	x22, x21, [sp, #48]             ; 16-byte Folded Spill
	stp	x20, x19, [sp, #64]             ; 16-byte Folded Spill
	stp	x29, x30, [sp, #80]             ; 16-byte Folded Spill
	add	x29, sp, #80
	.cfi_def_cfa w29, 16
	.cfi_offset w30, -8
	.cfi_offset w29, -16
	.cfi_offset w19, -24
	.cfi_offset w20, -32
	.cfi_offset w21, -40
	.cfi_offset w22, -48
	.cfi_offset w23, -56
	.cfi_offset w24, -64
	.cfi_offset w25, -72
	.cfi_offset w26, -80
	mov	x19, x0
Ltmp0:
	;DEBUG_VALUE: print_amx_state:state <- $x19
	.loc	1 6 5 prologue_end              ; ./tp_utils.h:6:5
Lloh0:
	adrp	x0, l_str@PAGE
Lloh1:
	add	x0, x0, l_str@PAGEOFF
	bl	_puts
Ltmp1:
	.loc	1 9 5                           ; ./tp_utils.h:9:5
Lloh2:
	adrp	x0, l_str.14@PAGE
Lloh3:
	add	x0, x0, l_str.14@PAGEOFF
	bl	_puts
Ltmp2:
	;DEBUG_VALUE: i <- 0
	.loc	1 11 9                          ; ./tp_utils.h:11:9
	str	xzr, [sp]
Lloh4:
	adrp	x0, l_.str.2@PAGE
Lloh5:
	add	x0, x0, l_.str.2@PAGEOFF
	bl	_printf
Ltmp3:
	;DEBUG_VALUE: j <- 0
	.loc	1 0 9 is_stmt 0                 ; ./tp_utils.h:0:9
	mov	x22, #0
Lloh6:
	adrp	x20, l_.str.3@PAGE
Lloh7:
	add	x20, x20, l_.str.3@PAGEOFF
Lloh8:
	adrp	x21, l_.str.4@PAGE
Lloh9:
	add	x21, x21, l_.str.4@PAGEOFF
	b	LBB0_2
Ltmp4:
LBB0_1:                                 ;   in Loop: Header=BB0_2 Depth=1
	;DEBUG_VALUE: i <- 0
	;DEBUG_VALUE: print_amx_state:state <- $x19
	;DEBUG_VALUE: j <- $x22
	.loc	1 12 9 is_stmt 1                ; ./tp_utils.h:12:9
	cmp	x22, #64
	b.eq	LBB0_4
Ltmp5:
LBB0_2:                                 ; =>This Inner Loop Header: Depth=1
	;DEBUG_VALUE: i <- 0
	;DEBUG_VALUE: print_amx_state:state <- $x19
	;DEBUG_VALUE: j <- $x22
	.loc	1 13 29                         ; ./tp_utils.h:13:29
	ldrb	w8, [x19, x22]
	.loc	1 13 13 is_stmt 0               ; ./tp_utils.h:13:13
	str	x8, [sp]
	mov	x0, x20
	bl	_printf
Ltmp6:
	.loc	1 14 20 is_stmt 1               ; ./tp_utils.h:14:20
	add	x22, x22, #1
Ltmp7:
	.loc	1 14 30 is_stmt 0               ; ./tp_utils.h:14:30
	tst	x22, #0xf
Ltmp8:
	.loc	1 14 17                         ; ./tp_utils.h:14:17
	b.ne	LBB0_1
Ltmp9:
; %bb.3:                                ;   in Loop: Header=BB0_2 Depth=1
	;DEBUG_VALUE: i <- 0
	;DEBUG_VALUE: print_amx_state:state <- $x19
	.loc	1 14 36                         ; ./tp_utils.h:14:36
	mov	x0, x21
	bl	_printf
Ltmp10:
	.loc	1 0 36                          ; ./tp_utils.h:0:36
	b	LBB0_1
Ltmp11:
LBB0_4:
	;DEBUG_VALUE: i <- 0
	;DEBUG_VALUE: print_amx_state:state <- $x19
	.loc	1 16 9 is_stmt 1                ; ./tp_utils.h:16:9
	mov	w0, #10
	bl	_putchar
Ltmp12:
	;DEBUG_VALUE: i <- 1
	.loc	1 0 9 is_stmt 0                 ; ./tp_utils.h:0:9
	mov	w8, #1
	.loc	1 11 9 is_stmt 1                ; ./tp_utils.h:11:9
	str	x8, [sp]
Lloh10:
	adrp	x0, l_.str.2@PAGE
Lloh11:
	add	x0, x0, l_.str.2@PAGEOFF
	bl	_printf
Ltmp13:
	;DEBUG_VALUE: j <- 0
	.loc	1 0 9 is_stmt 0                 ; ./tp_utils.h:0:9
	mov	x22, #0
	add	x23, x19, #64
Lloh12:
	adrp	x20, l_.str.3@PAGE
Lloh13:
	add	x20, x20, l_.str.3@PAGEOFF
Lloh14:
	adrp	x21, l_.str.4@PAGE
Lloh15:
	add	x21, x21, l_.str.4@PAGEOFF
	b	LBB0_6
Ltmp14:
LBB0_5:                                 ;   in Loop: Header=BB0_6 Depth=1
	;DEBUG_VALUE: i <- 1
	;DEBUG_VALUE: print_amx_state:state <- $x19
	;DEBUG_VALUE: j <- $x22
	.loc	1 12 9 is_stmt 1                ; ./tp_utils.h:12:9
	cmp	x22, #64
	b.eq	LBB0_8
Ltmp15:
LBB0_6:                                 ; =>This Inner Loop Header: Depth=1
	;DEBUG_VALUE: i <- 1
	;DEBUG_VALUE: print_amx_state:state <- $x19
	;DEBUG_VALUE: j <- $x22
	.loc	1 13 29                         ; ./tp_utils.h:13:29
	ldrb	w8, [x23, x22]
	.loc	1 13 13 is_stmt 0               ; ./tp_utils.h:13:13
	str	x8, [sp]
	mov	x0, x20
	bl	_printf
Ltmp16:
	.loc	1 14 20 is_stmt 1               ; ./tp_utils.h:14:20
	add	x22, x22, #1
Ltmp17:
	.loc	1 14 30 is_stmt 0               ; ./tp_utils.h:14:30
	tst	x22, #0xf
Ltmp18:
	.loc	1 14 17                         ; ./tp_utils.h:14:17
	b.ne	LBB0_5
Ltmp19:
; %bb.7:                                ;   in Loop: Header=BB0_6 Depth=1
	;DEBUG_VALUE: i <- 1
	;DEBUG_VALUE: print_amx_state:state <- $x19
	.loc	1 14 36                         ; ./tp_utils.h:14:36
	mov	x0, x21
	bl	_printf
Ltmp20:
	.loc	1 0 36                          ; ./tp_utils.h:0:36
	b	LBB0_5
Ltmp21:
LBB0_8:
	;DEBUG_VALUE: i <- 1
	;DEBUG_VALUE: print_amx_state:state <- $x19
	.loc	1 16 9 is_stmt 1                ; ./tp_utils.h:16:9
	mov	w0, #10
	bl	_putchar
Ltmp22:
	;DEBUG_VALUE: i <- 2
	.loc	1 0 9 is_stmt 0                 ; ./tp_utils.h:0:9
	mov	w8, #2
	.loc	1 11 9 is_stmt 1                ; ./tp_utils.h:11:9
	str	x8, [sp]
Lloh16:
	adrp	x0, l_.str.2@PAGE
Lloh17:
	add	x0, x0, l_.str.2@PAGEOFF
	bl	_printf
Ltmp23:
	;DEBUG_VALUE: j <- 0
	.loc	1 0 9 is_stmt 0                 ; ./tp_utils.h:0:9
	mov	x22, #0
	add	x23, x19, #128
Lloh18:
	adrp	x20, l_.str.3@PAGE
Lloh19:
	add	x20, x20, l_.str.3@PAGEOFF
Lloh20:
	adrp	x21, l_.str.4@PAGE
Lloh21:
	add	x21, x21, l_.str.4@PAGEOFF
	b	LBB0_10
Ltmp24:
LBB0_9:                                 ;   in Loop: Header=BB0_10 Depth=1
	;DEBUG_VALUE: i <- 2
	;DEBUG_VALUE: print_amx_state:state <- $x19
	;DEBUG_VALUE: j <- $x22
	.loc	1 12 9 is_stmt 1                ; ./tp_utils.h:12:9
	cmp	x22, #64
	b.eq	LBB0_12
Ltmp25:
LBB0_10:                                ; =>This Inner Loop Header: Depth=1
	;DEBUG_VALUE: i <- 2
	;DEBUG_VALUE: print_amx_state:state <- $x19
	;DEBUG_VALUE: j <- $x22
	.loc	1 13 29                         ; ./tp_utils.h:13:29
	ldrb	w8, [x23, x22]
	.loc	1 13 13 is_stmt 0               ; ./tp_utils.h:13:13
	str	x8, [sp]
	mov	x0, x20
	bl	_printf
Ltmp26:
	.loc	1 14 20 is_stmt 1               ; ./tp_utils.h:14:20
	add	x22, x22, #1
Ltmp27:
	.loc	1 14 30 is_stmt 0               ; ./tp_utils.h:14:30
	tst	x22, #0xf
Ltmp28:
	.loc	1 14 17                         ; ./tp_utils.h:14:17
	b.ne	LBB0_9
Ltmp29:
; %bb.11:                               ;   in Loop: Header=BB0_10 Depth=1
	;DEBUG_VALUE: i <- 2
	;DEBUG_VALUE: print_amx_state:state <- $x19
	.loc	1 14 36                         ; ./tp_utils.h:14:36
	mov	x0, x21
	bl	_printf
Ltmp30:
	.loc	1 0 36                          ; ./tp_utils.h:0:36
	b	LBB0_9
Ltmp31:
LBB0_12:
	;DEBUG_VALUE: i <- 2
	;DEBUG_VALUE: print_amx_state:state <- $x19
	.loc	1 16 9 is_stmt 1                ; ./tp_utils.h:16:9
	mov	w0, #10
	bl	_putchar
Ltmp32:
	;DEBUG_VALUE: i <- 3
	.loc	1 0 9 is_stmt 0                 ; ./tp_utils.h:0:9
	mov	w8, #3
	.loc	1 11 9 is_stmt 1                ; ./tp_utils.h:11:9
	str	x8, [sp]
Lloh22:
	adrp	x0, l_.str.2@PAGE
Lloh23:
	add	x0, x0, l_.str.2@PAGEOFF
	bl	_printf
Ltmp33:
	;DEBUG_VALUE: j <- 0
	.loc	1 0 9 is_stmt 0                 ; ./tp_utils.h:0:9
	mov	x22, #0
	add	x23, x19, #192
Lloh24:
	adrp	x20, l_.str.3@PAGE
Lloh25:
	add	x20, x20, l_.str.3@PAGEOFF
Lloh26:
	adrp	x21, l_.str.4@PAGE
Lloh27:
	add	x21, x21, l_.str.4@PAGEOFF
	b	LBB0_14
Ltmp34:
LBB0_13:                                ;   in Loop: Header=BB0_14 Depth=1
	;DEBUG_VALUE: i <- 3
	;DEBUG_VALUE: print_amx_state:state <- $x19
	;DEBUG_VALUE: j <- $x22
	.loc	1 12 9 is_stmt 1                ; ./tp_utils.h:12:9
	cmp	x22, #64
	b.eq	LBB0_16
Ltmp35:
LBB0_14:                                ; =>This Inner Loop Header: Depth=1
	;DEBUG_VALUE: i <- 3
	;DEBUG_VALUE: print_amx_state:state <- $x19
	;DEBUG_VALUE: j <- $x22
	.loc	1 13 29                         ; ./tp_utils.h:13:29
	ldrb	w8, [x23, x22]
	.loc	1 13 13 is_stmt 0               ; ./tp_utils.h:13:13
	str	x8, [sp]
	mov	x0, x20
	bl	_printf
Ltmp36:
	.loc	1 14 20 is_stmt 1               ; ./tp_utils.h:14:20
	add	x22, x22, #1
Ltmp37:
	.loc	1 14 30 is_stmt 0               ; ./tp_utils.h:14:30
	tst	x22, #0xf
Ltmp38:
	.loc	1 14 17                         ; ./tp_utils.h:14:17
	b.ne	LBB0_13
Ltmp39:
; %bb.15:                               ;   in Loop: Header=BB0_14 Depth=1
	;DEBUG_VALUE: i <- 3
	;DEBUG_VALUE: print_amx_state:state <- $x19
	.loc	1 14 36                         ; ./tp_utils.h:14:36
	mov	x0, x21
	bl	_printf
Ltmp40:
	.loc	1 0 36                          ; ./tp_utils.h:0:36
	b	LBB0_13
Ltmp41:
LBB0_16:
	;DEBUG_VALUE: i <- 3
	;DEBUG_VALUE: print_amx_state:state <- $x19
	.loc	1 16 9 is_stmt 1                ; ./tp_utils.h:16:9
	mov	w0, #10
	bl	_putchar
Ltmp42:
	;DEBUG_VALUE: i <- 4
	.loc	1 0 9 is_stmt 0                 ; ./tp_utils.h:0:9
	mov	w8, #4
	.loc	1 11 9 is_stmt 1                ; ./tp_utils.h:11:9
	str	x8, [sp]
Lloh28:
	adrp	x0, l_.str.2@PAGE
Lloh29:
	add	x0, x0, l_.str.2@PAGEOFF
	bl	_printf
Ltmp43:
	;DEBUG_VALUE: j <- 0
	.loc	1 0 9 is_stmt 0                 ; ./tp_utils.h:0:9
	mov	x22, #0
	add	x23, x19, #256
Lloh30:
	adrp	x20, l_.str.3@PAGE
Lloh31:
	add	x20, x20, l_.str.3@PAGEOFF
Lloh32:
	adrp	x21, l_.str.4@PAGE
Lloh33:
	add	x21, x21, l_.str.4@PAGEOFF
	b	LBB0_18
Ltmp44:
LBB0_17:                                ;   in Loop: Header=BB0_18 Depth=1
	;DEBUG_VALUE: i <- 4
	;DEBUG_VALUE: print_amx_state:state <- $x19
	;DEBUG_VALUE: j <- $x22
	.loc	1 12 9 is_stmt 1                ; ./tp_utils.h:12:9
	cmp	x22, #64
	b.eq	LBB0_20
Ltmp45:
LBB0_18:                                ; =>This Inner Loop Header: Depth=1
	;DEBUG_VALUE: i <- 4
	;DEBUG_VALUE: print_amx_state:state <- $x19
	;DEBUG_VALUE: j <- $x22
	.loc	1 13 29                         ; ./tp_utils.h:13:29
	ldrb	w8, [x23, x22]
	.loc	1 13 13 is_stmt 0               ; ./tp_utils.h:13:13
	str	x8, [sp]
	mov	x0, x20
	bl	_printf
Ltmp46:
	.loc	1 14 20 is_stmt 1               ; ./tp_utils.h:14:20
	add	x22, x22, #1
Ltmp47:
	.loc	1 14 30 is_stmt 0               ; ./tp_utils.h:14:30
	tst	x22, #0xf
Ltmp48:
	.loc	1 14 17                         ; ./tp_utils.h:14:17
	b.ne	LBB0_17
Ltmp49:
; %bb.19:                               ;   in Loop: Header=BB0_18 Depth=1
	;DEBUG_VALUE: i <- 4
	;DEBUG_VALUE: print_amx_state:state <- $x19
	.loc	1 14 36                         ; ./tp_utils.h:14:36
	mov	x0, x21
	bl	_printf
Ltmp50:
	.loc	1 0 36                          ; ./tp_utils.h:0:36
	b	LBB0_17
Ltmp51:
LBB0_20:
	;DEBUG_VALUE: i <- 4
	;DEBUG_VALUE: print_amx_state:state <- $x19
	.loc	1 16 9 is_stmt 1                ; ./tp_utils.h:16:9
	mov	w0, #10
	bl	_putchar
Ltmp52:
	;DEBUG_VALUE: i <- 5
	.loc	1 0 9 is_stmt 0                 ; ./tp_utils.h:0:9
	mov	w8, #5
	.loc	1 11 9 is_stmt 1                ; ./tp_utils.h:11:9
	str	x8, [sp]
Lloh34:
	adrp	x0, l_.str.2@PAGE
Lloh35:
	add	x0, x0, l_.str.2@PAGEOFF
	bl	_printf
Ltmp53:
	;DEBUG_VALUE: j <- 0
	.loc	1 0 9 is_stmt 0                 ; ./tp_utils.h:0:9
	mov	x22, #0
	add	x23, x19, #320
Lloh36:
	adrp	x20, l_.str.3@PAGE
Lloh37:
	add	x20, x20, l_.str.3@PAGEOFF
Lloh38:
	adrp	x21, l_.str.4@PAGE
Lloh39:
	add	x21, x21, l_.str.4@PAGEOFF
	b	LBB0_22
Ltmp54:
LBB0_21:                                ;   in Loop: Header=BB0_22 Depth=1
	;DEBUG_VALUE: i <- 5
	;DEBUG_VALUE: print_amx_state:state <- $x19
	;DEBUG_VALUE: j <- $x22
	.loc	1 12 9 is_stmt 1                ; ./tp_utils.h:12:9
	cmp	x22, #64
	b.eq	LBB0_24
Ltmp55:
LBB0_22:                                ; =>This Inner Loop Header: Depth=1
	;DEBUG_VALUE: i <- 5
	;DEBUG_VALUE: print_amx_state:state <- $x19
	;DEBUG_VALUE: j <- $x22
	.loc	1 13 29                         ; ./tp_utils.h:13:29
	ldrb	w8, [x23, x22]
	.loc	1 13 13 is_stmt 0               ; ./tp_utils.h:13:13
	str	x8, [sp]
	mov	x0, x20
	bl	_printf
Ltmp56:
	.loc	1 14 20 is_stmt 1               ; ./tp_utils.h:14:20
	add	x22, x22, #1
Ltmp57:
	.loc	1 14 30 is_stmt 0               ; ./tp_utils.h:14:30
	tst	x22, #0xf
Ltmp58:
	.loc	1 14 17                         ; ./tp_utils.h:14:17
	b.ne	LBB0_21
Ltmp59:
; %bb.23:                               ;   in Loop: Header=BB0_22 Depth=1
	;DEBUG_VALUE: i <- 5
	;DEBUG_VALUE: print_amx_state:state <- $x19
	.loc	1 14 36                         ; ./tp_utils.h:14:36
	mov	x0, x21
	bl	_printf
Ltmp60:
	.loc	1 0 36                          ; ./tp_utils.h:0:36
	b	LBB0_21
Ltmp61:
LBB0_24:
	;DEBUG_VALUE: i <- 5
	;DEBUG_VALUE: print_amx_state:state <- $x19
	.loc	1 16 9 is_stmt 1                ; ./tp_utils.h:16:9
	mov	w0, #10
	bl	_putchar
Ltmp62:
	;DEBUG_VALUE: i <- 6
	.loc	1 0 9 is_stmt 0                 ; ./tp_utils.h:0:9
	mov	w8, #6
	.loc	1 11 9 is_stmt 1                ; ./tp_utils.h:11:9
	str	x8, [sp]
Lloh40:
	adrp	x0, l_.str.2@PAGE
Lloh41:
	add	x0, x0, l_.str.2@PAGEOFF
	bl	_printf
Ltmp63:
	;DEBUG_VALUE: j <- 0
	.loc	1 0 9 is_stmt 0                 ; ./tp_utils.h:0:9
	mov	x22, #0
	add	x23, x19, #384
Lloh42:
	adrp	x20, l_.str.3@PAGE
Lloh43:
	add	x20, x20, l_.str.3@PAGEOFF
Lloh44:
	adrp	x21, l_.str.4@PAGE
Lloh45:
	add	x21, x21, l_.str.4@PAGEOFF
	b	LBB0_26
Ltmp64:
LBB0_25:                                ;   in Loop: Header=BB0_26 Depth=1
	;DEBUG_VALUE: i <- 6
	;DEBUG_VALUE: print_amx_state:state <- $x19
	;DEBUG_VALUE: j <- $x22
	.loc	1 12 9 is_stmt 1                ; ./tp_utils.h:12:9
	cmp	x22, #64
	b.eq	LBB0_28
Ltmp65:
LBB0_26:                                ; =>This Inner Loop Header: Depth=1
	;DEBUG_VALUE: i <- 6
	;DEBUG_VALUE: print_amx_state:state <- $x19
	;DEBUG_VALUE: j <- $x22
	.loc	1 13 29                         ; ./tp_utils.h:13:29
	ldrb	w8, [x23, x22]
	.loc	1 13 13 is_stmt 0               ; ./tp_utils.h:13:13
	str	x8, [sp]
	mov	x0, x20
	bl	_printf
Ltmp66:
	.loc	1 14 20 is_stmt 1               ; ./tp_utils.h:14:20
	add	x22, x22, #1
Ltmp67:
	.loc	1 14 30 is_stmt 0               ; ./tp_utils.h:14:30
	tst	x22, #0xf
Ltmp68:
	.loc	1 14 17                         ; ./tp_utils.h:14:17
	b.ne	LBB0_25
Ltmp69:
; %bb.27:                               ;   in Loop: Header=BB0_26 Depth=1
	;DEBUG_VALUE: i <- 6
	;DEBUG_VALUE: print_amx_state:state <- $x19
	.loc	1 14 36                         ; ./tp_utils.h:14:36
	mov	x0, x21
	bl	_printf
Ltmp70:
	.loc	1 0 36                          ; ./tp_utils.h:0:36
	b	LBB0_25
Ltmp71:
LBB0_28:
	;DEBUG_VALUE: i <- 6
	;DEBUG_VALUE: print_amx_state:state <- $x19
	.loc	1 16 9 is_stmt 1                ; ./tp_utils.h:16:9
	mov	w0, #10
	bl	_putchar
Ltmp72:
	;DEBUG_VALUE: i <- 7
	.loc	1 0 9 is_stmt 0                 ; ./tp_utils.h:0:9
	mov	w8, #7
	.loc	1 11 9 is_stmt 1                ; ./tp_utils.h:11:9
	str	x8, [sp]
Lloh46:
	adrp	x0, l_.str.2@PAGE
Lloh47:
	add	x0, x0, l_.str.2@PAGEOFF
	bl	_printf
Ltmp73:
	;DEBUG_VALUE: j <- 0
	.loc	1 0 9 is_stmt 0                 ; ./tp_utils.h:0:9
	mov	x22, #0
	add	x23, x19, #448
Lloh48:
	adrp	x20, l_.str.3@PAGE
Lloh49:
	add	x20, x20, l_.str.3@PAGEOFF
Lloh50:
	adrp	x21, l_.str.4@PAGE
Lloh51:
	add	x21, x21, l_.str.4@PAGEOFF
	b	LBB0_30
Ltmp74:
LBB0_29:                                ;   in Loop: Header=BB0_30 Depth=1
	;DEBUG_VALUE: i <- 7
	;DEBUG_VALUE: print_amx_state:state <- $x19
	;DEBUG_VALUE: j <- $x22
	.loc	1 12 9 is_stmt 1                ; ./tp_utils.h:12:9
	cmp	x22, #64
	b.eq	LBB0_32
Ltmp75:
LBB0_30:                                ; =>This Inner Loop Header: Depth=1
	;DEBUG_VALUE: i <- 7
	;DEBUG_VALUE: print_amx_state:state <- $x19
	;DEBUG_VALUE: j <- $x22
	.loc	1 13 29                         ; ./tp_utils.h:13:29
	ldrb	w8, [x23, x22]
	.loc	1 13 13 is_stmt 0               ; ./tp_utils.h:13:13
	str	x8, [sp]
	mov	x0, x20
	bl	_printf
Ltmp76:
	.loc	1 14 20 is_stmt 1               ; ./tp_utils.h:14:20
	add	x22, x22, #1
Ltmp77:
	.loc	1 14 30 is_stmt 0               ; ./tp_utils.h:14:30
	tst	x22, #0xf
Ltmp78:
	.loc	1 14 17                         ; ./tp_utils.h:14:17
	b.ne	LBB0_29
Ltmp79:
; %bb.31:                               ;   in Loop: Header=BB0_30 Depth=1
	;DEBUG_VALUE: i <- 7
	;DEBUG_VALUE: print_amx_state:state <- $x19
	.loc	1 14 36                         ; ./tp_utils.h:14:36
	mov	x0, x21
	bl	_printf
Ltmp80:
	.loc	1 0 36                          ; ./tp_utils.h:0:36
	b	LBB0_29
Ltmp81:
LBB0_32:
	;DEBUG_VALUE: i <- 7
	;DEBUG_VALUE: print_amx_state:state <- $x19
	.loc	1 16 9 is_stmt 1                ; ./tp_utils.h:16:9
	mov	w0, #10
	bl	_putchar
Ltmp82:
	;DEBUG_VALUE: i <- 8
	.loc	1 20 5                          ; ./tp_utils.h:20:5
Lloh52:
	adrp	x0, l_str.15@PAGE
Lloh53:
	add	x0, x0, l_str.15@PAGEOFF
	bl	_puts
Ltmp83:
	;DEBUG_VALUE: i <- 0
	.loc	1 0 5 is_stmt 0                 ; ./tp_utils.h:0:5
	mov	x23, #0
Ltmp84:
	.loc	1 21 5 is_stmt 1                ; ./tp_utils.h:21:5
	add	x24, x19, #512
Lloh54:
	adrp	x20, l_.str.7@PAGE
Lloh55:
	add	x20, x20, l_.str.7@PAGEOFF
Lloh56:
	adrp	x21, l_.str.3@PAGE
Lloh57:
	add	x21, x21, l_.str.3@PAGEOFF
Lloh58:
	adrp	x22, l_.str.4@PAGE
Lloh59:
	add	x22, x22, l_.str.4@PAGEOFF
	b	LBB0_34
Ltmp85:
LBB0_33:                                ;   in Loop: Header=BB0_34 Depth=1
	;DEBUG_VALUE: i <- $x23
	;DEBUG_VALUE: print_amx_state:state <- $x19
	.loc	1 27 9                          ; ./tp_utils.h:27:9
	mov	w0, #10
	bl	_putchar
Ltmp86:
	.loc	1 21 29                         ; ./tp_utils.h:21:29
	add	x23, x23, #1
Ltmp87:
	;DEBUG_VALUE: i <- $x23
	.loc	1 21 5 is_stmt 0                ; ./tp_utils.h:21:5
	add	x24, x24, #64
	cmp	x23, #8
	b.eq	LBB0_38
Ltmp88:
LBB0_34:                                ; =>This Loop Header: Depth=1
                                        ;     Child Loop BB0_36 Depth 2
	;DEBUG_VALUE: print_amx_state:state <- $x19
	;DEBUG_VALUE: i <- $x23
	.loc	1 22 9 is_stmt 1                ; ./tp_utils.h:22:9
	str	x23, [sp]
	mov	x0, x20
	bl	_printf
Ltmp89:
	;DEBUG_VALUE: j <- 0
	.loc	1 0 9 is_stmt 0                 ; ./tp_utils.h:0:9
	mov	x25, #0
	b	LBB0_36
Ltmp90:
LBB0_35:                                ;   in Loop: Header=BB0_36 Depth=2
	;DEBUG_VALUE: i <- $x23
	;DEBUG_VALUE: print_amx_state:state <- $x19
	;DEBUG_VALUE: j <- $x25
	.loc	1 23 9 is_stmt 1                ; ./tp_utils.h:23:9
	cmp	x25, #64
	b.eq	LBB0_33
Ltmp91:
LBB0_36:                                ;   Parent Loop BB0_34 Depth=1
                                        ; =>  This Inner Loop Header: Depth=2
	;DEBUG_VALUE: i <- $x23
	;DEBUG_VALUE: print_amx_state:state <- $x19
	;DEBUG_VALUE: j <- $x25
	.loc	1 24 29                         ; ./tp_utils.h:24:29
	ldrb	w8, [x24, x25]
	.loc	1 24 13 is_stmt 0               ; ./tp_utils.h:24:13
	str	x8, [sp]
	mov	x0, x21
	bl	_printf
Ltmp92:
	.loc	1 25 20 is_stmt 1               ; ./tp_utils.h:25:20
	add	x25, x25, #1
Ltmp93:
	.loc	1 25 30 is_stmt 0               ; ./tp_utils.h:25:30
	tst	x25, #0xf
Ltmp94:
	.loc	1 25 17                         ; ./tp_utils.h:25:17
	b.ne	LBB0_35
Ltmp95:
; %bb.37:                               ;   in Loop: Header=BB0_36 Depth=2
	;DEBUG_VALUE: i <- $x23
	;DEBUG_VALUE: print_amx_state:state <- $x19
	.loc	1 25 36                         ; ./tp_utils.h:25:36
	mov	x0, x22
	bl	_printf
Ltmp96:
	.loc	1 0 36                          ; ./tp_utils.h:0:36
	b	LBB0_35
Ltmp97:
LBB0_38:
	;DEBUG_VALUE: print_amx_state:state <- $x19
	.loc	1 31 5 is_stmt 1                ; ./tp_utils.h:31:5
Lloh60:
	adrp	x0, l_str.16@PAGE
Lloh61:
	add	x0, x0, l_str.16@PAGEOFF
	bl	_puts
Ltmp98:
	;DEBUG_VALUE: i <- 0
	.loc	1 0 5 is_stmt 0                 ; ./tp_utils.h:0:5
	mov	x22, #0
Ltmp99:
	.loc	1 32 5 is_stmt 1                ; ./tp_utils.h:32:5
	add	x23, x19, #1024
Lloh62:
	adrp	x19, l_.str.9@PAGE
Ltmp100:
	;DEBUG_VALUE: print_amx_state:state <- [DW_OP_LLVM_entry_value 1] $x0
	.loc	1 0 5 is_stmt 0                 ; ./tp_utils.h:0:5
Lloh63:
	add	x19, x19, l_.str.9@PAGEOFF
Lloh64:
	adrp	x20, l_.str.3@PAGE
Lloh65:
	add	x20, x20, l_.str.3@PAGEOFF
Lloh66:
	adrp	x21, l_.str.4@PAGE
Lloh67:
	add	x21, x21, l_.str.4@PAGEOFF
	b	LBB0_40
Ltmp101:
LBB0_39:                                ;   in Loop: Header=BB0_40 Depth=1
	;DEBUG_VALUE: i <- $x22
	;DEBUG_VALUE: print_amx_state:state <- [DW_OP_LLVM_entry_value 1] $x0
	.loc	1 38 9 is_stmt 1                ; ./tp_utils.h:38:9
	mov	w0, #10
	bl	_putchar
Ltmp102:
	.loc	1 32 30                         ; ./tp_utils.h:32:30
	add	x22, x22, #1
Ltmp103:
	;DEBUG_VALUE: i <- $x22
	.loc	1 32 5 is_stmt 0                ; ./tp_utils.h:32:5
	add	x23, x23, #64
	cmp	x22, #64
	b.eq	LBB0_44
Ltmp104:
LBB0_40:                                ; =>This Loop Header: Depth=1
                                        ;     Child Loop BB0_42 Depth 2
	;DEBUG_VALUE: print_amx_state:state <- [DW_OP_LLVM_entry_value 1] $x0
	;DEBUG_VALUE: i <- $x22
	.loc	1 33 9 is_stmt 1                ; ./tp_utils.h:33:9
	str	x22, [sp]
	mov	x0, x19
	bl	_printf
Ltmp105:
	;DEBUG_VALUE: j <- 0
	.loc	1 0 9 is_stmt 0                 ; ./tp_utils.h:0:9
	mov	x24, #0
	b	LBB0_42
Ltmp106:
LBB0_41:                                ;   in Loop: Header=BB0_42 Depth=2
	;DEBUG_VALUE: i <- $x22
	;DEBUG_VALUE: print_amx_state:state <- [DW_OP_LLVM_entry_value 1] $x0
	;DEBUG_VALUE: j <- $x24
	.loc	1 34 9 is_stmt 1                ; ./tp_utils.h:34:9
	cmp	x24, #64
	b.eq	LBB0_39
Ltmp107:
LBB0_42:                                ;   Parent Loop BB0_40 Depth=1
                                        ; =>  This Inner Loop Header: Depth=2
	;DEBUG_VALUE: i <- $x22
	;DEBUG_VALUE: print_amx_state:state <- [DW_OP_LLVM_entry_value 1] $x0
	;DEBUG_VALUE: j <- $x24
	.loc	1 35 29                         ; ./tp_utils.h:35:29
	ldrb	w8, [x23, x24]
	.loc	1 35 13 is_stmt 0               ; ./tp_utils.h:35:13
	str	x8, [sp]
	mov	x0, x20
	bl	_printf
Ltmp108:
	.loc	1 36 20 is_stmt 1               ; ./tp_utils.h:36:20
	add	x24, x24, #1
Ltmp109:
	.loc	1 36 30 is_stmt 0               ; ./tp_utils.h:36:30
	tst	x24, #0xf
Ltmp110:
	.loc	1 36 17                         ; ./tp_utils.h:36:17
	b.ne	LBB0_41
Ltmp111:
; %bb.43:                               ;   in Loop: Header=BB0_42 Depth=2
	;DEBUG_VALUE: i <- $x22
	;DEBUG_VALUE: print_amx_state:state <- [DW_OP_LLVM_entry_value 1] $x0
	.loc	1 36 36                         ; ./tp_utils.h:36:36
	mov	x0, x21
	bl	_printf
Ltmp112:
	.loc	1 0 36                          ; ./tp_utils.h:0:36
	b	LBB0_41
Ltmp113:
LBB0_44:
	;DEBUG_VALUE: print_amx_state:state <- [DW_OP_LLVM_entry_value 1] $x0
	.loc	1 40 1 is_stmt 1                ; ./tp_utils.h:40:1
	ldp	x29, x30, [sp, #80]             ; 16-byte Folded Reload
	ldp	x20, x19, [sp, #64]             ; 16-byte Folded Reload
	ldp	x22, x21, [sp, #48]             ; 16-byte Folded Reload
	ldp	x24, x23, [sp, #32]             ; 16-byte Folded Reload
	ldp	x26, x25, [sp, #16]             ; 16-byte Folded Reload
	add	sp, sp, #96
	ret
Ltmp114:
	.loh AdrpAdd	Lloh8, Lloh9
	.loh AdrpAdd	Lloh6, Lloh7
	.loh AdrpAdd	Lloh4, Lloh5
	.loh AdrpAdd	Lloh2, Lloh3
	.loh AdrpAdd	Lloh0, Lloh1
	.loh AdrpAdd	Lloh14, Lloh15
	.loh AdrpAdd	Lloh12, Lloh13
	.loh AdrpAdd	Lloh10, Lloh11
	.loh AdrpAdd	Lloh20, Lloh21
	.loh AdrpAdd	Lloh18, Lloh19
	.loh AdrpAdd	Lloh16, Lloh17
	.loh AdrpAdd	Lloh26, Lloh27
	.loh AdrpAdd	Lloh24, Lloh25
	.loh AdrpAdd	Lloh22, Lloh23
	.loh AdrpAdd	Lloh32, Lloh33
	.loh AdrpAdd	Lloh30, Lloh31
	.loh AdrpAdd	Lloh28, Lloh29
	.loh AdrpAdd	Lloh38, Lloh39
	.loh AdrpAdd	Lloh36, Lloh37
	.loh AdrpAdd	Lloh34, Lloh35
	.loh AdrpAdd	Lloh44, Lloh45
	.loh AdrpAdd	Lloh42, Lloh43
	.loh AdrpAdd	Lloh40, Lloh41
	.loh AdrpAdd	Lloh50, Lloh51
	.loh AdrpAdd	Lloh48, Lloh49
	.loh AdrpAdd	Lloh46, Lloh47
	.loh AdrpAdd	Lloh58, Lloh59
	.loh AdrpAdd	Lloh56, Lloh57
	.loh AdrpAdd	Lloh54, Lloh55
	.loh AdrpAdd	Lloh52, Lloh53
	.loh AdrpAdd	Lloh66, Lloh67
	.loh AdrpAdd	Lloh64, Lloh65
	.loh AdrpAdd	Lloh62, Lloh63
	.loh AdrpAdd	Lloh60, Lloh61
Lfunc_end0:
	.cfi_endproc
                                        ; -- End function
	.globl	_print_matrix                   ; -- Begin function print_matrix
	.p2align	2
_print_matrix:                          ; @print_matrix
Lfunc_begin1:
	.loc	1 42 0                          ; ./tp_utils.h:42:0
	.cfi_startproc
; %bb.0:
	;DEBUG_VALUE: print_matrix:original_matrix <- $x0
	sub	sp, sp, #80
	.cfi_def_cfa_offset 80
	stp	x24, x23, [sp, #16]             ; 16-byte Folded Spill
	stp	x22, x21, [sp, #32]             ; 16-byte Folded Spill
	stp	x20, x19, [sp, #48]             ; 16-byte Folded Spill
	stp	x29, x30, [sp, #64]             ; 16-byte Folded Spill
	add	x29, sp, #64
	.cfi_def_cfa w29, 16
	.cfi_offset w30, -8
	.cfi_offset w29, -16
	.cfi_offset w19, -24
	.cfi_offset w20, -32
	.cfi_offset w21, -40
	.cfi_offset w22, -48
	.cfi_offset w23, -56
	.cfi_offset w24, -64
	mov	x19, x0
	;DEBUG_VALUE: i <- 0
Ltmp115:
	;DEBUG_VALUE: print_matrix:original_matrix <- $x19
	mov	x23, #0
Lloh68:
	adrp	x20, l_.str.10@PAGE
Lloh69:
	add	x20, x20, l_.str.10@PAGEOFF
Lloh70:
	adrp	x21, l_.str.3@PAGE
Lloh71:
	add	x21, x21, l_.str.3@PAGEOFF
Lloh72:
	adrp	x22, l_.str.4@PAGE
Lloh73:
	add	x22, x22, l_.str.4@PAGEOFF
	b	LBB1_2
Ltmp116:
LBB1_1:                                 ;   in Loop: Header=BB1_2 Depth=1
	;DEBUG_VALUE: i <- $x23
	.loc	1 49 9 prologue_end             ; ./tp_utils.h:49:9
	mov	w0, #10
	bl	_putchar
Ltmp117:
	.loc	1 43 30                         ; ./tp_utils.h:43:30
	add	x23, x23, #1
Ltmp118:
	;DEBUG_VALUE: i <- $x23
	.loc	1 43 5 is_stmt 0                ; ./tp_utils.h:43:5
	add	x19, x19, #64
Ltmp119:
	;DEBUG_VALUE: print_matrix:original_matrix <- [DW_OP_LLVM_entry_value 1] $x0
	cmp	x23, #64
	b.eq	LBB1_6
Ltmp120:
LBB1_2:                                 ; =>This Loop Header: Depth=1
                                        ;     Child Loop BB1_4 Depth 2
	;DEBUG_VALUE: i <- $x23
	.loc	1 44 9 is_stmt 1                ; ./tp_utils.h:44:9
	str	x23, [sp]
	mov	x0, x20
	bl	_printf
Ltmp121:
	;DEBUG_VALUE: j <- 0
	.loc	1 0 9 is_stmt 0                 ; ./tp_utils.h:0:9
	mov	x24, #0
	b	LBB1_4
Ltmp122:
LBB1_3:                                 ;   in Loop: Header=BB1_4 Depth=2
	;DEBUG_VALUE: i <- $x23
	;DEBUG_VALUE: j <- $x24
	.loc	1 45 9 is_stmt 1                ; ./tp_utils.h:45:9
	cmp	x24, #64
	b.eq	LBB1_1
Ltmp123:
LBB1_4:                                 ;   Parent Loop BB1_2 Depth=1
                                        ; =>  This Inner Loop Header: Depth=2
	;DEBUG_VALUE: i <- $x23
	;DEBUG_VALUE: j <- $x24
	.loc	1 46 29                         ; ./tp_utils.h:46:29
	ldrb	w8, [x19, x24]
	.loc	1 46 13 is_stmt 0               ; ./tp_utils.h:46:13
	str	x8, [sp]
	mov	x0, x21
	bl	_printf
Ltmp124:
	.loc	1 47 20 is_stmt 1               ; ./tp_utils.h:47:20
	add	x24, x24, #1
Ltmp125:
	.loc	1 47 30 is_stmt 0               ; ./tp_utils.h:47:30
	tst	x24, #0xf
Ltmp126:
	.loc	1 47 17                         ; ./tp_utils.h:47:17
	b.ne	LBB1_3
Ltmp127:
; %bb.5:                                ;   in Loop: Header=BB1_4 Depth=2
	;DEBUG_VALUE: i <- $x23
	.loc	1 47 36                         ; ./tp_utils.h:47:36
	mov	x0, x22
	bl	_printf
Ltmp128:
	.loc	1 0 36                          ; ./tp_utils.h:0:36
	b	LBB1_3
Ltmp129:
LBB1_6:
	.loc	1 51 1 is_stmt 1                ; ./tp_utils.h:51:1
	ldp	x29, x30, [sp, #64]             ; 16-byte Folded Reload
	ldp	x20, x19, [sp, #48]             ; 16-byte Folded Reload
	ldp	x22, x21, [sp, #32]             ; 16-byte Folded Reload
	ldp	x24, x23, [sp, #16]             ; 16-byte Folded Reload
	add	sp, sp, #80
	ret
Ltmp130:
	.loh AdrpAdd	Lloh72, Lloh73
	.loh AdrpAdd	Lloh70, Lloh71
	.loh AdrpAdd	Lloh68, Lloh69
Lfunc_end1:
	.cfi_endproc
                                        ; -- End function
	.globl	_main                           ; -- Begin function main
	.p2align	2
_main:                                  ; @main
Lfunc_begin2:
	.loc	2 141 0                         ; transpose.c:141:0
	.cfi_startproc
; %bb.0:
	stp	x28, x27, [sp, #-64]!           ; 16-byte Folded Spill
	.cfi_def_cfa_offset 64
	stp	x22, x21, [sp, #16]             ; 16-byte Folded Spill
	stp	x20, x19, [sp, #32]             ; 16-byte Folded Spill
	stp	x29, x30, [sp, #48]             ; 16-byte Folded Spill
	add	x29, sp, #48
	.cfi_def_cfa w29, 16
	.cfi_offset w30, -8
	.cfi_offset w29, -16
	.cfi_offset w19, -24
	.cfi_offset w20, -32
	.cfi_offset w21, -40
	.cfi_offset w22, -48
	.cfi_offset w27, -56
	.cfi_offset w28, -64
	sub	x9, sp, #704
	and	sp, x9, #0xffffffffffffff00
Lloh74:
	adrp	x8, ___stack_chk_guard@GOTPAGE
Lloh75:
	ldr	x8, [x8, ___stack_chk_guard@GOTPAGEOFF]
Lloh76:
	ldr	x8, [x8]
	str	x8, [sp, #696]
	mov	w8, #2
Ltmp131:
	.loc	2 132 13 prologue_end           ; transpose.c:132:13
	strb	w8, [sp, #320]
	mov	w8, #1
	.loc	2 133 14                        ; transpose.c:133:14
	strb	w8, [sp, #384]
	.loc	2 134 5                         ; transpose.c:134:5
	; InlineAsm Start
	nop
	nop
	nop
	.long	2101792
	; InlineAsm End
	mov	x8, #8070450532247928832
	add	x9, sp, #256
	.loc	2 135 5                         ; transpose.c:135:5
	add	x8, x9, x8
	; InlineAsm Start
	.long	2101256
	; InlineAsm End
	mov	x8, #144115188075855872
	.loc	2 136 5                         ; transpose.c:136:5
	add	x8, x9, x8
	; InlineAsm Start
	.long	2101320
	; InlineAsm End
	.loc	2 137 5                         ; transpose.c:137:5
	; InlineAsm Start
	nop
	nop
	nop
	.long	2101793
	; InlineAsm End
	.loc	2 138 16                        ; transpose.c:138:16
	ldrb	w8, [sp, #256]
	.loc	2 138 14 is_stmt 0              ; transpose.c:138:14
	add	w8, w8, #1
Ltmp132:
	.loc	2 142 13 is_stmt 1              ; transpose.c:142:13
Lloh77:
	adrp	x9, _AMX_VER@GOTPAGE
Lloh78:
	ldr	x9, [x9, _AMX_VER@GOTPAGEOFF]
Lloh79:
	str	w8, [x9]
Ltmp133:
	.loc	2 118 5                         ; transpose.c:118:5
	; InlineAsm Start
	mrs	x22, FPCR
	; InlineAsm End
Ltmp134:
	;DEBUG_VALUE: main:old_fpcr <- $x22
	;DEBUG_VALUE: fpcr_init:old_fpcr <- $x22
	.loc	2 119 34                        ; transpose.c:119:34
	orr	x8, x22, #0x2000000
Ltmp135:
	;DEBUG_VALUE: fpcr_init:new_fpcr <- $x8
	.loc	2 120 5                         ; transpose.c:120:5
	; InlineAsm Start
	msr	FPCR, x8
	; InlineAsm End
Ltmp136:
	.loc	2 22 43                         ; transpose.c:22:43
	mov	w0, #128
	mov	w1, #4096
	bl	_aligned_alloc
Ltmp137:
	mov	x21, x0
Ltmp138:
	;DEBUG_VALUE: transpose:original_matrix <- $x21
	.loc	2 23 45                         ; transpose.c:23:45
	mov	w0, #128
	mov	w1, #4096
	bl	_aligned_alloc
Ltmp139:
	;DEBUG_VALUE: transpose:transposed_matrix <- $x0
	.loc	2 24 9                          ; transpose.c:24:9
	cbz	x21, LBB2_8
Ltmp140:
; %bb.1:
	;DEBUG_VALUE: transpose:transposed_matrix <- $x0
	;DEBUG_VALUE: transpose:original_matrix <- $x21
	;DEBUG_VALUE: fpcr_init:old_fpcr <- $x22
	;DEBUG_VALUE: main:old_fpcr <- $x22
	.loc	2 0 9 is_stmt 0                 ; transpose.c:0:9
	mov	x20, x0
Ltmp141:
	;DEBUG_VALUE: transpose:transposed_matrix <- $x20
	mov	x8, #0
	mov	x9, x21
Ltmp142:
LBB2_2:                                 ; =>This Inner Loop Header: Depth=1
	;DEBUG_VALUE: transpose:transposed_matrix <- $x20
	;DEBUG_VALUE: transpose:original_matrix <- $x21
	;DEBUG_VALUE: main:old_fpcr <- $x22
	;DEBUG_VALUE: i <- [DW_OP_LLVM_convert 64 7, DW_OP_LLVM_convert 32 7, DW_OP_stack_value] $x8
	;DEBUG_VALUE: j <- 0
	.loc	2 31 41 is_stmt 1               ; transpose.c:31:41
	dup.16b	v0, w8
	stp	q0, q0, [x9, #32]
	stp	q0, q0, [x9], #64
Ltmp143:
	;DEBUG_VALUE: j <- [DW_OP_plus_uconst 1, DW_OP_stack_value] undef
	.loc	2 29 5                          ; transpose.c:29:5
	add	x8, x8, #1
Ltmp144:
	;DEBUG_VALUE: i <- [DW_OP_LLVM_convert 64 7, DW_OP_LLVM_convert 32 7, DW_OP_stack_value] $x8
	cmp	x8, #64
	b.ne	LBB2_2
Ltmp145:
; %bb.3:
	;DEBUG_VALUE: transpose:transposed_matrix <- $x20
	;DEBUG_VALUE: transpose:original_matrix <- $x21
	;DEBUG_VALUE: main:old_fpcr <- $x22
	;DEBUG_VALUE: transpose:extrv_operand <- 67109888
	.loc	2 67 5                          ; transpose.c:67:5
	; InlineAsm Start
	nop
	nop
	nop
	.long	2101792
	; InlineAsm End
	.loc	2 78 13                         ; transpose.c:78:13
	bl	_clock
Ltmp146:
	mov	x19, x0
Ltmp147:
	;DEBUG_VALUE: transpose:start <- $x19
	.loc	2 0 13 is_stmt 0                ; transpose.c:0:13
	mov	x8, #4611686018427387904
Ltmp148:
	;DEBUG_VALUE: transpose:row <- 0
	.loc	2 81 5 is_stmt 1                ; transpose.c:81:5
	add	x8, x21, x8
	mov	x9, #-2
	mov	x10, #128
	movk	x10, #512, lsl #48
Ltmp149:
LBB2_4:                                 ; =>This Inner Loop Header: Depth=1
	;DEBUG_VALUE: transpose:start <- $x19
	;DEBUG_VALUE: transpose:extrv_operand <- 67109888
	;DEBUG_VALUE: transpose:transposed_matrix <- $x20
	;DEBUG_VALUE: transpose:original_matrix <- $x21
	;DEBUG_VALUE: main:old_fpcr <- $x22
	;DEBUG_VALUE: transpose:row <- [DW_OP_LLVM_arg 0, DW_OP_consts 4611686018427387904, DW_OP_LLVM_arg 0, DW_OP_LLVM_convert 64 7, DW_OP_plus, DW_OP_minus, DW_OP_consts 144115188075856000, DW_OP_div, DW_OP_consts 2, DW_OP_mul, DW_OP_stack_value] undef
	.loc	2 82 9                          ; transpose.c:82:9
	; InlineAsm Start
	.long	2101384
	; InlineAsm End
Ltmp150:
	;DEBUG_VALUE: transpose:row <- [DW_OP_LLVM_arg 0, DW_OP_consts 4611686018427387904, DW_OP_LLVM_arg 0, DW_OP_LLVM_convert 64 7, DW_OP_plus, DW_OP_minus, DW_OP_consts 144115188075856000, DW_OP_div, DW_OP_consts 2, DW_OP_mul, DW_OP_consts 2, DW_OP_plus, DW_OP_stack_value] undef
	.loc	2 81 16                         ; transpose.c:81:16
	add	x8, x8, x10
	add	x9, x9, #2
Ltmp151:
	.loc	2 81 5 is_stmt 0                ; transpose.c:81:5
	cmp	x9, #62
	b.lo	LBB2_4
Ltmp152:
; %bb.5:
	;DEBUG_VALUE: transpose:start <- $x19
	;DEBUG_VALUE: transpose:extrv_operand <- 67109888
	;DEBUG_VALUE: transpose:transposed_matrix <- $x20
	;DEBUG_VALUE: transpose:original_matrix <- $x21
	;DEBUG_VALUE: main:old_fpcr <- $x22
	.loc	2 0 5                           ; transpose.c:0:5
	mov	x8, #0
	mov	x9, #4611686018427387904
Ltmp153:
	.loc	2 86 5 is_stmt 1                ; transpose.c:86:5
	add	x9, x20, x9
	mov	x10, #-2
	mov	w12, #67109888
	mov	w11, #64
	movk	w11, #16, lsl #16
Ltmp154:
LBB2_6:                                 ; =>This Inner Loop Header: Depth=1
	;DEBUG_VALUE: transpose:start <- $x19
	;DEBUG_VALUE: transpose:transposed_matrix <- $x20
	;DEBUG_VALUE: transpose:original_matrix <- $x21
	;DEBUG_VALUE: main:old_fpcr <- $x22
	;DEBUG_VALUE: transpose:extrv_operand <- $x12
	;DEBUG_VALUE: transpose:col <- [DW_OP_plus_uconst 2, DW_OP_stack_value] $x10
	.loc	2 87 23                         ; transpose.c:87:23
	and	x12, x12, #0xfffffffffc0fffff
Ltmp155:
	;DEBUG_VALUE: transpose:extrv_operand <- $x12
	.loc	2 88 23                         ; transpose.c:88:23
	orr	x12, x12, x8
Ltmp156:
	;DEBUG_VALUE: transpose:extrv_operand <- [DW_OP_LLVM_arg 0, DW_OP_LLVM_arg 0, DW_OP_consts 18446744073709551614, DW_OP_minus, DW_OP_consts 2, DW_OP_div, DW_OP_consts 2097152, DW_OP_mul, DW_OP_or, DW_OP_stack_value] undef
	.loc	2 90 9                          ; transpose.c:90:9
	; InlineAsm Start
	.long	2101548
	; InlineAsm End
Ltmp157:
	;DEBUG_VALUE: transpose:extrv_operand <- undef
	.loc	2 94 23                         ; transpose.c:94:23
	orr	x12, x12, x11
Ltmp158:
	;DEBUG_VALUE: transpose:extrv_operand <- $x12
	.loc	2 95 9                          ; transpose.c:95:9
	; InlineAsm Start
	.long	2101548
	; InlineAsm End
	.loc	2 96 9                          ; transpose.c:96:9
	; InlineAsm Start
	.long	2101353
	; InlineAsm End
Ltmp159:
	;DEBUG_VALUE: transpose:col <- [DW_OP_plus_uconst 4, DW_OP_stack_value] $x10
	.loc	2 86 16                         ; transpose.c:86:16
	add	x10, x10, #2
Ltmp160:
	add	x9, x9, #128
	add	x8, x8, #512, lsl #12           ; =2097152
Ltmp161:
	.loc	2 86 5 is_stmt 0                ; transpose.c:86:5
	cmp	x10, #62
	b.lo	LBB2_6
Ltmp162:
; %bb.7:
	;DEBUG_VALUE: transpose:extrv_operand <- $x12
	;DEBUG_VALUE: transpose:start <- $x19
	;DEBUG_VALUE: transpose:transposed_matrix <- $x20
	;DEBUG_VALUE: transpose:original_matrix <- $x21
	;DEBUG_VALUE: main:old_fpcr <- $x22
	.loc	2 99 11 is_stmt 1               ; transpose.c:99:11
	bl	_clock
Ltmp163:
	;DEBUG_VALUE: transpose:end <- $x0
	.loc	2 100 36                        ; transpose.c:100:36
	sub	x8, x0, x19
	.loc	2 100 22 is_stmt 0              ; transpose.c:100:22
	ucvtf	d0, x8
	mov	x8, #145685290680320
	movk	x8, #16686, lsl #48
	fmov	d1, x8
	.loc	2 100 46                        ; transpose.c:100:46
	fdiv	d0, d0, d1
Ltmp164:
	;DEBUG_VALUE: transpose:cpu_time_used <- $d0
	.loc	2 101 5 is_stmt 1               ; transpose.c:101:5
	str	d0, [sp]
Lloh80:
	adrp	x0, l_.str.13@PAGE
Ltmp165:
Lloh81:
	add	x0, x0, l_.str.13@PAGEOFF
	bl	_printf
Ltmp166:
	.loc	2 0 5 is_stmt 0                 ; transpose.c:0:5
	b	LBB2_9
Ltmp167:
LBB2_8:
	;DEBUG_VALUE: transpose:transposed_matrix <- $x0
	;DEBUG_VALUE: transpose:original_matrix <- $x21
	;DEBUG_VALUE: main:old_fpcr <- $x22
	.loc	2 25 17 is_stmt 1               ; transpose.c:25:17
Lloh82:
	adrp	x8, ___stderrp@GOTPAGE
Lloh83:
	ldr	x8, [x8, ___stderrp@GOTPAGEOFF]
Lloh84:
	ldr	x3, [x8]
	.loc	2 25 9 is_stmt 0                ; transpose.c:25:9
Lloh85:
	adrp	x0, l_.str.12@PAGE
Ltmp168:
Lloh86:
	add	x0, x0, l_.str.12@PAGEOFF
	mov	w1, #25
	mov	w2, #1
	bl	_fwrite
Ltmp169:
LBB2_9:
	;DEBUG_VALUE: main:old_fpcr <- $x22
	;DEBUG_VALUE: fpcr_restore:fpcr <- $x22
	.loc	2 125 5 is_stmt 1               ; transpose.c:125:5
	; InlineAsm Start
	msr	FPCR, x22
	; InlineAsm End
	ldr	x8, [sp, #696]
Lloh87:
	adrp	x9, ___stack_chk_guard@GOTPAGE
Lloh88:
	ldr	x9, [x9, ___stack_chk_guard@GOTPAGEOFF]
Lloh89:
	ldr	x9, [x9]
	cmp	x9, x8
	b.ne	LBB2_11
Ltmp170:
; %bb.10:
	;DEBUG_VALUE: main:old_fpcr <- $x22
	.loc	2 146 5                         ; transpose.c:146:5
	mov	w0, #0
	sub	sp, x29, #48
	ldp	x29, x30, [sp, #48]             ; 16-byte Folded Reload
	ldp	x20, x19, [sp, #32]             ; 16-byte Folded Reload
	ldp	x22, x21, [sp, #16]             ; 16-byte Folded Reload
Ltmp171:
	ldp	x28, x27, [sp], #64             ; 16-byte Folded Reload
	ret
Ltmp172:
LBB2_11:
	;DEBUG_VALUE: fpcr_restore:fpcr <- $x22
	;DEBUG_VALUE: main:old_fpcr <- $x22
	.loc	2 0 5 is_stmt 0                 ; transpose.c:0:5
	bl	___stack_chk_fail
Ltmp173:
	.loh AdrpLdrGotStr	Lloh77, Lloh78, Lloh79
	.loh AdrpLdrGotLdr	Lloh74, Lloh75, Lloh76
	.loh AdrpAdd	Lloh80, Lloh81
	.loh AdrpAdd	Lloh85, Lloh86
	.loh AdrpLdrGotLdr	Lloh82, Lloh83, Lloh84
	.loh AdrpLdrGotLdr	Lloh87, Lloh88, Lloh89
Lfunc_end2:
	.cfi_endproc
	.file	8 "/Users/tarindujayatilaka/Documents/superopt/apple-amx" "./emulate.h"
	.file	9 "/Library/Developer/CommandLineTools/SDKs/MacOSX.sdk/usr/include/_types" "_uint16_t.h"
	.file	10 "/Library/Developer/CommandLineTools/SDKs/MacOSX.sdk/usr/include/sys/_types" "_int8_t.h"
	.file	11 "/Library/Developer/CommandLineTools/SDKs/MacOSX.sdk/usr/include/sys/_types" "_int16_t.h"
	.file	12 "/Library/Developer/CommandLineTools/SDKs/MacOSX.sdk/usr/include/sys/_types" "_int32_t.h"
	.file	13 "/Library/Developer/CommandLineTools/SDKs/MacOSX.sdk/usr/include" "time.h"
                                        ; -- End function
	.section	__TEXT,__cstring,cstring_literals
l_.str.2:                               ; @.str.2
	.asciz	"X%d: "

l_.str.3:                               ; @.str.3
	.asciz	"%02d "

l_.str.4:                               ; @.str.4
	.asciz	"\n    "

l_.str.7:                               ; @.str.7
	.asciz	"Y%d: "

l_.str.9:                               ; @.str.9
	.asciz	"Z%d: "

l_.str.10:                              ; @.str.10
	.asciz	"Row %d: "

	.comm	_AMX_VER,4,2                    ; @AMX_VER
l_.str.12:                              ; @.str.12
	.asciz	"Memory allocation failed\n"

l_.str.13:                              ; @.str.13
	.asciz	"Time taken: %f seconds\n"

l_str:                                  ; @str
	.asciz	"AMX State:"

l_str.14:                               ; @str.14
	.asciz	"X Registers:"

l_str.15:                               ; @str.15
	.asciz	"Y Registers:"

l_str.16:                               ; @str.16
	.asciz	"Z Registers:"
