	.section	__TEXT,__text,regular,pure_instructions
	.build_version macos, 14, 0	sdk_version 14, 4
	.file	1 "/Library/Developer/CommandLineTools/SDKs/MacOSX.sdk/usr/include/_types" "_uint64_t.h"
	.file	2 "/Library/Developer/CommandLineTools/SDKs/MacOSX.sdk/usr/include/_types" "_uint8_t.h"
	.globl	_vecint_alu_mode4               ; -- Begin function vecint_alu_mode4
	.p2align	2
_vecint_alu_mode4:                      ; @vecint_alu_mode4
Lfunc_begin0:
	.file	3 "/Users/tarindujayatilaka/Documents/superopt/apple-amx" "vecint.c"
	.loc	3 15 0                          ; vecint.c:15:0
	.cfi_startproc
; %bb.0:
	;DEBUG_VALUE: vecint_alu_mode4:val <- $x0
	;DEBUG_VALUE: vecint_alu_mode4:satbits <- $w1
	;DEBUG_VALUE: vecint_alu_mode4:operand <- $x2
	.loc	3 16 31 prologue_end            ; vecint.c:16:31
	lsr	x8, x2, #58
Ltmp0:
	.loc	3 17 9                          ; vecint.c:17:9
	ands	w9, w8, #0x1f
Ltmp1:
	;DEBUG_VALUE: vecint_alu_mode4:shift <- $w9
	.loc	3 17 15 is_stmt 0               ; vecint.c:17:15
	sub	w9, w9, #1
Ltmp2:
	.loc	3 17 9                          ; vecint.c:17:9
	ands	w8, w8, #0x1f
	and	x10, x2, #0x20000000
	ccmp	x10, #0, #4, ne
	mov	w10, #1
	.loc	3 17 15                         ; vecint.c:17:15
	lsl	x9, x10, x9
	csel	x9, xzr, x9, eq
	add	x9, x9, x0
Ltmp3:
	;DEBUG_VALUE: vecint_alu_mode4:val <- $x9
	.loc	3 20 9 is_stmt 1                ; vecint.c:20:9
	asr	x8, x9, x8
Ltmp4:
	;DEBUG_VALUE: vecint_alu_mode4:val <- $x8
	.loc	3 22 21                         ; vecint.c:22:21
	ubfx	x9, x2, #26, #1
Ltmp5:
	.loc	3 22 13 is_stmt 0               ; vecint.c:22:13
	sub	w9, w1, w9
Ltmp6:
	;DEBUG_VALUE: vecint_alu_mode4:satbits <- $w9
	.loc	3 0 13                          ; vecint.c:0:13
	mov	w10, #1
	.loc	3 25 27 is_stmt 1               ; vecint.c:25:27
	lsl	x9, x10, x9
Ltmp7:
	;DEBUG_VALUE: hi <- $x9
	.loc	3 0 27 is_stmt 0                ; vecint.c:0:27
	sub	x10, x9, #1
Ltmp8:
	.loc	3 31 17 is_stmt 1               ; vecint.c:31:17
	cmp	x8, x9
	csel	x11, x8, x10, lo
Ltmp9:
	.loc	3 22 21                         ; vecint.c:22:21
	lsl	x12, x2, #37
Ltmp10:
	.loc	3 27 26                         ; vecint.c:27:26
	neg	x13, x9
	and	x12, x13, x12, asr #63
Ltmp11:
	;DEBUG_VALUE: lo <- $x12
	.loc	3 28 17                         ; vecint.c:28:17
	cmp	x8, x12
	csel	x12, x8, x12, gt
Ltmp12:
	;DEBUG_VALUE: vecint_alu_mode4:val <- $x12
	.loc	3 29 17                         ; vecint.c:29:17
	cmp	x12, x9
	csel	x9, x12, x10, lt
Ltmp13:
	;DEBUG_VALUE: vecint_alu_mode4:val <- $x9
	.loc	3 26 13                         ; vecint.c:26:13
	tst	x2, #0x8000000000000000
	csel	x9, x11, x9, eq
Ltmp14:
	.loc	3 21 9                          ; vecint.c:21:9
	tst	w2, #0x40000000
	csel	x0, x8, x9, eq
Ltmp15:
	;DEBUG_VALUE: vecint_alu_mode4:val <- $x0
	.loc	3 34 5                          ; vecint.c:34:5
	ret
Ltmp16:
Lfunc_end0:
	.cfi_endproc
                                        ; -- End function
	.globl	_vecint_alu                     ; -- Begin function vecint_alu
	.p2align	2
_vecint_alu:                            ; @vecint_alu
Lfunc_begin1:
	.loc	3 37 0                          ; vecint.c:37:0
	.cfi_startproc
; %bb.0:
	;DEBUG_VALUE: vecint_alu:x <- $x0
	;DEBUG_VALUE: vecint_alu:y <- $x1
	;DEBUG_VALUE: vecint_alu:z <- $x2
	;DEBUG_VALUE: vecint_alu:alumode <- $w3
	;DEBUG_VALUE: vecint_alu:shift <- $w4
                                        ; kill: def $w4 killed $w4 def $x4
	.loc	3 38 21 prologue_end            ; vecint.c:38:21
	mul	x9, x1, x0
Ltmp17:
	;DEBUG_VALUE: vecint_alu:val <- $x9
	.loc	3 39 22                         ; vecint.c:39:22
	sub	w8, w3, #5
	cmp	w8, #1
	b.hi	LBB1_2
Ltmp18:
; %bb.1:
	;DEBUG_VALUE: vecint_alu:val <- $x9
	;DEBUG_VALUE: vecint_alu:shift <- $w4
	;DEBUG_VALUE: vecint_alu:alumode <- $w3
	;DEBUG_VALUE: vecint_alu:z <- $x2
	;DEBUG_VALUE: vecint_alu:y <- $x1
	;DEBUG_VALUE: vecint_alu:x <- $x0
	.loc	3 40 31                         ; vecint.c:40:31
	sub	w10, w4, #1
	mov	w11, #1
	.loc	3 40 21 is_stmt 0               ; vecint.c:40:21
	lsl	x10, x11, x10
	.loc	3 40 13                         ; vecint.c:40:13
	add	x9, x10, x9
Ltmp19:
	;DEBUG_VALUE: vecint_alu:val <- $x9
	.loc	3 0 13                          ; vecint.c:0:13
	b	LBB1_8
Ltmp20:
LBB1_2:
	;DEBUG_VALUE: vecint_alu:val <- $x9
	;DEBUG_VALUE: vecint_alu:shift <- $w4
	;DEBUG_VALUE: vecint_alu:alumode <- $w3
	;DEBUG_VALUE: vecint_alu:z <- $x2
	;DEBUG_VALUE: vecint_alu:y <- $x1
	;DEBUG_VALUE: vecint_alu:x <- $x0
	.loc	3 41 29 is_stmt 1               ; vecint.c:41:29
	and	w10, w3, #0xfffffffe
	cmp	w10, #2
	b.ne	LBB1_4
Ltmp21:
; %bb.3:
	;DEBUG_VALUE: vecint_alu:val <- $x9
	;DEBUG_VALUE: vecint_alu:shift <- $w4
	;DEBUG_VALUE: vecint_alu:alumode <- $w3
	;DEBUG_VALUE: vecint_alu:z <- $x2
	;DEBUG_VALUE: vecint_alu:y <- $x1
	;DEBUG_VALUE: vecint_alu:x <- $x0
	.loc	3 42 17                         ; vecint.c:42:17
	add	x9, x1, x0
Ltmp22:
	;DEBUG_VALUE: vecint_alu:val <- $x9
	.loc	3 0 17 is_stmt 0                ; vecint.c:0:17
	b	LBB1_8
Ltmp23:
LBB1_4:
	;DEBUG_VALUE: vecint_alu:val <- $x9
	;DEBUG_VALUE: vecint_alu:shift <- $w4
	;DEBUG_VALUE: vecint_alu:alumode <- $w3
	;DEBUG_VALUE: vecint_alu:z <- $x2
	;DEBUG_VALUE: vecint_alu:y <- $x1
	;DEBUG_VALUE: vecint_alu:x <- $x0
	.loc	3 43 16 is_stmt 1               ; vecint.c:43:16
	cmp	w3, #12
	b.eq	LBB1_11
Ltmp24:
; %bb.5:
	;DEBUG_VALUE: vecint_alu:val <- $x9
	;DEBUG_VALUE: vecint_alu:shift <- $w4
	;DEBUG_VALUE: vecint_alu:alumode <- $w3
	;DEBUG_VALUE: vecint_alu:z <- $x2
	;DEBUG_VALUE: vecint_alu:y <- $x1
	;DEBUG_VALUE: vecint_alu:x <- $x0
	cmp	w3, #11
	b.eq	LBB1_10
Ltmp25:
; %bb.6:
	;DEBUG_VALUE: vecint_alu:val <- $x9
	;DEBUG_VALUE: vecint_alu:shift <- $w4
	;DEBUG_VALUE: vecint_alu:alumode <- $w3
	;DEBUG_VALUE: vecint_alu:z <- $x2
	;DEBUG_VALUE: vecint_alu:y <- $x1
	;DEBUG_VALUE: vecint_alu:x <- $x0
	cmp	w3, #9
	b.ne	LBB1_8
Ltmp26:
; %bb.7:
	;DEBUG_VALUE: vecint_alu:val <- $x9
	;DEBUG_VALUE: vecint_alu:shift <- $w4
	;DEBUG_VALUE: vecint_alu:alumode <- $w3
	;DEBUG_VALUE: vecint_alu:z <- $x2
	;DEBUG_VALUE: vecint_alu:y <- $x1
	;DEBUG_VALUE: vecint_alu:x <- $x0
	.loc	3 44 42                         ; vecint.c:44:42
	eon	x8, x0, x1
	.loc	3 44 52 is_stmt 0               ; vecint.c:44:52
	lsl	x8, x8, x4
	.loc	3 44 20                         ; vecint.c:44:20
	fmov	d0, x8
	cnt.8b	v0, v0
	uaddlv.8b	h0, v0
	fmov	w8, s0
	.loc	3 44 18                         ; vecint.c:44:18
	add	x0, x8, x2
Ltmp27:
	;DEBUG_VALUE: vecint_alu:x <- [DW_OP_LLVM_entry_value 1] $x0
	.loc	3 62 1 is_stmt 1                ; vecint.c:62:1
	ret
Ltmp28:
LBB1_8:
	;DEBUG_VALUE: vecint_alu:val <- $x9
	;DEBUG_VALUE: vecint_alu:shift <- $w4
	;DEBUG_VALUE: vecint_alu:alumode <- $w3
	;DEBUG_VALUE: vecint_alu:z <- $x2
	;DEBUG_VALUE: vecint_alu:y <- $x1
	;DEBUG_VALUE: vecint_alu:x <- $x0
	;DEBUG_VALUE: vecint_alu:val <- $x9
	.loc	3 50 9                          ; vecint.c:50:9
	asr	x9, x9, x4
Ltmp29:
	;DEBUG_VALUE: vecint_alu:val <- $x9
	.loc	3 0 9 is_stmt 0                 ; vecint.c:0:9
	mov	w10, #1
	lsl	w10, w10, w3
	mov	w11, #74
Ltmp30:
	;DEBUG_VALUE: vecint_alu:val <- undef
	tst	w10, w11
	cneg	x10, x9, ne
Ltmp31:
	.loc	3 51 22 is_stmt 1               ; vecint.c:51:22
	cmp	w3, #6
	csel	x9, x9, x10, hi
Ltmp32:
LBB1_9:
	;DEBUG_VALUE: vecint_alu:shift <- $w4
	;DEBUG_VALUE: vecint_alu:alumode <- $w3
	;DEBUG_VALUE: vecint_alu:z <- $x2
	;DEBUG_VALUE: vecint_alu:x <- $x0
	;DEBUG_VALUE: vecint_alu:val <- $x9
	.loc	3 54 9                          ; vecint.c:54:9
	cmp	w3, #10
	csel	x10, xzr, x2, eq
	mov	w11, #32767
	add	x9, x9, x10
Ltmp33:
	;DEBUG_VALUE: vecint_alu:val <- $x9
	.loc	3 57 22                         ; vecint.c:57:22
	cmp	x9, x11
	csel	x10, x9, x11, lt
	cmn	x10, #8, lsl #12                ; =32768
	mov	x11, #-32768
	csel	x10, x10, x11, gt
	cmp	w8, #2
	csel	x0, x10, x9, lo
Ltmp34:
	;DEBUG_VALUE: vecint_alu:x <- [DW_OP_LLVM_entry_value 1] $x0
	;DEBUG_VALUE: vecint_alu:val <- $x0
	.loc	3 62 1                          ; vecint.c:62:1
	ret
Ltmp35:
LBB1_10:
	;DEBUG_VALUE: vecint_alu:val <- $x9
	;DEBUG_VALUE: vecint_alu:shift <- $w4
	;DEBUG_VALUE: vecint_alu:alumode <- $w3
	;DEBUG_VALUE: vecint_alu:z <- $x2
	;DEBUG_VALUE: vecint_alu:y <- $x1
	;DEBUG_VALUE: vecint_alu:x <- $x0
	.loc	3 0 1 is_stmt 0                 ; vecint.c:0:1
	mov	x1, x0
Ltmp36:
	;DEBUG_VALUE: vecint_alu:y <- [DW_OP_LLVM_entry_value 1] $x1
LBB1_11:
	;DEBUG_VALUE: vecint_alu:val <- $x9
	;DEBUG_VALUE: vecint_alu:shift <- $w4
	;DEBUG_VALUE: vecint_alu:alumode <- $w3
	;DEBUG_VALUE: vecint_alu:z <- $x2
	;DEBUG_VALUE: vecint_alu:x <- $x0
	.loc	3 50 9 is_stmt 1                ; vecint.c:50:9
	asr	x9, x1, x4
Ltmp37:
	.loc	3 0 9 is_stmt 0                 ; vecint.c:0:9
	b	LBB1_9
Ltmp38:
Lfunc_end1:
	.cfi_endproc
                                        ; -- End function
	.globl	_emulate_AMX_VECINT             ; -- Begin function emulate_AMX_VECINT
	.p2align	2
_emulate_AMX_VECINT:                    ; @emulate_AMX_VECINT
Lfunc_begin2:
	.loc	3 64 0 is_stmt 1                ; vecint.c:64:0
	.cfi_startproc
; %bb.0:
	;DEBUG_VALUE: emulate_AMX_VECINT:state <- $x0
	;DEBUG_VALUE: emulate_AMX_VECINT:operand <- $x1
	stp	x28, x27, [sp, #-96]!           ; 16-byte Folded Spill
	.cfi_def_cfa_offset 96
	stp	x26, x25, [sp, #16]             ; 16-byte Folded Spill
	stp	x24, x23, [sp, #32]             ; 16-byte Folded Spill
	stp	x22, x21, [sp, #48]             ; 16-byte Folded Spill
	stp	x20, x19, [sp, #64]             ; 16-byte Folded Spill
	stp	x29, x30, [sp, #80]             ; 16-byte Folded Spill
	add	x29, sp, #80
	.cfi_def_cfa w29, 16
	.cfi_offset w30, -8
	.cfi_offset w29, -16
	.cfi_offset w19, -24
	.cfi_offset w20, -32
	.cfi_offset w21, -40
	.cfi_offset w22, -48
	.cfi_offset w23, -56
	.cfi_offset w24, -64
	.cfi_offset w25, -72
	.cfi_offset w26, -80
	.cfi_offset w27, -88
	.cfi_offset w28, -96
	sub	sp, sp, #608
	str	x0, [sp, #336]                  ; 8-byte Folded Spill
Ltmp39:
	;DEBUG_VALUE: emulate_AMX_VECINT:state <- [DW_OP_plus_uconst 336] [$sp+0]
Lloh0:
	adrp	x8, ___stack_chk_guard@GOTPAGE
Lloh1:
	ldr	x8, [x8, ___stack_chk_guard@GOTPAGEOFF]
Lloh2:
	ldr	x8, [x8]
	stur	x8, [x29, #-96]
	;DEBUG_VALUE: emulate_AMX_VECINT:operand <- $x1
Ltmp40:
	.loc	3 65 25 prologue_end            ; vecint.c:65:25
	tst	x1, #0x1c0000000000000
Ltmp41:
	.loc	3 65 9 is_stmt 0                ; vecint.c:65:9
	b.eq	LBB2_3
Ltmp42:
LBB2_1:
	;DEBUG_VALUE: emulate_AMX_VECINT:state <- [DW_OP_plus_uconst 336] [$sp+0]
	.loc	3 0 9                           ; vecint.c:0:9
	ldur	x8, [x29, #-96]
Lloh3:
	adrp	x9, ___stack_chk_guard@GOTPAGE
Lloh4:
	ldr	x9, [x9, ___stack_chk_guard@GOTPAGEOFF]
Lloh5:
	ldr	x9, [x9]
	cmp	x9, x8
	b.ne	LBB2_128
Ltmp43:
; %bb.2:
	;DEBUG_VALUE: emulate_AMX_VECINT:state <- [DW_OP_plus_uconst 336] [$sp+0]
	.loc	3 204 1 is_stmt 1               ; vecint.c:204:1
	add	sp, sp, #608
Ltmp44:
	ldp	x29, x30, [sp, #80]             ; 16-byte Folded Reload
	ldp	x20, x19, [sp, #64]             ; 16-byte Folded Reload
	ldp	x22, x21, [sp, #48]             ; 16-byte Folded Reload
	ldp	x24, x23, [sp, #32]             ; 16-byte Folded Reload
	ldp	x26, x25, [sp, #16]             ; 16-byte Folded Reload
	ldp	x28, x27, [sp], #96             ; 16-byte Folded Reload
	ret
LBB2_3:
Ltmp45:
	;DEBUG_VALUE: emulate_AMX_VECINT:state <- [DW_OP_plus_uconst 336] [$sp+0]
	;DEBUG_VALUE: emulate_AMX_VECINT:operand <- $x1
	.loc	3 0 1 is_stmt 0                 ; vecint.c:0:1
	mov	x15, x1
Ltmp46:
	;DEBUG_VALUE: emulate_AMX_VECINT:operand <- $x15
	mov	x10, x1
	.loc	3 69 30 is_stmt 1               ; vecint.c:69:30
	lsr	x8, x15, #20
Ltmp47:
	;DEBUG_VALUE: emulate_AMX_VECINT:ximask <- -1
	;DEBUG_VALUE: emulate_AMX_VECINT:y_step <- 64
	;DEBUG_VALUE: emulate_AMX_VECINT:x_step <- 64
	;DEBUG_VALUE: emulate_AMX_VECINT:z_step <- 64
	;DEBUG_VALUE: emulate_AMX_VECINT:z_row <- $x8
	.loc	3 74 10                         ; vecint.c:74:10
Lloh6:
	adrp	x9, _AMX_VER@GOTPAGE
Lloh7:
	ldr	x9, [x9, _AMX_VER@GOTPAGEOFF]
Lloh8:
	ldr	w11, [x9]
	mov	w9, #-1
	mov	w12, #64
	str	x12, [sp, #208]                 ; 8-byte Folded Spill
	.loc	3 74 33 is_stmt 0               ; vecint.c:74:33
	tbz	w10, #31, LBB2_8
Ltmp48:
; %bb.4:
	;DEBUG_VALUE: emulate_AMX_VECINT:z_row <- $x8
	;DEBUG_VALUE: emulate_AMX_VECINT:z_step <- 64
	;DEBUG_VALUE: emulate_AMX_VECINT:x_step <- 64
	;DEBUG_VALUE: emulate_AMX_VECINT:y_step <- 64
	;DEBUG_VALUE: emulate_AMX_VECINT:ximask <- -1
	;DEBUG_VALUE: emulate_AMX_VECINT:operand <- $x15
	;DEBUG_VALUE: emulate_AMX_VECINT:state <- [DW_OP_plus_uconst 336] [$sp+0]
	cmp	w11, #2
	b.lo	LBB2_8
Ltmp49:
; %bb.5:
	;DEBUG_VALUE: emulate_AMX_VECINT:z_row <- $x8
	;DEBUG_VALUE: emulate_AMX_VECINT:z_step <- 64
	;DEBUG_VALUE: emulate_AMX_VECINT:x_step <- 64
	;DEBUG_VALUE: emulate_AMX_VECINT:y_step <- 64
	;DEBUG_VALUE: emulate_AMX_VECINT:ximask <- -1
	;DEBUG_VALUE: emulate_AMX_VECINT:operand <- $x15
	;DEBUG_VALUE: emulate_AMX_VECINT:state <- [DW_OP_plus_uconst 336] [$sp+0]
	.loc	3 0 33                          ; vecint.c:0:33
	mov	x10, x15
Ltmp50:
	.loc	3 75 42 is_stmt 1               ; vecint.c:75:42
	ubfx	x9, x15, #32, #3
Ltmp51:
	;DEBUG_VALUE: bmode <- $x9
	.loc	3 76 17                         ; vecint.c:76:17
	and	x10, x15, #0xfffffe00ffffffff
Ltmp52:
	;DEBUG_VALUE: emulate_AMX_VECINT:operand <- $x10
	.loc	3 77 9                          ; vecint.c:77:9
	sub	x9, x9, #1
Ltmp53:
	cmp	x9, #6
	b.hi	LBB2_13
Ltmp54:
; %bb.6:
	;DEBUG_VALUE: emulate_AMX_VECINT:operand <- $x10
	;DEBUG_VALUE: emulate_AMX_VECINT:z_row <- $x8
	;DEBUG_VALUE: emulate_AMX_VECINT:z_step <- 64
	;DEBUG_VALUE: emulate_AMX_VECINT:x_step <- 64
	;DEBUG_VALUE: emulate_AMX_VECINT:y_step <- 64
	;DEBUG_VALUE: emulate_AMX_VECINT:ximask <- -1
	;DEBUG_VALUE: emulate_AMX_VECINT:state <- [DW_OP_plus_uconst 336] [$sp+0]
	.loc	3 0 9 is_stmt 0                 ; vecint.c:0:9
Lloh9:
	adrp	x12, lJTI2_0@PAGE
Lloh10:
	add	x12, x12, lJTI2_0@PAGEOFF
	adr	x13, LBB2_7
	ldrb	w14, [x12, x9]
	add	x13, x13, x14, lsl #2
	br	x13
Ltmp55:
LBB2_7:
	;DEBUG_VALUE: emulate_AMX_VECINT:operand <- $x10
	;DEBUG_VALUE: emulate_AMX_VECINT:z_row <- $x8
	;DEBUG_VALUE: emulate_AMX_VECINT:z_step <- 64
	;DEBUG_VALUE: emulate_AMX_VECINT:x_step <- 64
	;DEBUG_VALUE: emulate_AMX_VECINT:y_step <- 64
	;DEBUG_VALUE: emulate_AMX_VECINT:ximask <- -1
	;DEBUG_VALUE: emulate_AMX_VECINT:state <- [DW_OP_plus_uconst 336] [$sp+0]
	.loc	3 78 25 is_stmt 1               ; vecint.c:78:25
	orr	x10, x10, #0x300000000
Ltmp56:
	;DEBUG_VALUE: emulate_AMX_VECINT:operand <- $x10
	.loc	3 0 25 is_stmt 0                ; vecint.c:0:25
	b	LBB2_13
Ltmp57:
LBB2_8:
	;DEBUG_VALUE: emulate_AMX_VECINT:z_row <- $x8
	;DEBUG_VALUE: emulate_AMX_VECINT:z_step <- 64
	;DEBUG_VALUE: emulate_AMX_VECINT:x_step <- 64
	;DEBUG_VALUE: emulate_AMX_VECINT:y_step <- 64
	;DEBUG_VALUE: emulate_AMX_VECINT:ximask <- -1
	;DEBUG_VALUE: emulate_AMX_VECINT:operand <- $x15
	;DEBUG_VALUE: emulate_AMX_VECINT:state <- [DW_OP_plus_uconst 336] [$sp+0]
	mov	w10, #64
	str	x10, [sp, #200]                 ; 8-byte Folded Spill
	mov	w0, #64
	b	LBB2_20
Ltmp58:
LBB2_9:
	;DEBUG_VALUE: emulate_AMX_VECINT:operand <- $x10
	;DEBUG_VALUE: emulate_AMX_VECINT:z_row <- $x8
	;DEBUG_VALUE: emulate_AMX_VECINT:z_step <- 64
	;DEBUG_VALUE: emulate_AMX_VECINT:x_step <- 64
	;DEBUG_VALUE: emulate_AMX_VECINT:y_step <- 64
	;DEBUG_VALUE: emulate_AMX_VECINT:ximask <- -1
	;DEBUG_VALUE: emulate_AMX_VECINT:state <- [DW_OP_plus_uconst 336] [$sp+0]
	str	xzr, [sp, #208]                 ; 8-byte Folded Spill
	b	LBB2_17
Ltmp59:
LBB2_10:
	;DEBUG_VALUE: emulate_AMX_VECINT:operand <- $x10
	;DEBUG_VALUE: emulate_AMX_VECINT:z_row <- $x8
	;DEBUG_VALUE: emulate_AMX_VECINT:z_step <- 64
	;DEBUG_VALUE: emulate_AMX_VECINT:x_step <- 64
	;DEBUG_VALUE: emulate_AMX_VECINT:y_step <- 64
	;DEBUG_VALUE: emulate_AMX_VECINT:ximask <- -1
	;DEBUG_VALUE: emulate_AMX_VECINT:state <- [DW_OP_plus_uconst 336] [$sp+0]
	mov	x9, #21474836480
	.loc	3 82 25 is_stmt 1               ; vecint.c:82:25
	orr	x10, x10, x9
Ltmp60:
	;DEBUG_VALUE: emulate_AMX_VECINT:operand <- $x10
	.loc	3 0 25 is_stmt 0                ; vecint.c:0:25
	b	LBB2_13
Ltmp61:
LBB2_11:
	;DEBUG_VALUE: emulate_AMX_VECINT:operand <- $x10
	;DEBUG_VALUE: emulate_AMX_VECINT:z_row <- $x8
	;DEBUG_VALUE: emulate_AMX_VECINT:z_step <- 64
	;DEBUG_VALUE: emulate_AMX_VECINT:x_step <- 64
	;DEBUG_VALUE: emulate_AMX_VECINT:y_step <- 64
	;DEBUG_VALUE: emulate_AMX_VECINT:ximask <- -1
	;DEBUG_VALUE: emulate_AMX_VECINT:state <- [DW_OP_plus_uconst 336] [$sp+0]
	str	xzr, [sp, #200]                 ; 8-byte Folded Spill
	mov	w9, #-1
	b	LBB2_15
Ltmp62:
LBB2_12:
	;DEBUG_VALUE: emulate_AMX_VECINT:operand <- $x10
	;DEBUG_VALUE: emulate_AMX_VECINT:z_row <- $x8
	;DEBUG_VALUE: emulate_AMX_VECINT:z_step <- 64
	;DEBUG_VALUE: emulate_AMX_VECINT:x_step <- 64
	;DEBUG_VALUE: emulate_AMX_VECINT:y_step <- 64
	;DEBUG_VALUE: emulate_AMX_VECINT:ximask <- -1
	;DEBUG_VALUE: emulate_AMX_VECINT:state <- [DW_OP_plus_uconst 336] [$sp+0]
	.loc	3 81 25 is_stmt 1               ; vecint.c:81:25
	orr	x10, x10, #0x400000000
Ltmp63:
	;DEBUG_VALUE: emulate_AMX_VECINT:operand <- $x10
LBB2_13:
	;DEBUG_VALUE: emulate_AMX_VECINT:operand <- $x10
	;DEBUG_VALUE: emulate_AMX_VECINT:z_row <- $x8
	;DEBUG_VALUE: emulate_AMX_VECINT:z_step <- 64
	;DEBUG_VALUE: emulate_AMX_VECINT:x_step <- 64
	;DEBUG_VALUE: emulate_AMX_VECINT:y_step <- 64
	;DEBUG_VALUE: emulate_AMX_VECINT:ximask <- -1
	;DEBUG_VALUE: emulate_AMX_VECINT:state <- [DW_OP_plus_uconst 336] [$sp+0]
	.loc	3 0 25 is_stmt 0                ; vecint.c:0:25
	mov	w9, #-1
	mov	w12, #64
	str	x12, [sp, #208]                 ; 8-byte Folded Spill
	b	LBB2_18
Ltmp64:
LBB2_14:
	;DEBUG_VALUE: emulate_AMX_VECINT:operand <- $x10
	;DEBUG_VALUE: emulate_AMX_VECINT:z_row <- $x8
	;DEBUG_VALUE: emulate_AMX_VECINT:z_step <- 64
	;DEBUG_VALUE: emulate_AMX_VECINT:x_step <- 64
	;DEBUG_VALUE: emulate_AMX_VECINT:y_step <- 64
	;DEBUG_VALUE: emulate_AMX_VECINT:ximask <- -1
	;DEBUG_VALUE: emulate_AMX_VECINT:state <- [DW_OP_plus_uconst 336] [$sp+0]
	mov	w9, #0
	str	xzr, [sp, #200]                 ; 8-byte Folded Spill
Ltmp65:
LBB2_15:
	;DEBUG_VALUE: emulate_AMX_VECINT:operand <- $x10
	;DEBUG_VALUE: emulate_AMX_VECINT:z_row <- $x8
	;DEBUG_VALUE: emulate_AMX_VECINT:z_step <- 64
	;DEBUG_VALUE: emulate_AMX_VECINT:x_step <- 64
	;DEBUG_VALUE: emulate_AMX_VECINT:y_step <- 64
	;DEBUG_VALUE: emulate_AMX_VECINT:ximask <- -1
	;DEBUG_VALUE: emulate_AMX_VECINT:state <- [DW_OP_plus_uconst 336] [$sp+0]
	mov	w12, #64
Ltmp66:
	;DEBUG_VALUE: emulate_AMX_VECINT:x_step <- 0
	str	x12, [sp, #208]                 ; 8-byte Folded Spill
	b	LBB2_19
Ltmp67:
LBB2_16:
	;DEBUG_VALUE: emulate_AMX_VECINT:operand <- $x10
	;DEBUG_VALUE: emulate_AMX_VECINT:z_row <- $x8
	;DEBUG_VALUE: emulate_AMX_VECINT:z_step <- 64
	;DEBUG_VALUE: emulate_AMX_VECINT:x_step <- 64
	;DEBUG_VALUE: emulate_AMX_VECINT:y_step <- 64
	;DEBUG_VALUE: emulate_AMX_VECINT:ximask <- -1
	;DEBUG_VALUE: emulate_AMX_VECINT:state <- [DW_OP_plus_uconst 336] [$sp+0]
	;DEBUG_VALUE: emulate_AMX_VECINT:y_step <- 0
	str	xzr, [sp, #208]                 ; 8-byte Folded Spill
	.loc	3 84 37 is_stmt 1               ; vecint.c:84:37
	orr	x10, x10, #0x4000000000
Ltmp68:
	;DEBUG_VALUE: emulate_AMX_VECINT:operand <- $x10
LBB2_17:
	;DEBUG_VALUE: emulate_AMX_VECINT:operand <- $x10
	;DEBUG_VALUE: emulate_AMX_VECINT:z_row <- $x8
	;DEBUG_VALUE: emulate_AMX_VECINT:z_step <- 64
	;DEBUG_VALUE: emulate_AMX_VECINT:x_step <- 64
	;DEBUG_VALUE: emulate_AMX_VECINT:ximask <- -1
	;DEBUG_VALUE: emulate_AMX_VECINT:state <- [DW_OP_plus_uconst 336] [$sp+0]
	.loc	3 0 37 is_stmt 0                ; vecint.c:0:37
	mov	w9, #-1
Ltmp69:
LBB2_18:
	;DEBUG_VALUE: emulate_AMX_VECINT:operand <- $x10
	;DEBUG_VALUE: emulate_AMX_VECINT:z_row <- $x8
	;DEBUG_VALUE: emulate_AMX_VECINT:z_step <- 64
	;DEBUG_VALUE: emulate_AMX_VECINT:x_step <- 64
	;DEBUG_VALUE: emulate_AMX_VECINT:ximask <- -1
	;DEBUG_VALUE: emulate_AMX_VECINT:state <- [DW_OP_plus_uconst 336] [$sp+0]
	mov	w12, #64
	str	x12, [sp, #200]                 ; 8-byte Folded Spill
Ltmp70:
LBB2_19:
	;DEBUG_VALUE: emulate_AMX_VECINT:operand <- $x10
	;DEBUG_VALUE: emulate_AMX_VECINT:z_row <- $x8
	;DEBUG_VALUE: emulate_AMX_VECINT:z_step <- 64
	;DEBUG_VALUE: emulate_AMX_VECINT:ximask <- -1
	;DEBUG_VALUE: emulate_AMX_VECINT:state <- [DW_OP_plus_uconst 336] [$sp+0]
	;DEBUG_VALUE: emulate_AMX_VECINT:operand <- $x10
	;DEBUG_VALUE: emulate_AMX_VECINT:x_step <- [DW_OP_plus_uconst 200] [$sp+0]
	;DEBUG_VALUE: emulate_AMX_VECINT:y_step <- [DW_OP_plus_uconst 208] [$sp+0]
	;DEBUG_VALUE: emulate_AMX_VECINT:ximask <- $w9
	.loc	3 86 18 is_stmt 1               ; vecint.c:86:18
	tst	x15, #0x2000000
	mov	w12, #16
	mov	w13, #32
	csel	x0, x13, x12, eq
Ltmp71:
	;DEBUG_VALUE: emulate_AMX_VECINT:z_step <- $x0
	.loc	3 0 18 is_stmt 0                ; vecint.c:0:18
	mov	x15, x10
Ltmp72:
	;DEBUG_VALUE: emulate_AMX_VECINT:operand <- $x15
LBB2_20:
	;DEBUG_VALUE: emulate_AMX_VECINT:z_row <- $x8
	;DEBUG_VALUE: emulate_AMX_VECINT:operand <- $x15
	;DEBUG_VALUE: emulate_AMX_VECINT:state <- [DW_OP_plus_uconst 336] [$sp+0]
	;DEBUG_VALUE: emulate_AMX_VECINT:operand <- $x15
	;DEBUG_VALUE: emulate_AMX_VECINT:z_step <- $x0
	;DEBUG_VALUE: emulate_AMX_VECINT:x_step <- [DW_OP_plus_uconst 200] [$sp+0]
	;DEBUG_VALUE: emulate_AMX_VECINT:y_step <- [DW_OP_plus_uconst 208] [$sp+0]
	;DEBUG_VALUE: emulate_AMX_VECINT:ximask <- $w9
	.loc	3 88 21 is_stmt 1               ; vecint.c:88:21
	sub	x10, x0, #1
	.loc	3 88 11 is_stmt 0               ; vecint.c:88:11
	and	x8, x10, x8
Ltmp73:
	;DEBUG_VALUE: emulate_AMX_VECINT:z_row <- $x8
	.loc	3 0 11                          ; vecint.c:0:11
	str	x8, [sp, #248]                  ; 8-byte Folded Spill
Ltmp74:
	;DEBUG_VALUE: emulate_AMX_VECINT:z_row <- [DW_OP_plus_uconst 248] [$sp+0]
	;DEBUG_VALUE: emulate_AMX_VECINT:z_row <- [DW_OP_plus_uconst 248] [$sp+0]
	.loc	3 89 32 is_stmt 1               ; vecint.c:89:32
	lsr	x10, x15, #32
	.loc	3 89 48 is_stmt 0               ; vecint.c:89:48
	and	x8, x15, #0x1ff00000000
Ltmp75:
	;DEBUG_VALUE: emulate_AMX_VECINT:omask <- [DW_OP_LLVM_convert 1 5, DW_OP_LLVM_convert 32 5, DW_OP_stack_value] undef
	.loc	3 0 48                          ; vecint.c:0:48
	stp	x15, x8, [sp, #384]             ; 16-byte Folded Spill
	.loc	3 90 45 is_stmt 1               ; vecint.c:90:45
	ubfx	x8, x15, #38, #3
Ltmp76:
	;DEBUG_VALUE: emulate_AMX_VECINT:broadcast_y <- [DW_OP_LLVM_convert 1 7, DW_OP_LLVM_convert 8 7, DW_OP_stack_value] undef
	.loc	3 0 45 is_stmt 0                ; vecint.c:0:45
	str	x8, [sp, #360]                  ; 8-byte Folded Spill
	.loc	3 91 19 is_stmt 1               ; vecint.c:91:19
	ubfx	x8, x15, #47, #6
	tst	x15, #0x20000000000000
	csel	w12, w8, wzr, eq
Ltmp77:
	;DEBUG_VALUE: emulate_AMX_VECINT:alumode <- $w12
	.loc	3 92 22                         ; vecint.c:92:22
	ubfx	x8, x15, #58, #5
Ltmp78:
	;DEBUG_VALUE: emulate_AMX_VECINT:ybits <- 0
	;DEBUG_VALUE: emulate_AMX_VECINT:xbits <- 0
	;DEBUG_VALUE: emulate_AMX_VECINT:shift <- $w8
	.loc	3 95 9                          ; vecint.c:95:9
	cmp	w12, #4
	str	x0, [sp, #224]                  ; 8-byte Folded Spill
	b.ne	LBB2_23
Ltmp79:
; %bb.21:
	;DEBUG_VALUE: emulate_AMX_VECINT:shift <- $w8
	;DEBUG_VALUE: emulate_AMX_VECINT:xbits <- 0
	;DEBUG_VALUE: emulate_AMX_VECINT:ybits <- 0
	;DEBUG_VALUE: emulate_AMX_VECINT:alumode <- $w12
	;DEBUG_VALUE: emulate_AMX_VECINT:z_row <- [DW_OP_plus_uconst 248] [$sp+0]
	;DEBUG_VALUE: emulate_AMX_VECINT:z_step <- $x0
	;DEBUG_VALUE: emulate_AMX_VECINT:ximask <- $w9
	;DEBUG_VALUE: emulate_AMX_VECINT:y_step <- [DW_OP_plus_uconst 208] [$sp+0]
	;DEBUG_VALUE: emulate_AMX_VECINT:x_step <- [DW_OP_plus_uconst 200] [$sp+0]
	;DEBUG_VALUE: emulate_AMX_VECINT:operand <- $x15
	;DEBUG_VALUE: emulate_AMX_VECINT:state <- [DW_OP_plus_uconst 336] [$sp+0]
	.loc	3 96 33                         ; vecint.c:96:33
	ubfx	x9, x15, #42, #4
Ltmp80:
	.loc	3 96 9 is_stmt 0                ; vecint.c:96:9
	sub	x11, x9, #3
	cmp	x11, #9
	b.hs	LBB2_31
Ltmp81:
; %bb.22:
	;DEBUG_VALUE: emulate_AMX_VECINT:shift <- $w8
	;DEBUG_VALUE: emulate_AMX_VECINT:xbits <- 0
	;DEBUG_VALUE: emulate_AMX_VECINT:ybits <- 0
	;DEBUG_VALUE: emulate_AMX_VECINT:alumode <- $w12
	;DEBUG_VALUE: emulate_AMX_VECINT:z_row <- [DW_OP_plus_uconst 248] [$sp+0]
	;DEBUG_VALUE: emulate_AMX_VECINT:z_step <- $x0
	;DEBUG_VALUE: emulate_AMX_VECINT:y_step <- [DW_OP_plus_uconst 208] [$sp+0]
	;DEBUG_VALUE: emulate_AMX_VECINT:x_step <- [DW_OP_plus_uconst 200] [$sp+0]
	;DEBUG_VALUE: emulate_AMX_VECINT:operand <- $x15
	;DEBUG_VALUE: emulate_AMX_VECINT:state <- [DW_OP_plus_uconst 336] [$sp+0]
Lloh11:
	adrp	x9, l_switch.table.emulate_AMX_VECINT@PAGE
Lloh12:
	add	x9, x9, l_switch.table.emulate_AMX_VECINT@PAGEOFF
	ldr	x9, [x9, x11, lsl #3]
Lloh13:
	adrp	x12, l_switch.table.emulate_AMX_VECINT.1@PAGE
Ltmp82:
Lloh14:
	add	x12, x12, l_switch.table.emulate_AMX_VECINT.1@PAGEOFF
	ldr	w12, [x12, x11, lsl #2]
	b	LBB2_32
Ltmp83:
LBB2_23:
	;DEBUG_VALUE: emulate_AMX_VECINT:shift <- $w8
	;DEBUG_VALUE: emulate_AMX_VECINT:xbits <- 0
	;DEBUG_VALUE: emulate_AMX_VECINT:ybits <- 0
	;DEBUG_VALUE: emulate_AMX_VECINT:alumode <- $w12
	;DEBUG_VALUE: emulate_AMX_VECINT:z_row <- [DW_OP_plus_uconst 248] [$sp+0]
	;DEBUG_VALUE: emulate_AMX_VECINT:z_step <- $x0
	;DEBUG_VALUE: emulate_AMX_VECINT:ximask <- $w9
	;DEBUG_VALUE: emulate_AMX_VECINT:y_step <- [DW_OP_plus_uconst 208] [$sp+0]
	;DEBUG_VALUE: emulate_AMX_VECINT:x_step <- [DW_OP_plus_uconst 200] [$sp+0]
	;DEBUG_VALUE: emulate_AMX_VECINT:operand <- $x15
	;DEBUG_VALUE: emulate_AMX_VECINT:state <- [DW_OP_plus_uconst 336] [$sp+0]
	.loc	3 0 9                           ; vecint.c:0:9
	str	w12, [sp, #316]                 ; 4-byte Folded Spill
Ltmp84:
	;DEBUG_VALUE: emulate_AMX_VECINT:alumode <- [DW_OP_plus_uconst 316] [$sp+0]
	.loc	3 104 29 is_stmt 1              ; vecint.c:104:29
	sub	w12, w12, #5
	str	w12, [sp, #368]                 ; 4-byte Folded Spill
	cmp	w12, #2
	b.hs	LBB2_38
Ltmp85:
; %bb.24:
	;DEBUG_VALUE: emulate_AMX_VECINT:alumode <- [DW_OP_plus_uconst 316] [$sp+0]
	;DEBUG_VALUE: emulate_AMX_VECINT:shift <- $w8
	;DEBUG_VALUE: emulate_AMX_VECINT:xbits <- 0
	;DEBUG_VALUE: emulate_AMX_VECINT:ybits <- 0
	;DEBUG_VALUE: emulate_AMX_VECINT:z_row <- [DW_OP_plus_uconst 248] [$sp+0]
	;DEBUG_VALUE: emulate_AMX_VECINT:z_step <- $x0
	;DEBUG_VALUE: emulate_AMX_VECINT:ximask <- $w9
	;DEBUG_VALUE: emulate_AMX_VECINT:y_step <- [DW_OP_plus_uconst 208] [$sp+0]
	;DEBUG_VALUE: emulate_AMX_VECINT:x_step <- [DW_OP_plus_uconst 200] [$sp+0]
	;DEBUG_VALUE: emulate_AMX_VECINT:operand <- $x15
	;DEBUG_VALUE: emulate_AMX_VECINT:state <- [DW_OP_plus_uconst 336] [$sp+0]
	.loc	3 0 29 is_stmt 0                ; vecint.c:0:29
	mov	w8, #15
Ltmp86:
LBB2_25:
	;DEBUG_VALUE: emulate_AMX_VECINT:alumode <- [DW_OP_plus_uconst 316] [$sp+0]
	;DEBUG_VALUE: emulate_AMX_VECINT:xbits <- 0
	;DEBUG_VALUE: emulate_AMX_VECINT:ybits <- 0
	;DEBUG_VALUE: emulate_AMX_VECINT:z_row <- [DW_OP_plus_uconst 248] [$sp+0]
	;DEBUG_VALUE: emulate_AMX_VECINT:z_step <- $x0
	;DEBUG_VALUE: emulate_AMX_VECINT:ximask <- $w9
	;DEBUG_VALUE: emulate_AMX_VECINT:y_step <- [DW_OP_plus_uconst 208] [$sp+0]
	;DEBUG_VALUE: emulate_AMX_VECINT:x_step <- [DW_OP_plus_uconst 200] [$sp+0]
	;DEBUG_VALUE: emulate_AMX_VECINT:state <- [DW_OP_plus_uconst 336] [$sp+0]
	mov	w12, #16
Ltmp87:
	;DEBUG_VALUE: emulate_AMX_VECINT:zbits <- 16
	;DEBUG_VALUE: emulate_AMX_VECINT:ybits <- 16
	;DEBUG_VALUE: emulate_AMX_VECINT:xbits <- 16
	mov	w13, #16
	str	w13, [sp, #116]                 ; 4-byte Folded Spill
	mov	w13, #16
Ltmp88:
LBB2_26:
	;DEBUG_VALUE: emulate_AMX_VECINT:alumode <- [DW_OP_plus_uconst 316] [$sp+0]
	;DEBUG_VALUE: emulate_AMX_VECINT:z_row <- [DW_OP_plus_uconst 248] [$sp+0]
	;DEBUG_VALUE: emulate_AMX_VECINT:z_step <- $x0
	;DEBUG_VALUE: emulate_AMX_VECINT:ximask <- $w9
	;DEBUG_VALUE: emulate_AMX_VECINT:y_step <- [DW_OP_plus_uconst 208] [$sp+0]
	;DEBUG_VALUE: emulate_AMX_VECINT:x_step <- [DW_OP_plus_uconst 200] [$sp+0]
	;DEBUG_VALUE: emulate_AMX_VECINT:state <- [DW_OP_plus_uconst 336] [$sp+0]
	str	w13, [sp, #112]                 ; 4-byte Folded Spill
Ltmp89:
LBB2_27:
	;DEBUG_VALUE: emulate_AMX_VECINT:alumode <- [DW_OP_plus_uconst 316] [$sp+0]
	;DEBUG_VALUE: emulate_AMX_VECINT:z_row <- [DW_OP_plus_uconst 248] [$sp+0]
	;DEBUG_VALUE: emulate_AMX_VECINT:z_step <- $x0
	;DEBUG_VALUE: emulate_AMX_VECINT:ximask <- $w9
	;DEBUG_VALUE: emulate_AMX_VECINT:y_step <- [DW_OP_plus_uconst 208] [$sp+0]
	;DEBUG_VALUE: emulate_AMX_VECINT:x_step <- [DW_OP_plus_uconst 200] [$sp+0]
	;DEBUG_VALUE: emulate_AMX_VECINT:state <- [DW_OP_plus_uconst 336] [$sp+0]
	;DEBUG_VALUE: emulate_AMX_VECINT:shift <- undef
	;DEBUG_VALUE: emulate_AMX_VECINT:xbits <- 0
	;DEBUG_VALUE: emulate_AMX_VECINT:ybits <- 0
	;DEBUG_VALUE: emulate_AMX_VECINT:satbits <- undef
	;DEBUG_VALUE: emulate_AMX_VECINT:xbytes <- [DW_OP_constu 3, DW_OP_shr, DW_OP_stack_value] 0
	;DEBUG_VALUE: emulate_AMX_VECINT:ybytes <- [DW_OP_constu 3, DW_OP_shr, DW_OP_stack_value] 0
	.loc	3 139 40 is_stmt 1              ; vecint.c:139:40
	cmp	w11, #2
	b.lo	LBB2_41
Ltmp90:
; %bb.28:
	;DEBUG_VALUE: emulate_AMX_VECINT:ybytes <- [DW_OP_constu 3, DW_OP_shr, DW_OP_stack_value] 0
	;DEBUG_VALUE: emulate_AMX_VECINT:xbytes <- [DW_OP_constu 3, DW_OP_shr, DW_OP_stack_value] 0
	;DEBUG_VALUE: emulate_AMX_VECINT:alumode <- [DW_OP_plus_uconst 316] [$sp+0]
	;DEBUG_VALUE: emulate_AMX_VECINT:xbits <- 0
	;DEBUG_VALUE: emulate_AMX_VECINT:ybits <- 0
	;DEBUG_VALUE: emulate_AMX_VECINT:z_row <- [DW_OP_plus_uconst 248] [$sp+0]
	;DEBUG_VALUE: emulate_AMX_VECINT:z_step <- $x0
	;DEBUG_VALUE: emulate_AMX_VECINT:ximask <- $w9
	;DEBUG_VALUE: emulate_AMX_VECINT:y_step <- [DW_OP_plus_uconst 208] [$sp+0]
	;DEBUG_VALUE: emulate_AMX_VECINT:x_step <- [DW_OP_plus_uconst 200] [$sp+0]
	;DEBUG_VALUE: emulate_AMX_VECINT:state <- [DW_OP_plus_uconst 336] [$sp+0]
	.loc	3 0 40 is_stmt 0                ; vecint.c:0:40
	ldr	w11, [sp, #316]                 ; 4-byte Folded Reload
	.loc	3 139 58                        ; vecint.c:139:58
	and	w11, w11, #0x3e
	cmp	w11, #10
	b.eq	LBB2_42
Ltmp91:
; %bb.29:
	;DEBUG_VALUE: emulate_AMX_VECINT:ybytes <- [DW_OP_constu 3, DW_OP_shr, DW_OP_stack_value] 0
	;DEBUG_VALUE: emulate_AMX_VECINT:xbytes <- [DW_OP_constu 3, DW_OP_shr, DW_OP_stack_value] 0
	;DEBUG_VALUE: emulate_AMX_VECINT:alumode <- [DW_OP_plus_uconst 316] [$sp+0]
	;DEBUG_VALUE: emulate_AMX_VECINT:xbits <- 0
	;DEBUG_VALUE: emulate_AMX_VECINT:ybits <- 0
	;DEBUG_VALUE: emulate_AMX_VECINT:z_row <- [DW_OP_plus_uconst 248] [$sp+0]
	;DEBUG_VALUE: emulate_AMX_VECINT:z_step <- $x0
	;DEBUG_VALUE: emulate_AMX_VECINT:ximask <- $w9
	;DEBUG_VALUE: emulate_AMX_VECINT:y_step <- [DW_OP_plus_uconst 208] [$sp+0]
	;DEBUG_VALUE: emulate_AMX_VECINT:x_step <- [DW_OP_plus_uconst 200] [$sp+0]
	;DEBUG_VALUE: emulate_AMX_VECINT:state <- [DW_OP_plus_uconst 336] [$sp+0]
	.loc	3 0 58                          ; vecint.c:0:58
	ldr	w11, [sp, #316]                 ; 4-byte Folded Reload
	.loc	3 139 58                        ; vecint.c:139:58
	cmp	w11, #12
	b.hi	LBB2_1
Ltmp92:
; %bb.30:
	;DEBUG_VALUE: emulate_AMX_VECINT:ybytes <- [DW_OP_constu 3, DW_OP_shr, DW_OP_stack_value] 0
	;DEBUG_VALUE: emulate_AMX_VECINT:xbytes <- [DW_OP_constu 3, DW_OP_shr, DW_OP_stack_value] 0
	;DEBUG_VALUE: emulate_AMX_VECINT:alumode <- [DW_OP_plus_uconst 316] [$sp+0]
	;DEBUG_VALUE: emulate_AMX_VECINT:xbits <- 0
	;DEBUG_VALUE: emulate_AMX_VECINT:ybits <- 0
	;DEBUG_VALUE: emulate_AMX_VECINT:z_row <- [DW_OP_plus_uconst 248] [$sp+0]
	;DEBUG_VALUE: emulate_AMX_VECINT:z_step <- $x0
	;DEBUG_VALUE: emulate_AMX_VECINT:ximask <- $w9
	;DEBUG_VALUE: emulate_AMX_VECINT:y_step <- [DW_OP_plus_uconst 208] [$sp+0]
	;DEBUG_VALUE: emulate_AMX_VECINT:x_step <- [DW_OP_plus_uconst 200] [$sp+0]
	;DEBUG_VALUE: emulate_AMX_VECINT:state <- [DW_OP_plus_uconst 336] [$sp+0]
	.loc	3 0 58                          ; vecint.c:0:58
	mov	w11, #1
	ldr	w13, [sp, #316]                 ; 4-byte Folded Reload
	lsl	w11, w11, w13
	mov	w13, #4207
	tst	w11, w13
	b.ne	LBB2_42
	b	LBB2_1
Ltmp93:
LBB2_31:
	;DEBUG_VALUE: emulate_AMX_VECINT:shift <- $w8
	;DEBUG_VALUE: emulate_AMX_VECINT:xbits <- 0
	;DEBUG_VALUE: emulate_AMX_VECINT:ybits <- 0
	;DEBUG_VALUE: emulate_AMX_VECINT:alumode <- $w12
	;DEBUG_VALUE: emulate_AMX_VECINT:z_row <- [DW_OP_plus_uconst 248] [$sp+0]
	;DEBUG_VALUE: emulate_AMX_VECINT:z_step <- $x0
	;DEBUG_VALUE: emulate_AMX_VECINT:y_step <- [DW_OP_plus_uconst 208] [$sp+0]
	;DEBUG_VALUE: emulate_AMX_VECINT:x_step <- [DW_OP_plus_uconst 200] [$sp+0]
	;DEBUG_VALUE: emulate_AMX_VECINT:operand <- $x15
	;DEBUG_VALUE: emulate_AMX_VECINT:state <- [DW_OP_plus_uconst 336] [$sp+0]
	mov	w9, #16
	mov	w12, #16
Ltmp94:
LBB2_32:
	;DEBUG_VALUE: emulate_AMX_VECINT:shift <- $w8
	;DEBUG_VALUE: emulate_AMX_VECINT:xbits <- 0
	;DEBUG_VALUE: emulate_AMX_VECINT:ybits <- 0
	;DEBUG_VALUE: emulate_AMX_VECINT:z_row <- [DW_OP_plus_uconst 248] [$sp+0]
	;DEBUG_VALUE: emulate_AMX_VECINT:z_step <- $x0
	;DEBUG_VALUE: emulate_AMX_VECINT:y_step <- [DW_OP_plus_uconst 208] [$sp+0]
	;DEBUG_VALUE: emulate_AMX_VECINT:x_step <- [DW_OP_plus_uconst 200] [$sp+0]
	;DEBUG_VALUE: emulate_AMX_VECINT:operand <- $x15
	;DEBUG_VALUE: emulate_AMX_VECINT:state <- [DW_OP_plus_uconst 336] [$sp+0]
	;DEBUG_VALUE: emulate_AMX_VECINT:shift <- $w8
	;DEBUG_VALUE: emulate_AMX_VECINT:xbits <- 0
	;DEBUG_VALUE: emulate_AMX_VECINT:ybits <- 0
	;DEBUG_VALUE: emulate_AMX_VECINT:zbits <- $w12
	;DEBUG_VALUE: emulate_AMX_VECINT:satbits <- undef
	;DEBUG_VALUE: emulate_AMX_VECINT:xbytes <- [DW_OP_constu 3, DW_OP_shr, DW_OP_stack_value] 0
	;DEBUG_VALUE: emulate_AMX_VECINT:ybytes <- [DW_OP_constu 3, DW_OP_shr, DW_OP_stack_value] 0
	.loc	3 119 29 is_stmt 1              ; vecint.c:119:29
	lsr	w21, w12, #3
Ltmp95:
	;DEBUG_VALUE: emulate_AMX_VECINT:zbytes <- $w21
	;DEBUG_VALUE: load_int:nbytes <- $w21
	;DEBUG_VALUE: store_int:nbytes <- $w21
	.loc	3 0 29 is_stmt 0                ; vecint.c:0:29
	mov	w11, #64
Ltmp96:
	.loc	3 124 29 is_stmt 1              ; vecint.c:124:29
	sub	w11, w11, w12
Ltmp97:
	;DEBUG_VALUE: parse_writemask:val <- undef
	;DEBUG_VALUE: zsignext <- undef
	.loc	3 0 29 is_stmt 0                ; vecint.c:0:29
	ldr	x13, [sp, #384]                 ; 8-byte Folded Reload
Ltmp98:
	;DEBUG_VALUE: parse_writemask:maskbits <- 9
	;DEBUG_VALUE: parse_writemask:g <- $w21
	.file	4 "/Users/tarindujayatilaka/Documents/superopt/apple-amx" "./emulate.h"
	.loc	4 66 44 is_stmt 1               ; ./emulate.h:66:44
	lsr	x13, x13, #38
	.loc	4 67 9                          ; ./emulate.h:67:9
	ands	w13, w13, #0x7
Ltmp99:
	;DEBUG_VALUE: parse_writemask:mode <- $w13
	csinc	w14, w21, wzr, ne
Ltmp100:
	;DEBUG_VALUE: parse_writemask:all <- -1
	.loc	4 70 5                          ; ./emulate.h:70:5
	cmp	w13, #5
	b.hi	LBB2_106
Ltmp101:
; %bb.33:
	;DEBUG_VALUE: parse_writemask:all <- -1
	;DEBUG_VALUE: parse_writemask:mode <- $w13
	;DEBUG_VALUE: parse_writemask:g <- $w21
	;DEBUG_VALUE: parse_writemask:maskbits <- 9
	;DEBUG_VALUE: store_int:nbytes <- $w21
	;DEBUG_VALUE: load_int:nbytes <- $w21
	;DEBUG_VALUE: emulate_AMX_VECINT:zbytes <- $w21
	;DEBUG_VALUE: emulate_AMX_VECINT:zbits <- $w12
	;DEBUG_VALUE: emulate_AMX_VECINT:ybytes <- [DW_OP_constu 3, DW_OP_shr, DW_OP_stack_value] 0
	;DEBUG_VALUE: emulate_AMX_VECINT:xbytes <- [DW_OP_constu 3, DW_OP_shr, DW_OP_stack_value] 0
	;DEBUG_VALUE: emulate_AMX_VECINT:shift <- $w8
	;DEBUG_VALUE: emulate_AMX_VECINT:xbits <- 0
	;DEBUG_VALUE: emulate_AMX_VECINT:ybits <- 0
	;DEBUG_VALUE: emulate_AMX_VECINT:z_row <- [DW_OP_plus_uconst 248] [$sp+0]
	;DEBUG_VALUE: emulate_AMX_VECINT:z_step <- $x0
	;DEBUG_VALUE: emulate_AMX_VECINT:y_step <- [DW_OP_plus_uconst 208] [$sp+0]
	;DEBUG_VALUE: emulate_AMX_VECINT:x_step <- [DW_OP_plus_uconst 200] [$sp+0]
	;DEBUG_VALUE: emulate_AMX_VECINT:operand <- $x15
	;DEBUG_VALUE: emulate_AMX_VECINT:state <- [DW_OP_plus_uconst 336] [$sp+0]
	.loc	4 0 5 is_stmt 0                 ; ./emulate.h:0:5
	mul	w14, w14, w10
	and	w10, w14, #0x3f
Ltmp102:
	;DEBUG_VALUE: parse_writemask:val <- $w10
Lloh15:
	adrp	x15, lJTI2_4@PAGE
Ltmp103:
Lloh16:
	add	x15, x15, lJTI2_4@PAGEOFF
	adr	x16, LBB2_34
	ldrh	w17, [x15, x13, lsl #1]
	add	x16, x16, x17, lsl #2
	br	x16
Ltmp104:
LBB2_34:
	;DEBUG_VALUE: parse_writemask:val <- $w10
	;DEBUG_VALUE: parse_writemask:all <- -1
	;DEBUG_VALUE: parse_writemask:mode <- $w13
	;DEBUG_VALUE: parse_writemask:g <- $w21
	;DEBUG_VALUE: parse_writemask:maskbits <- 9
	;DEBUG_VALUE: emulate_AMX_VECINT:zbytes <- $w21
	;DEBUG_VALUE: emulate_AMX_VECINT:zbits <- $w12
	;DEBUG_VALUE: emulate_AMX_VECINT:ybytes <- [DW_OP_constu 3, DW_OP_shr, DW_OP_stack_value] 0
	;DEBUG_VALUE: emulate_AMX_VECINT:xbytes <- [DW_OP_constu 3, DW_OP_shr, DW_OP_stack_value] 0
	;DEBUG_VALUE: emulate_AMX_VECINT:shift <- $w8
	;DEBUG_VALUE: emulate_AMX_VECINT:xbits <- 0
	;DEBUG_VALUE: emulate_AMX_VECINT:ybits <- 0
	;DEBUG_VALUE: emulate_AMX_VECINT:z_row <- [DW_OP_plus_uconst 248] [$sp+0]
	;DEBUG_VALUE: emulate_AMX_VECINT:z_step <- $x0
	;DEBUG_VALUE: emulate_AMX_VECINT:y_step <- [DW_OP_plus_uconst 208] [$sp+0]
	;DEBUG_VALUE: emulate_AMX_VECINT:x_step <- [DW_OP_plus_uconst 200] [$sp+0]
	;DEBUG_VALUE: emulate_AMX_VECINT:state <- [DW_OP_plus_uconst 336] [$sp+0]
	.loc	4 72 22 is_stmt 1               ; ./emulate.h:72:22
	sub	w15, w10, #1
	mov	x13, #-1
Ltmp105:
	cmp	w15, #1
	b.hi	LBB2_37
Ltmp106:
; %bb.35:
	;DEBUG_VALUE: parse_writemask:val <- $w10
	;DEBUG_VALUE: parse_writemask:all <- -1
	;DEBUG_VALUE: parse_writemask:g <- $w21
	;DEBUG_VALUE: parse_writemask:maskbits <- 9
	;DEBUG_VALUE: emulate_AMX_VECINT:zbytes <- $w21
	;DEBUG_VALUE: emulate_AMX_VECINT:zbits <- $w12
	;DEBUG_VALUE: emulate_AMX_VECINT:ybytes <- [DW_OP_constu 3, DW_OP_shr, DW_OP_stack_value] 0
	;DEBUG_VALUE: emulate_AMX_VECINT:xbytes <- [DW_OP_constu 3, DW_OP_shr, DW_OP_stack_value] 0
	;DEBUG_VALUE: emulate_AMX_VECINT:shift <- $w8
	;DEBUG_VALUE: emulate_AMX_VECINT:xbits <- 0
	;DEBUG_VALUE: emulate_AMX_VECINT:ybits <- 0
	;DEBUG_VALUE: emulate_AMX_VECINT:z_row <- [DW_OP_plus_uconst 248] [$sp+0]
	;DEBUG_VALUE: emulate_AMX_VECINT:z_step <- $x0
	;DEBUG_VALUE: emulate_AMX_VECINT:y_step <- [DW_OP_plus_uconst 208] [$sp+0]
	;DEBUG_VALUE: emulate_AMX_VECINT:x_step <- [DW_OP_plus_uconst 200] [$sp+0]
	;DEBUG_VALUE: emulate_AMX_VECINT:state <- [DW_OP_plus_uconst 336] [$sp+0]
	.loc	4 74 25                         ; ./emulate.h:74:25
	lsl	x13, x13, x21
	.loc	4 74 19 is_stmt 0               ; ./emulate.h:74:19
	mvn	x13, x13
	.loc	4 74 45                         ; ./emulate.h:74:45
	sbfx	w14, w14, #0, #1
	.loc	4 74 37                         ; ./emulate.h:74:37
	and	w14, w14, w21
	.loc	4 74 31                         ; ./emulate.h:74:31
	lsl	x13, x13, x14
Ltmp107:
	;DEBUG_VALUE: parse_writemask:all <- $x13
	;DEBUG_VALUE: parse_writemask:g <- $w21
	.loc	4 75 23 is_stmt 1               ; ./emulate.h:75:23
	lsr	w12, w12, #2
Ltmp108:
	;DEBUG_VALUE: parse_writemask:g <- $w12
LBB2_36:                                ; =>This Inner Loop Header: Depth=1
	;DEBUG_VALUE: parse_writemask:g <- $w12
	;DEBUG_VALUE: parse_writemask:all <- $x13
	;DEBUG_VALUE: parse_writemask:val <- $w10
	;DEBUG_VALUE: parse_writemask:maskbits <- 9
	;DEBUG_VALUE: emulate_AMX_VECINT:zbytes <- $w21
	;DEBUG_VALUE: emulate_AMX_VECINT:ybytes <- [DW_OP_constu 3, DW_OP_shr, DW_OP_stack_value] 0
	;DEBUG_VALUE: emulate_AMX_VECINT:xbytes <- [DW_OP_constu 3, DW_OP_shr, DW_OP_stack_value] 0
	;DEBUG_VALUE: emulate_AMX_VECINT:shift <- $w8
	;DEBUG_VALUE: emulate_AMX_VECINT:xbits <- 0
	;DEBUG_VALUE: emulate_AMX_VECINT:ybits <- 0
	;DEBUG_VALUE: emulate_AMX_VECINT:z_row <- [DW_OP_plus_uconst 248] [$sp+0]
	;DEBUG_VALUE: emulate_AMX_VECINT:z_step <- $x0
	;DEBUG_VALUE: emulate_AMX_VECINT:y_step <- [DW_OP_plus_uconst 208] [$sp+0]
	;DEBUG_VALUE: emulate_AMX_VECINT:x_step <- [DW_OP_plus_uconst 200] [$sp+0]
	;DEBUG_VALUE: emulate_AMX_VECINT:state <- [DW_OP_plus_uconst 336] [$sp+0]
	;DEBUG_VALUE: parse_writemask:all <- $x13
	.loc	4 76 28                         ; ./emulate.h:76:28
	lsl	x14, x13, x12
	.loc	4 76 21 is_stmt 0               ; ./emulate.h:76:21
	orr	x13, x14, x13
Ltmp109:
	;DEBUG_VALUE: parse_writemask:all <- $x13
	;DEBUG_VALUE: parse_writemask:g <- $w12
	.loc	4 75 23 is_stmt 1               ; ./emulate.h:75:23
	lsl	w14, w12, #1
Ltmp110:
	;DEBUG_VALUE: parse_writemask:g <- $w14
	.loc	4 75 13 is_stmt 0               ; ./emulate.h:75:13
	cmp	w12, #32
	mov	x12, x14
Ltmp111:
	;DEBUG_VALUE: parse_writemask:g <- $w12
	b.lo	LBB2_36
Ltmp112:
LBB2_37:
	;DEBUG_VALUE: parse_writemask:val <- $w10
	;DEBUG_VALUE: parse_writemask:maskbits <- 9
	;DEBUG_VALUE: emulate_AMX_VECINT:zbytes <- $w21
	;DEBUG_VALUE: emulate_AMX_VECINT:ybytes <- [DW_OP_constu 3, DW_OP_shr, DW_OP_stack_value] 0
	;DEBUG_VALUE: emulate_AMX_VECINT:xbytes <- [DW_OP_constu 3, DW_OP_shr, DW_OP_stack_value] 0
	;DEBUG_VALUE: emulate_AMX_VECINT:shift <- $w8
	;DEBUG_VALUE: emulate_AMX_VECINT:xbits <- 0
	;DEBUG_VALUE: emulate_AMX_VECINT:ybits <- 0
	;DEBUG_VALUE: emulate_AMX_VECINT:z_row <- [DW_OP_plus_uconst 248] [$sp+0]
	;DEBUG_VALUE: emulate_AMX_VECINT:z_step <- $x0
	;DEBUG_VALUE: emulate_AMX_VECINT:y_step <- [DW_OP_plus_uconst 208] [$sp+0]
	;DEBUG_VALUE: emulate_AMX_VECINT:x_step <- [DW_OP_plus_uconst 200] [$sp+0]
	;DEBUG_VALUE: emulate_AMX_VECINT:state <- [DW_OP_plus_uconst 336] [$sp+0]
	;DEBUG_VALUE: parse_writemask:all <- $x13
	.loc	4 83 16 is_stmt 1               ; ./emulate.h:83:16
	cmp	w10, #6
	csel	x10, x13, xzr, lo
Ltmp113:
	.loc	4 0 16 is_stmt 0                ; ./emulate.h:0:16
	b	LBB2_113
Ltmp114:
LBB2_38:
	;DEBUG_VALUE: emulate_AMX_VECINT:alumode <- [DW_OP_plus_uconst 316] [$sp+0]
	;DEBUG_VALUE: emulate_AMX_VECINT:shift <- $w8
	;DEBUG_VALUE: emulate_AMX_VECINT:xbits <- 0
	;DEBUG_VALUE: emulate_AMX_VECINT:ybits <- 0
	;DEBUG_VALUE: emulate_AMX_VECINT:z_row <- [DW_OP_plus_uconst 248] [$sp+0]
	;DEBUG_VALUE: emulate_AMX_VECINT:z_step <- $x0
	;DEBUG_VALUE: emulate_AMX_VECINT:ximask <- $w9
	;DEBUG_VALUE: emulate_AMX_VECINT:y_step <- [DW_OP_plus_uconst 208] [$sp+0]
	;DEBUG_VALUE: emulate_AMX_VECINT:x_step <- [DW_OP_plus_uconst 200] [$sp+0]
	;DEBUG_VALUE: emulate_AMX_VECINT:operand <- $x15
	;DEBUG_VALUE: emulate_AMX_VECINT:state <- [DW_OP_plus_uconst 336] [$sp+0]
	ldr	x12, [sp, #384]                 ; 8-byte Folded Reload
Ltmp115:
	.loc	3 108 33 is_stmt 1              ; vecint.c:108:33
	ubfx	x12, x12, #42, #4
	.loc	3 108 9 is_stmt 0               ; vecint.c:108:9
	sub	x13, x12, #3
	cmp	x13, #10
	b.hi	LBB2_25
Ltmp116:
; %bb.39:
	;DEBUG_VALUE: emulate_AMX_VECINT:alumode <- [DW_OP_plus_uconst 316] [$sp+0]
	;DEBUG_VALUE: emulate_AMX_VECINT:shift <- $w8
	;DEBUG_VALUE: emulate_AMX_VECINT:xbits <- 0
	;DEBUG_VALUE: emulate_AMX_VECINT:ybits <- 0
	;DEBUG_VALUE: emulate_AMX_VECINT:z_row <- [DW_OP_plus_uconst 248] [$sp+0]
	;DEBUG_VALUE: emulate_AMX_VECINT:z_step <- $x0
	;DEBUG_VALUE: emulate_AMX_VECINT:ximask <- $w9
	;DEBUG_VALUE: emulate_AMX_VECINT:y_step <- [DW_OP_plus_uconst 208] [$sp+0]
	;DEBUG_VALUE: emulate_AMX_VECINT:x_step <- [DW_OP_plus_uconst 200] [$sp+0]
	;DEBUG_VALUE: emulate_AMX_VECINT:operand <- $x15
	;DEBUG_VALUE: emulate_AMX_VECINT:state <- [DW_OP_plus_uconst 336] [$sp+0]
	.loc	3 0 9                           ; vecint.c:0:9
	mov	w12, #16
	str	w12, [sp, #116]                 ; 4-byte Folded Spill
	mov	w12, #32
Lloh17:
	adrp	x14, lJTI2_1@PAGE
Lloh18:
	add	x14, x14, lJTI2_1@PAGEOFF
	adr	x15, LBB2_25
	ldrh	w16, [x14, x13, lsl #1]
	add	x15, x15, x16, lsl #2
Ltmp117:
	mov	w13, #16
	str	w13, [sp, #112]                 ; 4-byte Folded Spill
	br	x15
Ltmp118:
LBB2_40:
	;DEBUG_VALUE: emulate_AMX_VECINT:alumode <- [DW_OP_plus_uconst 316] [$sp+0]
	;DEBUG_VALUE: emulate_AMX_VECINT:shift <- $w8
	;DEBUG_VALUE: emulate_AMX_VECINT:xbits <- 0
	;DEBUG_VALUE: emulate_AMX_VECINT:ybits <- 0
	;DEBUG_VALUE: emulate_AMX_VECINT:z_row <- [DW_OP_plus_uconst 248] [$sp+0]
	;DEBUG_VALUE: emulate_AMX_VECINT:z_step <- $x0
	;DEBUG_VALUE: emulate_AMX_VECINT:ximask <- $w9
	;DEBUG_VALUE: emulate_AMX_VECINT:y_step <- [DW_OP_plus_uconst 208] [$sp+0]
	;DEBUG_VALUE: emulate_AMX_VECINT:x_step <- [DW_OP_plus_uconst 200] [$sp+0]
	;DEBUG_VALUE: emulate_AMX_VECINT:state <- [DW_OP_plus_uconst 336] [$sp+0]
	mov	w12, #8
	str	w12, [sp, #116]                 ; 4-byte Folded Spill
	mov	w12, #32
Ltmp119:
	;DEBUG_VALUE: emulate_AMX_VECINT:zbits <- 32
	;DEBUG_VALUE: emulate_AMX_VECINT:ybits <- 8
	;DEBUG_VALUE: emulate_AMX_VECINT:xbits <- 8
	mov	w13, #8
	b	LBB2_26
Ltmp120:
LBB2_41:
	;DEBUG_VALUE: emulate_AMX_VECINT:ybytes <- [DW_OP_constu 3, DW_OP_shr, DW_OP_stack_value] 0
	;DEBUG_VALUE: emulate_AMX_VECINT:xbytes <- [DW_OP_constu 3, DW_OP_shr, DW_OP_stack_value] 0
	;DEBUG_VALUE: emulate_AMX_VECINT:alumode <- [DW_OP_plus_uconst 316] [$sp+0]
	;DEBUG_VALUE: emulate_AMX_VECINT:xbits <- 0
	;DEBUG_VALUE: emulate_AMX_VECINT:ybits <- 0
	;DEBUG_VALUE: emulate_AMX_VECINT:z_row <- [DW_OP_plus_uconst 248] [$sp+0]
	;DEBUG_VALUE: emulate_AMX_VECINT:z_step <- $x0
	;DEBUG_VALUE: emulate_AMX_VECINT:ximask <- $w9
	;DEBUG_VALUE: emulate_AMX_VECINT:y_step <- [DW_OP_plus_uconst 208] [$sp+0]
	;DEBUG_VALUE: emulate_AMX_VECINT:x_step <- [DW_OP_plus_uconst 200] [$sp+0]
	;DEBUG_VALUE: emulate_AMX_VECINT:state <- [DW_OP_plus_uconst 336] [$sp+0]
	ldr	w11, [sp, #316]                 ; 4-byte Folded Reload
Ltmp121:
	.loc	3 140 16 is_stmt 1              ; vecint.c:140:16
	cmp	w11, #6
	b.hi	LBB2_1
Ltmp122:
LBB2_42:
	;DEBUG_VALUE: emulate_AMX_VECINT:ybytes <- [DW_OP_constu 3, DW_OP_shr, DW_OP_stack_value] 0
	;DEBUG_VALUE: emulate_AMX_VECINT:xbytes <- [DW_OP_constu 3, DW_OP_shr, DW_OP_stack_value] 0
	;DEBUG_VALUE: emulate_AMX_VECINT:alumode <- [DW_OP_plus_uconst 316] [$sp+0]
	;DEBUG_VALUE: emulate_AMX_VECINT:xbits <- 0
	;DEBUG_VALUE: emulate_AMX_VECINT:ybits <- 0
	;DEBUG_VALUE: emulate_AMX_VECINT:z_row <- [DW_OP_plus_uconst 248] [$sp+0]
	;DEBUG_VALUE: emulate_AMX_VECINT:z_step <- $x0
	;DEBUG_VALUE: emulate_AMX_VECINT:ximask <- $w9
	;DEBUG_VALUE: emulate_AMX_VECINT:y_step <- [DW_OP_plus_uconst 208] [$sp+0]
	;DEBUG_VALUE: emulate_AMX_VECINT:x_step <- [DW_OP_plus_uconst 200] [$sp+0]
	;DEBUG_VALUE: emulate_AMX_VECINT:state <- [DW_OP_plus_uconst 336] [$sp+0]
	.loc	3 0 16 is_stmt 0                ; vecint.c:0:16
	ldr	x2, [sp, #384]                  ; 8-byte Folded Reload
	tst	x2, #0x1000000000000
	mov	w11, #4
	mov	w13, #2
	csel	w0, w13, w11, eq
Ltmp123:
	ldp	w4, w3, [sp, #112]              ; 8-byte Folded Reload
	mov	w11, w3
	ldr	x13, [sp, #200]                 ; 8-byte Folded Reload
	smull	x14, w13, w0
	mov	w13, w4
	mov	w22, #64
	sub	w15, w22, w4
	lsl	x16, x2, #37
	sub	w17, w22, w3
	and	x15, x15, x2, asr #63
	str	x15, [sp, #304]                 ; 8-byte Folded Spill
	and	x15, x17, x16, asr #63
	str	x15, [sp, #296]                 ; 8-byte Folded Spill
	mov	w15, w8
	str	x15, [sp, #288]                 ; 8-byte Folded Spill
	udiv	x15, x14, x13
	ldr	x14, [sp, #208]                 ; 8-byte Folded Reload
	str	x0, [sp, #136]                  ; 8-byte Folded Spill
	smull	x14, w14, w0
	udiv	x14, x14, x11
	stp	x14, x15, [sp, #88]             ; 16-byte Folded Spill
	lsr	w24, w4, #3
	mov	x14, x24
	lsr	w25, w3, #3
	mov	x15, x25
	lsr	w5, w12, #3
Ltmp124:
	;DEBUG_VALUE: emulate_AMX_VECINT:y_offset <- $x2
	;DEBUG_VALUE: emulate_AMX_VECINT:x_offset <- [DW_OP_constu 10, DW_OP_shr, DW_OP_stack_value] $x2
	;DEBUG_VALUE: emulate_AMX_VECINT:z_row <- [DW_OP_plus_uconst 248] [$sp+0]
	ldr	x17, [sp, #336]                 ; 8-byte Folded Reload
	add	x0, x17, #512
	ubfx	x16, x2, #49, #3
	lsl	x16, x16, #6
	str	x0, [sp, #192]                  ; 8-byte Folded Spill
	add	x0, x0, x16
	add	x16, x17, x16
	stp	x16, x0, [sp, #72]              ; 16-byte Folded Spill
	lsr	x16, x2, #38
	ands	w19, w16, #0x7
	csinc	w16, w24, wzr, ne
	mul	w16, w16, w10
	and	w6, w16, #0x3f
	mov	x17, #-1
	lsr	x0, x17, x16
	mvn	x0, x0
	str	x0, [sp, #56]                   ; 8-byte Folded Spill
	csinc	w0, w25, wzr, ne
	mul	w0, w0, w10
	and	w7, w0, #0x3f
	lsl	x1, x17, x16
	mvn	x1, x1
	str	x1, [sp, #104]                  ; 8-byte Folded Spill
	lsl	x14, x17, x14
	mvn	x14, x14
	lsl	x1, x14, x16
	str	x1, [sp, #144]                  ; 8-byte Folded Spill
	sbfx	w16, w16, #0, #1
	and	w16, w16, w24
	lsl	x14, x14, x16
	str	x14, [sp, #24]                  ; 8-byte Folded Spill
	lsl	x14, x17, x15
	mvn	x14, x14
	sbfx	w15, w0, #0, #1
	and	w15, w15, w25
	lsl	x15, x14, x15
	str	x15, [sp, #8]                   ; 8-byte Folded Spill
	sub	w12, w22, w12
	str	x12, [sp, #280]                 ; 8-byte Folded Spill
	neg	w12, w24
	and	w12, w9, w12
	mul	w9, w10, w25
Ltmp125:
	and	x9, x9, #0x3f
	str	x9, [sp, #352]                  ; 8-byte Folded Spill
	sub	w8, w8, #1
	lsr	x9, x17, x0
	lsl	x10, x17, x0
	lsl	x14, x14, x0
	str	x14, [sp, #64]                  ; 8-byte Folded Spill
	mov	w14, #1
	lsl	x8, x14, x8
	str	x8, [sp, #264]                  ; 8-byte Folded Spill
Ltmp126:
	.loc	3 146 5 is_stmt 1               ; vecint.c:146:5
	lsr	x27, x13, #3
	lsr	x8, x11, #3
	str	x8, [sp, #168]                  ; 8-byte Folded Spill
	mvn	x8, x9
	str	x8, [sp, #48]                   ; 8-byte Folded Spill
	mvn	x8, x10
	str	x8, [sp, #40]                   ; 8-byte Folded Spill
	cmp	w24, w25
Ltmp127:
	.loc	3 144 33                        ; vecint.c:144:33
	lsr	x8, x2, #10
Ltmp128:
	;DEBUG_VALUE: emulate_AMX_VECINT:x_offset <- $x8
	.loc	3 0 33 is_stmt 0                ; vecint.c:0:33
	str	x8, [sp, #240]                  ; 8-byte Folded Spill
Ltmp129:
	;DEBUG_VALUE: emulate_AMX_VECINT:x_offset <- [DW_OP_plus_uconst 240] [$sp+0]
	;DEBUG_VALUE: emulate_AMX_VECINT:x_offset <- [DW_OP_plus_uconst 240] [$sp+0]
	ubfx	w8, w2, #29, #2
	str	w8, [sp, #164]                  ; 4-byte Folded Spill
	lsr	w9, w22, w8
	ubfx	w8, w2, #27, #2
	stp	w8, w9, [sp, #156]              ; 8-byte Folded Spill
	lsr	w8, w22, w8
	str	w8, [sp, #152]                  ; 4-byte Folded Spill
	stp	w6, w7, [sp, #128]              ; 8-byte Folded Spill
	sub	w9, w6, #1
	lsr	w8, w4, #2
	str	w8, [sp, #20]                   ; 4-byte Folded Spill
	sub	w8, w7, #1
	stp	w8, w9, [sp, #32]               ; 8-byte Folded Spill
	lsr	w8, w3, #2
	str	w8, [sp, #4]                    ; 4-byte Folded Spill
	ubfx	x8, x2, #32, #6
	str	x8, [sp, #120]                  ; 8-byte Folded Spill
	csel	w23, w24, w25, lo
	neg	w8, w25
	str	w8, [sp, #348]                  ; 4-byte Folded Spill
	str	x5, [sp, #376]                  ; 8-byte Folded Spill
	neg	w8, w5
	str	w8, [sp, #276]                  ; 4-byte Folded Spill
	ldr	w8, [sp, #316]                  ; 4-byte Folded Reload
	and	w8, w8, #0x3e
	str	w8, [sp, #260]                  ; 4-byte Folded Spill
	sub	x11, x29, #224
	str	x2, [sp, #232]                  ; 8-byte Folded Spill
Ltmp130:
	;DEBUG_VALUE: emulate_AMX_VECINT:y_offset <- [DW_OP_plus_uconst 232] [$sp+0]
	;DEBUG_VALUE: emulate_AMX_VECINT:y_offset <- [DW_OP_constu 304, DW_OP_minus] [$fp+0]
	stp	x27, x19, [sp, #176]            ; 16-byte Folded Spill
	str	w12, [sp, #332]                 ; 4-byte Folded Spill
	b	LBB2_44
Ltmp131:
LBB2_43:                                ;   in Loop: Header=BB2_44 Depth=1
	;DEBUG_VALUE: emulate_AMX_VECINT:y_offset <- [DW_OP_plus_uconst 232] [$sp+0]
	;DEBUG_VALUE: emulate_AMX_VECINT:x_offset <- [DW_OP_plus_uconst 240] [$sp+0]
	;DEBUG_VALUE: emulate_AMX_VECINT:ybytes <- [DW_OP_constu 3, DW_OP_shr, DW_OP_stack_value] 0
	;DEBUG_VALUE: emulate_AMX_VECINT:xbytes <- [DW_OP_constu 3, DW_OP_shr, DW_OP_stack_value] 0
	;DEBUG_VALUE: emulate_AMX_VECINT:alumode <- [DW_OP_plus_uconst 316] [$sp+0]
	;DEBUG_VALUE: emulate_AMX_VECINT:xbits <- 0
	;DEBUG_VALUE: emulate_AMX_VECINT:ybits <- 0
	;DEBUG_VALUE: emulate_AMX_VECINT:z_row <- [DW_OP_plus_uconst 248] [$sp+0]
	;DEBUG_VALUE: emulate_AMX_VECINT:y_step <- [DW_OP_plus_uconst 208] [$sp+0]
	;DEBUG_VALUE: emulate_AMX_VECINT:x_step <- [DW_OP_plus_uconst 200] [$sp+0]
	;DEBUG_VALUE: emulate_AMX_VECINT:state <- [DW_OP_plus_uconst 336] [$sp+0]
	ldr	x8, [sp, #224]                  ; 8-byte Folded Reload
	ldr	x9, [sp, #248]                  ; 8-byte Folded Reload
Ltmp132:
	.loc	3 146 31 is_stmt 1              ; vecint.c:146:31
	add	x9, x9, x8
	;DEBUG_VALUE: emulate_AMX_VECINT:y_offset <- [DW_OP_plus_uconst 232] [$sp+0]
	;DEBUG_VALUE: emulate_AMX_VECINT:x_offset <- [DW_OP_plus_uconst 240] [$sp+0]
Ltmp133:
	;DEBUG_VALUE: emulate_AMX_VECINT:z_row <- $x9
	.loc	3 0 31 is_stmt 0                ; vecint.c:0:31
	str	x9, [sp, #248]                  ; 8-byte Folded Spill
Ltmp134:
	;DEBUG_VALUE: emulate_AMX_VECINT:z_row <- [DW_OP_plus_uconst 248] [$sp+0]
	.loc	3 146 5                         ; vecint.c:146:5
	cmp	x9, #64
	mov	w22, #64
	ldr	x27, [sp, #176]                 ; 8-byte Folded Reload
	sub	x11, x29, #224
	b.hs	LBB2_1
Ltmp135:
LBB2_44:                                ; =>This Loop Header: Depth=1
                                        ;     Child Loop BB2_50 Depth 2
                                        ;     Child Loop BB2_53 Depth 2
                                        ;     Child Loop BB2_58 Depth 2
                                        ;     Child Loop BB2_70 Depth 2
                                        ;     Child Loop BB2_95 Depth 2
	;DEBUG_VALUE: emulate_AMX_VECINT:x_offset <- [DW_OP_plus_uconst 240] [$sp+0]
	;DEBUG_VALUE: emulate_AMX_VECINT:ybytes <- [DW_OP_constu 3, DW_OP_shr, DW_OP_stack_value] 0
	;DEBUG_VALUE: emulate_AMX_VECINT:xbytes <- [DW_OP_constu 3, DW_OP_shr, DW_OP_stack_value] 0
	;DEBUG_VALUE: emulate_AMX_VECINT:alumode <- [DW_OP_plus_uconst 316] [$sp+0]
	;DEBUG_VALUE: emulate_AMX_VECINT:xbits <- 0
	;DEBUG_VALUE: emulate_AMX_VECINT:ybits <- 0
	;DEBUG_VALUE: emulate_AMX_VECINT:z_row <- [DW_OP_plus_uconst 248] [$sp+0]
	;DEBUG_VALUE: emulate_AMX_VECINT:y_step <- [DW_OP_plus_uconst 208] [$sp+0]
	;DEBUG_VALUE: emulate_AMX_VECINT:x_step <- [DW_OP_plus_uconst 200] [$sp+0]
	;DEBUG_VALUE: emulate_AMX_VECINT:state <- [DW_OP_plus_uconst 336] [$sp+0]
	;DEBUG_VALUE: emulate_AMX_VECINT:z_row <- [DW_OP_plus_uconst 248] [$sp+0]
	;DEBUG_VALUE: emulate_AMX_VECINT:x_offset <- [DW_OP_plus_uconst 240] [$sp+0]
	;DEBUG_VALUE: emulate_AMX_VECINT:y_offset <- [DW_OP_plus_uconst 232] [$sp+0]
	.loc	3 0 5                           ; vecint.c:0:5
	ldr	x8, [sp, #240]                  ; 8-byte Folded Reload
Ltmp136:
	;DEBUG_VALUE: emulate_AMX_VECINT:x_offset <- $x8
	.loc	3 149 43 is_stmt 1              ; vecint.c:149:43
	and	x8, x8, #0x1ff
Ltmp137:
	;DEBUG_VALUE: emulate_AMX_VECINT:x_offset <- [DW_OP_plus_uconst 240] [$sp+0]
	.loc	3 0 43 is_stmt 0                ; vecint.c:0:43
	mov	w20, #512
Ltmp138:
	;DEBUG_VALUE: load_xy_reg:src <- [DW_OP_plus_uconst 336] [$sp+0]
	;DEBUG_VALUE: load_xy_reg:dst <- [DW_OP_constu 224, DW_OP_minus, DW_OP_stack_value] $fp
	;DEBUG_VALUE: load_xy_reg:offset <- $x8
	.loc	4 42 26 is_stmt 1               ; ./emulate.h:42:26
	sub	x9, x20, x8
Ltmp139:
	;DEBUG_VALUE: load_xy_reg:avail <- $x9
	.loc	4 0 26 is_stmt 0                ; ./emulate.h:0:26
	ldr	x19, [sp, #336]                 ; 8-byte Folded Reload
	.loc	4 43 5 is_stmt 1                ; ./emulate.h:43:5
	add	x1, x19, x8
	.loc	4 44 5                          ; ./emulate.h:44:5
	sub	x10, x8, #448
	.loc	4 43 5                          ; ./emulate.h:43:5
	cmp	x8, #449
	csel	x2, x22, x9, lo
	add	x26, sp, #400
	.loc	4 44 5                          ; ./emulate.h:44:5
	add	x28, x11, x9
	csel	x21, xzr, x10, lo
	.loc	4 43 5                          ; ./emulate.h:43:5
	sub	x0, x29, #224
	mov	w3, #64
	bl	___memcpy_chk
Ltmp140:
	.loc	4 44 5                          ; ./emulate.h:44:5
	mov	x0, x28
	mov	x1, x19
	mov	x2, x21
	bl	_memcpy
Ltmp141:
	;DEBUG_VALUE: emulate_AMX_VECINT:x_offset <- [DW_OP_LLVM_arg 0, DW_OP_plus_uconst 240, DW_OP_deref, DW_OP_LLVM_arg 1, DW_OP_plus_uconst 200, DW_OP_deref, DW_OP_plus, DW_OP_stack_value] $sp, $sp
	.loc	4 0 5 is_stmt 0                 ; ./emulate.h:0:5
	ldr	x8, [sp, #232]                  ; 8-byte Folded Reload
Ltmp142:
	;DEBUG_VALUE: emulate_AMX_VECINT:y_offset <- $x8
	.loc	3 150 43 is_stmt 1              ; vecint.c:150:43
	and	x8, x8, #0x1ff
Ltmp143:
	;DEBUG_VALUE: load_xy_reg:src <- [DW_OP_plus_uconst 192] [$sp+0]
	;DEBUG_VALUE: load_xy_reg:dst <- [DW_OP_constu 288, DW_OP_minus, DW_OP_stack_value] $fp
	;DEBUG_VALUE: load_xy_reg:offset <- $x8
	;DEBUG_VALUE: emulate_AMX_VECINT:y_offset <- [DW_OP_plus_uconst 232] [$sp+0]
	.loc	4 42 26                         ; ./emulate.h:42:26
	sub	x9, x20, x8
Ltmp144:
	;DEBUG_VALUE: load_xy_reg:avail <- $x9
	.loc	4 0 26 is_stmt 0                ; ./emulate.h:0:26
	ldr	x19, [sp, #192]                 ; 8-byte Folded Reload
	.loc	4 43 5 is_stmt 1                ; ./emulate.h:43:5
	add	x1, x19, x8
	.loc	4 44 5                          ; ./emulate.h:44:5
	sub	x10, x8, #448
	.loc	4 43 5                          ; ./emulate.h:43:5
	cmp	x8, #449
	csel	x2, x22, x9, lo
	.loc	4 44 5                          ; ./emulate.h:44:5
	add	x21, x26, x9
	csel	x28, xzr, x10, lo
	.loc	4 43 5                          ; ./emulate.h:43:5
	add	x0, sp, #400
	mov	w3, #64
	bl	___memcpy_chk
Ltmp145:
	.loc	4 44 5                          ; ./emulate.h:44:5
	mov	x0, x21
	mov	x1, x19
	mov	x2, x28
	bl	_memcpy
Ltmp146:
	;DEBUG_VALUE: emulate_AMX_VECINT:y_offset <- [DW_OP_LLVM_arg 0, DW_OP_plus_uconst 232, DW_OP_deref, DW_OP_LLVM_arg 1, DW_OP_plus_uconst 208, DW_OP_deref, DW_OP_plus, DW_OP_stack_value] $sp, $sp
	.loc	4 0 5 is_stmt 0                 ; ./emulate.h:0:5
	ldp	x10, x9, [sp, #200]             ; 16-byte Folded Reload
	ldr	x8, [sp, #384]                  ; 8-byte Folded Reload
Ltmp147:
	.loc	3 151 13 is_stmt 1              ; vecint.c:151:13
	tbz	x8, #53, LBB2_48
Ltmp148:
; %bb.45:                               ;   in Loop: Header=BB2_44 Depth=1
	;DEBUG_VALUE: emulate_AMX_VECINT:y_offset <- [DW_OP_LLVM_arg 0, DW_OP_plus_uconst 232, DW_OP_deref, DW_OP_LLVM_arg 0, DW_OP_plus_uconst 208, DW_OP_deref, DW_OP_plus, DW_OP_stack_value] $sp
	;DEBUG_VALUE: emulate_AMX_VECINT:x_offset <- [DW_OP_LLVM_arg 0, DW_OP_plus_uconst 240, DW_OP_deref, DW_OP_LLVM_arg 0, DW_OP_plus_uconst 200, DW_OP_deref, DW_OP_plus, DW_OP_stack_value] $sp
	;DEBUG_VALUE: emulate_AMX_VECINT:ybytes <- [DW_OP_constu 3, DW_OP_shr, DW_OP_stack_value] 0
	;DEBUG_VALUE: emulate_AMX_VECINT:xbytes <- [DW_OP_constu 3, DW_OP_shr, DW_OP_stack_value] 0
	;DEBUG_VALUE: emulate_AMX_VECINT:alumode <- [DW_OP_plus_uconst 316] [$sp+0]
	;DEBUG_VALUE: emulate_AMX_VECINT:xbits <- 0
	;DEBUG_VALUE: emulate_AMX_VECINT:ybits <- 0
	;DEBUG_VALUE: emulate_AMX_VECINT:z_row <- [DW_OP_plus_uconst 248] [$sp+0]
	;DEBUG_VALUE: emulate_AMX_VECINT:y_step <- [DW_OP_plus_uconst 208] [$sp+0]
	;DEBUG_VALUE: emulate_AMX_VECINT:x_step <- [DW_OP_plus_uconst 200] [$sp+0]
	;DEBUG_VALUE: emulate_AMX_VECINT:state <- [DW_OP_plus_uconst 336] [$sp+0]
	;DEBUG_VALUE: ibits <- [DW_OP_plus_uconst 136] [$sp+0]
	;DEBUG_VALUE: src_reg <- [DW_OP_constu 304, DW_OP_minus, DW_OP_deref_size 8, DW_OP_constu 49, DW_OP_shr, DW_OP_constu 7, DW_OP_and, DW_OP_stack_value] $fp
	.loc	3 0 13 is_stmt 0                ; vecint.c:0:13
	ldr	x8, [sp, #384]                  ; 8-byte Folded Reload
	;DEBUG_VALUE: src_reg <- [DW_OP_constu 304, DW_OP_minus, DW_OP_deref_size 8, DW_OP_constu 49, DW_OP_shr, DW_OP_constu 7, DW_OP_and, DW_OP_stack_value] $fp
Ltmp149:
	.loc	3 154 17 is_stmt 1              ; vecint.c:154:17
	tbnz	x8, #47, LBB2_47
Ltmp150:
; %bb.46:                               ;   in Loop: Header=BB2_44 Depth=1
	;DEBUG_VALUE: src_reg <- [DW_OP_constu 304, DW_OP_minus, DW_OP_deref_size 8, DW_OP_constu 49, DW_OP_shr, DW_OP_constu 7, DW_OP_and, DW_OP_stack_value] $fp
	;DEBUG_VALUE: ibits <- [DW_OP_plus_uconst 136] [$sp+0]
	;DEBUG_VALUE: emulate_AMX_VECINT:y_offset <- [DW_OP_LLVM_arg 0, DW_OP_plus_uconst 232, DW_OP_deref, DW_OP_LLVM_arg 0, DW_OP_plus_uconst 208, DW_OP_deref, DW_OP_plus, DW_OP_stack_value] $sp
	;DEBUG_VALUE: emulate_AMX_VECINT:x_offset <- [DW_OP_LLVM_arg 0, DW_OP_plus_uconst 240, DW_OP_deref, DW_OP_LLVM_arg 0, DW_OP_plus_uconst 200, DW_OP_deref, DW_OP_plus, DW_OP_stack_value] $sp
	;DEBUG_VALUE: emulate_AMX_VECINT:ybytes <- [DW_OP_constu 3, DW_OP_shr, DW_OP_stack_value] 0
	;DEBUG_VALUE: emulate_AMX_VECINT:xbytes <- [DW_OP_constu 3, DW_OP_shr, DW_OP_stack_value] 0
	;DEBUG_VALUE: emulate_AMX_VECINT:alumode <- [DW_OP_plus_uconst 316] [$sp+0]
	;DEBUG_VALUE: emulate_AMX_VECINT:xbits <- 0
	;DEBUG_VALUE: emulate_AMX_VECINT:ybits <- 0
	;DEBUG_VALUE: emulate_AMX_VECINT:z_row <- [DW_OP_plus_uconst 248] [$sp+0]
	;DEBUG_VALUE: emulate_AMX_VECINT:y_step <- [DW_OP_plus_uconst 208] [$sp+0]
	;DEBUG_VALUE: emulate_AMX_VECINT:x_step <- [DW_OP_plus_uconst 200] [$sp+0]
	;DEBUG_VALUE: emulate_AMX_VECINT:state <- [DW_OP_plus_uconst 336] [$sp+0]
	.loc	3 158 17                        ; vecint.c:158:17
	sub	x0, x29, #224
	ldr	x1, [sp, #72]                   ; 8-byte Folded Reload
	ldr	x2, [sp, #136]                  ; 8-byte Folded Reload
                                        ; kill: def $w2 killed $w2 killed $x2
	ldr	w3, [sp, #112]                  ; 4-byte Folded Reload
	bl	_load_xy_reg_indexed
Ltmp151:
	;DEBUG_VALUE: emulate_AMX_VECINT:x_offset <- [DW_OP_LLVM_arg 0, DW_OP_plus_uconst 240, DW_OP_deref, DW_OP_LLVM_arg 1, DW_OP_plus_uconst 96, DW_OP_deref, DW_OP_plus, DW_OP_stack_value] $sp, $sp
	.loc	3 0 17 is_stmt 0                ; vecint.c:0:17
	ldr	x9, [sp, #208]                  ; 8-byte Folded Reload
	ldr	x10, [sp, #96]                  ; 8-byte Folded Reload
	b	LBB2_48
Ltmp152:
LBB2_47:                                ;   in Loop: Header=BB2_44 Depth=1
	;DEBUG_VALUE: src_reg <- [DW_OP_constu 304, DW_OP_minus, DW_OP_deref_size 8, DW_OP_constu 49, DW_OP_shr, DW_OP_constu 7, DW_OP_and, DW_OP_stack_value] $fp
	;DEBUG_VALUE: ibits <- [DW_OP_plus_uconst 136] [$sp+0]
	;DEBUG_VALUE: emulate_AMX_VECINT:y_offset <- [DW_OP_LLVM_arg 0, DW_OP_plus_uconst 232, DW_OP_deref, DW_OP_LLVM_arg 0, DW_OP_plus_uconst 208, DW_OP_deref, DW_OP_plus, DW_OP_stack_value] $sp
	;DEBUG_VALUE: emulate_AMX_VECINT:x_offset <- [DW_OP_LLVM_arg 0, DW_OP_plus_uconst 240, DW_OP_deref, DW_OP_LLVM_arg 0, DW_OP_plus_uconst 200, DW_OP_deref, DW_OP_plus, DW_OP_stack_value] $sp
	;DEBUG_VALUE: emulate_AMX_VECINT:ybytes <- [DW_OP_constu 3, DW_OP_shr, DW_OP_stack_value] 0
	;DEBUG_VALUE: emulate_AMX_VECINT:xbytes <- [DW_OP_constu 3, DW_OP_shr, DW_OP_stack_value] 0
	;DEBUG_VALUE: emulate_AMX_VECINT:alumode <- [DW_OP_plus_uconst 316] [$sp+0]
	;DEBUG_VALUE: emulate_AMX_VECINT:xbits <- 0
	;DEBUG_VALUE: emulate_AMX_VECINT:ybits <- 0
	;DEBUG_VALUE: emulate_AMX_VECINT:z_row <- [DW_OP_plus_uconst 248] [$sp+0]
	;DEBUG_VALUE: emulate_AMX_VECINT:y_step <- [DW_OP_plus_uconst 208] [$sp+0]
	;DEBUG_VALUE: emulate_AMX_VECINT:x_step <- [DW_OP_plus_uconst 200] [$sp+0]
	;DEBUG_VALUE: emulate_AMX_VECINT:state <- [DW_OP_plus_uconst 336] [$sp+0]
	.loc	3 155 17 is_stmt 1              ; vecint.c:155:17
	add	x0, sp, #400
	ldr	x1, [sp, #80]                   ; 8-byte Folded Reload
	ldr	x2, [sp, #136]                  ; 8-byte Folded Reload
                                        ; kill: def $w2 killed $w2 killed $x2
	ldr	w3, [sp, #116]                  ; 4-byte Folded Reload
	bl	_load_xy_reg_indexed
Ltmp153:
	;DEBUG_VALUE: emulate_AMX_VECINT:y_offset <- [DW_OP_LLVM_arg 0, DW_OP_plus_uconst 232, DW_OP_deref, DW_OP_LLVM_arg 1, DW_OP_plus_uconst 88, DW_OP_deref, DW_OP_plus, DW_OP_stack_value] $sp, $sp
	.loc	3 0 17 is_stmt 0                ; vecint.c:0:17
	ldr	x9, [sp, #88]                   ; 8-byte Folded Reload
	ldr	x10, [sp, #200]                 ; 8-byte Folded Reload
Ltmp154:
LBB2_48:                                ;   in Loop: Header=BB2_44 Depth=1
	;DEBUG_VALUE: emulate_AMX_VECINT:ybytes <- [DW_OP_constu 3, DW_OP_shr, DW_OP_stack_value] 0
	;DEBUG_VALUE: emulate_AMX_VECINT:xbytes <- [DW_OP_constu 3, DW_OP_shr, DW_OP_stack_value] 0
	;DEBUG_VALUE: emulate_AMX_VECINT:alumode <- [DW_OP_plus_uconst 316] [$sp+0]
	;DEBUG_VALUE: emulate_AMX_VECINT:xbits <- 0
	;DEBUG_VALUE: emulate_AMX_VECINT:ybits <- 0
	;DEBUG_VALUE: emulate_AMX_VECINT:z_row <- [DW_OP_plus_uconst 248] [$sp+0]
	;DEBUG_VALUE: emulate_AMX_VECINT:y_step <- [DW_OP_plus_uconst 208] [$sp+0]
	;DEBUG_VALUE: emulate_AMX_VECINT:x_step <- [DW_OP_plus_uconst 200] [$sp+0]
	;DEBUG_VALUE: emulate_AMX_VECINT:state <- [DW_OP_plus_uconst 336] [$sp+0]
	;DEBUG_VALUE: emulate_AMX_VECINT:x_offset <- undef
	;DEBUG_VALUE: emulate_AMX_VECINT:y_offset <- undef
	;DEBUG_VALUE: xy_shuffle:dst <- [DW_OP_constu 224, DW_OP_minus, DW_OP_stack_value] $fp
	;DEBUG_VALUE: xy_shuffle:shuffle <- [DW_OP_plus_uconst 164] [$sp+0]
	;DEBUG_VALUE: xy_shuffle:ebytes <- [DW_OP_constu 3, DW_OP_shr, DW_OP_stack_value] 0
	str	x10, [sp, #216]                 ; 8-byte Folded Spill
	str	x9, [sp, #320]                  ; 8-byte Folded Spill
	ldp	w21, w8, [sp, #160]             ; 8-byte Folded Reload
	;DEBUG_VALUE: xy_shuffle:shuffle <- $w8
	sub	x26, x29, #160
Ltmp155:
	;DEBUG_VALUE: xy_shuffle:shuffle <- [DW_OP_plus_uconst 164] [$sp+0]
	.loc	4 50 9 is_stmt 1                ; ./emulate.h:50:9
	cbz	w8, LBB2_51
Ltmp156:
; %bb.49:                               ;   in Loop: Header=BB2_44 Depth=1
	;DEBUG_VALUE: xy_shuffle:ebytes <- [DW_OP_constu 3, DW_OP_shr, DW_OP_stack_value] 0
	;DEBUG_VALUE: xy_shuffle:shuffle <- [DW_OP_plus_uconst 164] [$sp+0]
	;DEBUG_VALUE: xy_shuffle:dst <- [DW_OP_constu 224, DW_OP_minus, DW_OP_stack_value] $fp
	;DEBUG_VALUE: emulate_AMX_VECINT:ybytes <- [DW_OP_constu 3, DW_OP_shr, DW_OP_stack_value] 0
	;DEBUG_VALUE: emulate_AMX_VECINT:xbytes <- [DW_OP_constu 3, DW_OP_shr, DW_OP_stack_value] 0
	;DEBUG_VALUE: emulate_AMX_VECINT:alumode <- [DW_OP_plus_uconst 316] [$sp+0]
	;DEBUG_VALUE: emulate_AMX_VECINT:xbits <- 0
	;DEBUG_VALUE: emulate_AMX_VECINT:ybits <- 0
	;DEBUG_VALUE: emulate_AMX_VECINT:z_row <- [DW_OP_plus_uconst 248] [$sp+0]
	;DEBUG_VALUE: emulate_AMX_VECINT:y_step <- [DW_OP_plus_uconst 208] [$sp+0]
	;DEBUG_VALUE: emulate_AMX_VECINT:x_step <- [DW_OP_plus_uconst 200] [$sp+0]
	;DEBUG_VALUE: emulate_AMX_VECINT:state <- [DW_OP_plus_uconst 336] [$sp+0]
	.loc	4 0 9 is_stmt 0                 ; ./emulate.h:0:9
	mov	x19, #0
	mov	w20, #0
Ltmp157:
	.loc	4 52 9 is_stmt 1                ; ./emulate.h:52:9
	ldp	q0, q1, [x29, #-224]
	stp	q0, q1, [x29, #-160]
	ldp	q0, q1, [x29, #-192]
	stp	q0, q1, [x29, #-128]
Ltmp158:
	;DEBUG_VALUE: step <- [DW_OP_plus_uconst 160] [$sp+0]
	.loc	4 0 9 is_stmt 0                 ; ./emulate.h:0:9
	sub	x28, x29, #224
	;DEBUG_VALUE: soff <- 0
	;DEBUG_VALUE: doff <- 0
Ltmp159:
LBB2_50:                                ;   Parent Loop BB2_44 Depth=1
                                        ; =>  This Inner Loop Header: Depth=2
	;DEBUG_VALUE: step <- [DW_OP_plus_uconst 160] [$sp+0]
	;DEBUG_VALUE: xy_shuffle:ebytes <- [DW_OP_constu 3, DW_OP_shr, DW_OP_stack_value] 0
	;DEBUG_VALUE: xy_shuffle:shuffle <- [DW_OP_plus_uconst 164] [$sp+0]
	;DEBUG_VALUE: xy_shuffle:dst <- [DW_OP_constu 224, DW_OP_minus, DW_OP_stack_value] $fp
	;DEBUG_VALUE: emulate_AMX_VECINT:ybytes <- [DW_OP_constu 3, DW_OP_shr, DW_OP_stack_value] 0
	;DEBUG_VALUE: emulate_AMX_VECINT:xbytes <- [DW_OP_constu 3, DW_OP_shr, DW_OP_stack_value] 0
	;DEBUG_VALUE: emulate_AMX_VECINT:alumode <- [DW_OP_plus_uconst 316] [$sp+0]
	;DEBUG_VALUE: emulate_AMX_VECINT:xbits <- 0
	;DEBUG_VALUE: emulate_AMX_VECINT:ybits <- 0
	;DEBUG_VALUE: emulate_AMX_VECINT:z_row <- [DW_OP_plus_uconst 248] [$sp+0]
	;DEBUG_VALUE: emulate_AMX_VECINT:y_step <- [DW_OP_plus_uconst 208] [$sp+0]
	;DEBUG_VALUE: emulate_AMX_VECINT:x_step <- [DW_OP_plus_uconst 200] [$sp+0]
	;DEBUG_VALUE: emulate_AMX_VECINT:state <- [DW_OP_plus_uconst 336] [$sp+0]
	;DEBUG_VALUE: doff <- $x19
	;DEBUG_VALUE: soff <- $w20
	.loc	4 55 13 is_stmt 1               ; ./emulate.h:55:13
	add	x0, x28, x19
	add	x1, x26, w20, uxtw
	mov	x2, x24
	bl	_memcpy
Ltmp160:
	.loc	4 56 18                         ; ./emulate.h:56:18
	add	w8, w20, w21
Ltmp161:
	;DEBUG_VALUE: soff <- $w8
	.loc	4 57 17                         ; ./emulate.h:57:17
	cmp	w8, #64
	csel	w9, w22, w24, lo
Ltmp162:
	;DEBUG_VALUE: soff <- [DW_OP_LLVM_arg 0, DW_OP_LLVM_arg 1, DW_OP_plus, DW_OP_stack_value] $w9, $w8
	add	w8, w9, w8
Ltmp163:
	.loc	4 60 18                         ; ./emulate.h:60:18
	and	w20, w8, #0x3f
Ltmp164:
	;DEBUG_VALUE: soff <- $w20
	.loc	4 54 59                         ; ./emulate.h:54:59
	add	x19, x19, x27
Ltmp165:
	;DEBUG_VALUE: doff <- $x19
	.loc	4 54 9 is_stmt 0                ; ./emulate.h:54:9
	cmp	x19, #64
	b.lo	LBB2_50
Ltmp166:
LBB2_51:                                ;   in Loop: Header=BB2_44 Depth=1
	;DEBUG_VALUE: emulate_AMX_VECINT:ybytes <- [DW_OP_constu 3, DW_OP_shr, DW_OP_stack_value] 0
	;DEBUG_VALUE: emulate_AMX_VECINT:xbytes <- [DW_OP_constu 3, DW_OP_shr, DW_OP_stack_value] 0
	;DEBUG_VALUE: emulate_AMX_VECINT:alumode <- [DW_OP_plus_uconst 316] [$sp+0]
	;DEBUG_VALUE: emulate_AMX_VECINT:xbits <- 0
	;DEBUG_VALUE: emulate_AMX_VECINT:ybits <- 0
	;DEBUG_VALUE: emulate_AMX_VECINT:z_row <- [DW_OP_plus_uconst 248] [$sp+0]
	;DEBUG_VALUE: emulate_AMX_VECINT:y_step <- [DW_OP_plus_uconst 208] [$sp+0]
	;DEBUG_VALUE: emulate_AMX_VECINT:x_step <- [DW_OP_plus_uconst 200] [$sp+0]
	;DEBUG_VALUE: emulate_AMX_VECINT:state <- [DW_OP_plus_uconst 336] [$sp+0]
	;DEBUG_VALUE: emulate_AMX_VECINT:x_offset <- undef
	;DEBUG_VALUE: emulate_AMX_VECINT:y_offset <- undef
	;DEBUG_VALUE: xy_shuffle:dst <- [DW_OP_constu 288, DW_OP_minus, DW_OP_stack_value] $fp
	;DEBUG_VALUE: xy_shuffle:shuffle <- [DW_OP_plus_uconst 156] [$sp+0]
	;DEBUG_VALUE: xy_shuffle:ebytes <- [DW_OP_constu 3, DW_OP_shr, DW_OP_stack_value] 0
	.loc	4 0 9                           ; ./emulate.h:0:9
	ldr	x21, [sp, #168]                 ; 8-byte Folded Reload
	ldp	w27, w8, [sp, #152]             ; 8-byte Folded Reload
	;DEBUG_VALUE: xy_shuffle:shuffle <- $w8
	add	x28, sp, #400
Ltmp167:
	;DEBUG_VALUE: xy_shuffle:shuffle <- [DW_OP_plus_uconst 156] [$sp+0]
	.loc	4 50 9 is_stmt 1                ; ./emulate.h:50:9
	cbz	w8, LBB2_54
Ltmp168:
; %bb.52:                               ;   in Loop: Header=BB2_44 Depth=1
	;DEBUG_VALUE: xy_shuffle:ebytes <- [DW_OP_constu 3, DW_OP_shr, DW_OP_stack_value] 0
	;DEBUG_VALUE: xy_shuffle:shuffle <- [DW_OP_plus_uconst 156] [$sp+0]
	;DEBUG_VALUE: xy_shuffle:dst <- [DW_OP_constu 288, DW_OP_minus, DW_OP_stack_value] $fp
	;DEBUG_VALUE: emulate_AMX_VECINT:ybytes <- [DW_OP_constu 3, DW_OP_shr, DW_OP_stack_value] 0
	;DEBUG_VALUE: emulate_AMX_VECINT:xbytes <- [DW_OP_constu 3, DW_OP_shr, DW_OP_stack_value] 0
	;DEBUG_VALUE: emulate_AMX_VECINT:alumode <- [DW_OP_plus_uconst 316] [$sp+0]
	;DEBUG_VALUE: emulate_AMX_VECINT:xbits <- 0
	;DEBUG_VALUE: emulate_AMX_VECINT:ybits <- 0
	;DEBUG_VALUE: emulate_AMX_VECINT:z_row <- [DW_OP_plus_uconst 248] [$sp+0]
	;DEBUG_VALUE: emulate_AMX_VECINT:y_step <- [DW_OP_plus_uconst 208] [$sp+0]
	;DEBUG_VALUE: emulate_AMX_VECINT:x_step <- [DW_OP_plus_uconst 200] [$sp+0]
	;DEBUG_VALUE: emulate_AMX_VECINT:state <- [DW_OP_plus_uconst 336] [$sp+0]
	.loc	4 0 9 is_stmt 0                 ; ./emulate.h:0:9
	mov	x19, #0
	mov	w20, #0
Ltmp169:
	.loc	4 52 9 is_stmt 1                ; ./emulate.h:52:9
	ldp	q0, q1, [sp, #400]
	stp	q0, q1, [x29, #-160]
	ldp	q0, q1, [sp, #432]
	stp	q0, q1, [x29, #-128]
	;DEBUG_VALUE: soff <- 0
	;DEBUG_VALUE: doff <- 0
Ltmp170:
	;DEBUG_VALUE: step <- [DW_OP_plus_uconst 152] [$sp+0]
LBB2_53:                                ;   Parent Loop BB2_44 Depth=1
                                        ; =>  This Inner Loop Header: Depth=2
	;DEBUG_VALUE: step <- [DW_OP_plus_uconst 152] [$sp+0]
	;DEBUG_VALUE: xy_shuffle:ebytes <- [DW_OP_constu 3, DW_OP_shr, DW_OP_stack_value] 0
	;DEBUG_VALUE: xy_shuffle:shuffle <- [DW_OP_plus_uconst 156] [$sp+0]
	;DEBUG_VALUE: xy_shuffle:dst <- [DW_OP_constu 288, DW_OP_minus, DW_OP_stack_value] $fp
	;DEBUG_VALUE: emulate_AMX_VECINT:ybytes <- [DW_OP_constu 3, DW_OP_shr, DW_OP_stack_value] 0
	;DEBUG_VALUE: emulate_AMX_VECINT:xbytes <- [DW_OP_constu 3, DW_OP_shr, DW_OP_stack_value] 0
	;DEBUG_VALUE: emulate_AMX_VECINT:alumode <- [DW_OP_plus_uconst 316] [$sp+0]
	;DEBUG_VALUE: emulate_AMX_VECINT:xbits <- 0
	;DEBUG_VALUE: emulate_AMX_VECINT:ybits <- 0
	;DEBUG_VALUE: emulate_AMX_VECINT:z_row <- [DW_OP_plus_uconst 248] [$sp+0]
	;DEBUG_VALUE: emulate_AMX_VECINT:y_step <- [DW_OP_plus_uconst 208] [$sp+0]
	;DEBUG_VALUE: emulate_AMX_VECINT:x_step <- [DW_OP_plus_uconst 200] [$sp+0]
	;DEBUG_VALUE: emulate_AMX_VECINT:state <- [DW_OP_plus_uconst 336] [$sp+0]
	;DEBUG_VALUE: doff <- $x19
	;DEBUG_VALUE: soff <- $w20
	.loc	4 55 13                         ; ./emulate.h:55:13
	add	x0, x28, x19
	add	x1, x26, w20, uxtw
	mov	x2, x25
	bl	_memcpy
Ltmp171:
	.loc	4 56 18                         ; ./emulate.h:56:18
	add	w8, w20, w27
Ltmp172:
	;DEBUG_VALUE: soff <- $w8
	.loc	4 57 17                         ; ./emulate.h:57:17
	cmp	w8, #64
	csel	w9, w22, w25, lo
Ltmp173:
	;DEBUG_VALUE: soff <- [DW_OP_LLVM_arg 0, DW_OP_LLVM_arg 1, DW_OP_plus, DW_OP_stack_value] $w9, $w8
	add	w8, w9, w8
Ltmp174:
	.loc	4 60 18                         ; ./emulate.h:60:18
	and	w20, w8, #0x3f
Ltmp175:
	;DEBUG_VALUE: soff <- $w20
	.loc	4 54 59                         ; ./emulate.h:54:59
	add	x19, x19, x21
Ltmp176:
	;DEBUG_VALUE: doff <- $x19
	.loc	4 54 9 is_stmt 0                ; ./emulate.h:54:9
	cmp	x19, #64
	b.lo	LBB2_53
Ltmp177:
LBB2_54:                                ;   in Loop: Header=BB2_44 Depth=1
	;DEBUG_VALUE: emulate_AMX_VECINT:ybytes <- [DW_OP_constu 3, DW_OP_shr, DW_OP_stack_value] 0
	;DEBUG_VALUE: emulate_AMX_VECINT:xbytes <- [DW_OP_constu 3, DW_OP_shr, DW_OP_stack_value] 0
	;DEBUG_VALUE: emulate_AMX_VECINT:alumode <- [DW_OP_plus_uconst 316] [$sp+0]
	;DEBUG_VALUE: emulate_AMX_VECINT:xbits <- 0
	;DEBUG_VALUE: emulate_AMX_VECINT:ybits <- 0
	;DEBUG_VALUE: emulate_AMX_VECINT:z_row <- [DW_OP_plus_uconst 248] [$sp+0]
	;DEBUG_VALUE: emulate_AMX_VECINT:y_step <- [DW_OP_plus_uconst 208] [$sp+0]
	;DEBUG_VALUE: emulate_AMX_VECINT:x_step <- [DW_OP_plus_uconst 200] [$sp+0]
	;DEBUG_VALUE: emulate_AMX_VECINT:state <- [DW_OP_plus_uconst 336] [$sp+0]
	;DEBUG_VALUE: emulate_AMX_VECINT:x_offset <- undef
	;DEBUG_VALUE: emulate_AMX_VECINT:y_offset <- undef
	;DEBUG_VALUE: parse_writemask:g <- [DW_OP_constu 3, DW_OP_shr, DW_OP_stack_value] 0
	;DEBUG_VALUE: parse_writemask:maskbits <- 9
	;DEBUG_VALUE: parse_writemask:mode <- [DW_OP_plus_uconst 184] [$sp+0]
	;DEBUG_VALUE: parse_writemask:val <- [DW_OP_plus_uconst 128] [$sp+0]
	;DEBUG_VALUE: parse_writemask:all <- -1
	.loc	4 0 9                           ; ./emulate.h:0:9
	ldr	x11, [sp, #184]                 ; 8-byte Folded Reload
Ltmp178:
	.loc	4 70 5 is_stmt 1                ; ./emulate.h:70:5
	cmp	w11, #5
	b.hi	LBB2_59
Ltmp179:
; %bb.55:                               ;   in Loop: Header=BB2_44 Depth=1
	;DEBUG_VALUE: parse_writemask:all <- -1
	;DEBUG_VALUE: parse_writemask:val <- [DW_OP_plus_uconst 128] [$sp+0]
	;DEBUG_VALUE: parse_writemask:mode <- [DW_OP_plus_uconst 184] [$sp+0]
	;DEBUG_VALUE: parse_writemask:maskbits <- 9
	;DEBUG_VALUE: parse_writemask:g <- [DW_OP_constu 3, DW_OP_shr, DW_OP_stack_value] 0
	;DEBUG_VALUE: emulate_AMX_VECINT:ybytes <- [DW_OP_constu 3, DW_OP_shr, DW_OP_stack_value] 0
	;DEBUG_VALUE: emulate_AMX_VECINT:xbytes <- [DW_OP_constu 3, DW_OP_shr, DW_OP_stack_value] 0
	;DEBUG_VALUE: emulate_AMX_VECINT:alumode <- [DW_OP_plus_uconst 316] [$sp+0]
	;DEBUG_VALUE: emulate_AMX_VECINT:xbits <- 0
	;DEBUG_VALUE: emulate_AMX_VECINT:ybits <- 0
	;DEBUG_VALUE: emulate_AMX_VECINT:z_row <- [DW_OP_plus_uconst 248] [$sp+0]
	;DEBUG_VALUE: emulate_AMX_VECINT:y_step <- [DW_OP_plus_uconst 208] [$sp+0]
	;DEBUG_VALUE: emulate_AMX_VECINT:x_step <- [DW_OP_plus_uconst 200] [$sp+0]
	;DEBUG_VALUE: emulate_AMX_VECINT:state <- [DW_OP_plus_uconst 336] [$sp+0]
	.loc	4 0 5 is_stmt 0                 ; ./emulate.h:0:5
Lloh19:
	adrp	x10, lJTI2_2@PAGE
Lloh20:
	add	x10, x10, lJTI2_2@PAGEOFF
	adr	x8, LBB2_56
	ldrb	w9, [x10, x11]
	add	x8, x8, x9, lsl #2
	ldr	x21, [sp, #144]                 ; 8-byte Folded Reload
	ldr	w12, [sp, #332]                 ; 4-byte Folded Reload
	br	x8
Ltmp180:
LBB2_56:                                ;   in Loop: Header=BB2_44 Depth=1
	;DEBUG_VALUE: parse_writemask:all <- -1
	;DEBUG_VALUE: parse_writemask:val <- [DW_OP_plus_uconst 128] [$sp+0]
	;DEBUG_VALUE: parse_writemask:mode <- [DW_OP_plus_uconst 184] [$sp+0]
	;DEBUG_VALUE: parse_writemask:maskbits <- 9
	;DEBUG_VALUE: parse_writemask:g <- [DW_OP_constu 3, DW_OP_shr, DW_OP_stack_value] 0
	;DEBUG_VALUE: emulate_AMX_VECINT:ybytes <- [DW_OP_constu 3, DW_OP_shr, DW_OP_stack_value] 0
	;DEBUG_VALUE: emulate_AMX_VECINT:xbytes <- [DW_OP_constu 3, DW_OP_shr, DW_OP_stack_value] 0
	;DEBUG_VALUE: emulate_AMX_VECINT:alumode <- [DW_OP_plus_uconst 316] [$sp+0]
	;DEBUG_VALUE: emulate_AMX_VECINT:xbits <- 0
	;DEBUG_VALUE: emulate_AMX_VECINT:ybits <- 0
	;DEBUG_VALUE: emulate_AMX_VECINT:z_row <- [DW_OP_plus_uconst 248] [$sp+0]
	;DEBUG_VALUE: emulate_AMX_VECINT:y_step <- [DW_OP_plus_uconst 208] [$sp+0]
	;DEBUG_VALUE: emulate_AMX_VECINT:x_step <- [DW_OP_plus_uconst 200] [$sp+0]
	;DEBUG_VALUE: emulate_AMX_VECINT:state <- [DW_OP_plus_uconst 336] [$sp+0]
	ldr	w8, [sp, #36]                   ; 4-byte Folded Reload
Ltmp181:
	.loc	4 72 22 is_stmt 1               ; ./emulate.h:72:22
	cmp	w8, #1
	b.hi	LBB2_74
Ltmp182:
; %bb.57:                               ;   in Loop: Header=BB2_44 Depth=1
	;DEBUG_VALUE: parse_writemask:all <- -1
	;DEBUG_VALUE: parse_writemask:val <- [DW_OP_plus_uconst 128] [$sp+0]
	;DEBUG_VALUE: parse_writemask:mode <- [DW_OP_plus_uconst 184] [$sp+0]
	;DEBUG_VALUE: parse_writemask:maskbits <- 9
	;DEBUG_VALUE: parse_writemask:g <- [DW_OP_constu 3, DW_OP_shr, DW_OP_stack_value] 0
	;DEBUG_VALUE: emulate_AMX_VECINT:ybytes <- [DW_OP_constu 3, DW_OP_shr, DW_OP_stack_value] 0
	;DEBUG_VALUE: emulate_AMX_VECINT:xbytes <- [DW_OP_constu 3, DW_OP_shr, DW_OP_stack_value] 0
	;DEBUG_VALUE: emulate_AMX_VECINT:alumode <- [DW_OP_plus_uconst 316] [$sp+0]
	;DEBUG_VALUE: emulate_AMX_VECINT:xbits <- 0
	;DEBUG_VALUE: emulate_AMX_VECINT:ybits <- 0
	;DEBUG_VALUE: emulate_AMX_VECINT:z_row <- [DW_OP_plus_uconst 248] [$sp+0]
	;DEBUG_VALUE: emulate_AMX_VECINT:y_step <- [DW_OP_plus_uconst 208] [$sp+0]
	;DEBUG_VALUE: emulate_AMX_VECINT:x_step <- [DW_OP_plus_uconst 200] [$sp+0]
	;DEBUG_VALUE: emulate_AMX_VECINT:state <- [DW_OP_plus_uconst 336] [$sp+0]
	.loc	4 0 22 is_stmt 0                ; ./emulate.h:0:22
	ldr	w9, [sp, #20]                   ; 4-byte Folded Reload
	ldr	x8, [sp, #24]                   ; 8-byte Folded Reload
Ltmp183:
LBB2_58:                                ;   Parent Loop BB2_44 Depth=1
                                        ; =>  This Inner Loop Header: Depth=2
	;DEBUG_VALUE: parse_writemask:val <- [DW_OP_plus_uconst 128] [$sp+0]
	;DEBUG_VALUE: parse_writemask:mode <- [DW_OP_plus_uconst 184] [$sp+0]
	;DEBUG_VALUE: parse_writemask:maskbits <- 9
	;DEBUG_VALUE: emulate_AMX_VECINT:ybytes <- [DW_OP_constu 3, DW_OP_shr, DW_OP_stack_value] 0
	;DEBUG_VALUE: emulate_AMX_VECINT:xbytes <- [DW_OP_constu 3, DW_OP_shr, DW_OP_stack_value] 0
	;DEBUG_VALUE: emulate_AMX_VECINT:alumode <- [DW_OP_plus_uconst 316] [$sp+0]
	;DEBUG_VALUE: emulate_AMX_VECINT:xbits <- 0
	;DEBUG_VALUE: emulate_AMX_VECINT:ybits <- 0
	;DEBUG_VALUE: emulate_AMX_VECINT:z_row <- [DW_OP_plus_uconst 248] [$sp+0]
	;DEBUG_VALUE: emulate_AMX_VECINT:y_step <- [DW_OP_plus_uconst 208] [$sp+0]
	;DEBUG_VALUE: emulate_AMX_VECINT:x_step <- [DW_OP_plus_uconst 200] [$sp+0]
	;DEBUG_VALUE: emulate_AMX_VECINT:state <- [DW_OP_plus_uconst 336] [$sp+0]
	;DEBUG_VALUE: parse_writemask:all <- $x8
	.loc	4 76 28 is_stmt 1               ; ./emulate.h:76:28
	lsl	x10, x8, x9
	.loc	4 76 21 is_stmt 0               ; ./emulate.h:76:21
	orr	x8, x10, x8
Ltmp184:
	;DEBUG_VALUE: parse_writemask:all <- $x8
	;DEBUG_VALUE: parse_writemask:g <- $w9
	.loc	4 75 23 is_stmt 1               ; ./emulate.h:75:23
	lsl	w10, w9, #1
Ltmp185:
	;DEBUG_VALUE: parse_writemask:g <- $w10
	.loc	4 75 13 is_stmt 0               ; ./emulate.h:75:13
	cmp	w9, #32
	mov	x9, x10
Ltmp186:
	;DEBUG_VALUE: parse_writemask:g <- $w9
	b.lo	LBB2_58
	b	LBB2_75
Ltmp187:
LBB2_59:                                ;   in Loop: Header=BB2_44 Depth=1
	;DEBUG_VALUE: emulate_AMX_VECINT:ybytes <- [DW_OP_constu 3, DW_OP_shr, DW_OP_stack_value] 0
	;DEBUG_VALUE: emulate_AMX_VECINT:xbytes <- [DW_OP_constu 3, DW_OP_shr, DW_OP_stack_value] 0
	;DEBUG_VALUE: emulate_AMX_VECINT:alumode <- [DW_OP_plus_uconst 316] [$sp+0]
	;DEBUG_VALUE: emulate_AMX_VECINT:xbits <- 0
	;DEBUG_VALUE: emulate_AMX_VECINT:ybits <- 0
	;DEBUG_VALUE: emulate_AMX_VECINT:z_row <- [DW_OP_plus_uconst 248] [$sp+0]
	;DEBUG_VALUE: emulate_AMX_VECINT:y_step <- [DW_OP_plus_uconst 208] [$sp+0]
	;DEBUG_VALUE: emulate_AMX_VECINT:x_step <- [DW_OP_plus_uconst 200] [$sp+0]
	;DEBUG_VALUE: emulate_AMX_VECINT:state <- [DW_OP_plus_uconst 336] [$sp+0]
	.loc	4 0 13                          ; ./emulate.h:0:13
	mov	x21, #0
	ldr	w12, [sp, #332]                 ; 4-byte Folded Reload
Ltmp188:
	;DEBUG_VALUE: x_enable <- $x21
	;DEBUG_VALUE: parse_writemask:g <- [DW_OP_constu 3, DW_OP_shr, DW_OP_stack_value] 0
	;DEBUG_VALUE: parse_writemask:maskbits <- 9
	;DEBUG_VALUE: parse_writemask:mode <- [DW_OP_plus_uconst 184] [$sp+0]
	;DEBUG_VALUE: parse_writemask:val <- [DW_OP_plus_uconst 132] [$sp+0]
	;DEBUG_VALUE: parse_writemask:all <- -1
	.loc	4 70 5 is_stmt 1                ; ./emulate.h:70:5
	cmp	w11, #5
	b.ls	LBB2_67
	b	LBB2_64
Ltmp189:
LBB2_60:                                ;   in Loop: Header=BB2_44 Depth=1
	;DEBUG_VALUE: parse_writemask:all <- -1
	;DEBUG_VALUE: parse_writemask:val <- [DW_OP_plus_uconst 128] [$sp+0]
	;DEBUG_VALUE: parse_writemask:mode <- [DW_OP_plus_uconst 184] [$sp+0]
	;DEBUG_VALUE: parse_writemask:maskbits <- 9
	;DEBUG_VALUE: parse_writemask:g <- [DW_OP_constu 3, DW_OP_shr, DW_OP_stack_value] 0
	;DEBUG_VALUE: emulate_AMX_VECINT:ybytes <- [DW_OP_constu 3, DW_OP_shr, DW_OP_stack_value] 0
	;DEBUG_VALUE: emulate_AMX_VECINT:xbytes <- [DW_OP_constu 3, DW_OP_shr, DW_OP_stack_value] 0
	;DEBUG_VALUE: emulate_AMX_VECINT:alumode <- [DW_OP_plus_uconst 316] [$sp+0]
	;DEBUG_VALUE: emulate_AMX_VECINT:xbits <- 0
	;DEBUG_VALUE: emulate_AMX_VECINT:ybits <- 0
	;DEBUG_VALUE: emulate_AMX_VECINT:z_row <- [DW_OP_plus_uconst 248] [$sp+0]
	;DEBUG_VALUE: emulate_AMX_VECINT:y_step <- [DW_OP_plus_uconst 208] [$sp+0]
	;DEBUG_VALUE: emulate_AMX_VECINT:x_step <- [DW_OP_plus_uconst 200] [$sp+0]
	;DEBUG_VALUE: emulate_AMX_VECINT:state <- [DW_OP_plus_uconst 336] [$sp+0]
	.loc	4 0 5 is_stmt 0                 ; ./emulate.h:0:5
	ldr	x21, [sp, #104]                 ; 8-byte Folded Reload
	ldr	w8, [sp, #128]                  ; 4-byte Folded Reload
Ltmp190:
	.loc	4 88 13 is_stmt 1               ; ./emulate.h:88:13
	cbnz	w8, LBB2_66
Ltmp191:
; %bb.61:                               ;   in Loop: Header=BB2_44 Depth=1
	;DEBUG_VALUE: parse_writemask:all <- -1
	;DEBUG_VALUE: parse_writemask:val <- [DW_OP_plus_uconst 128] [$sp+0]
	;DEBUG_VALUE: parse_writemask:mode <- [DW_OP_plus_uconst 184] [$sp+0]
	;DEBUG_VALUE: parse_writemask:maskbits <- 9
	;DEBUG_VALUE: parse_writemask:g <- [DW_OP_constu 3, DW_OP_shr, DW_OP_stack_value] 0
	;DEBUG_VALUE: emulate_AMX_VECINT:ybytes <- [DW_OP_constu 3, DW_OP_shr, DW_OP_stack_value] 0
	;DEBUG_VALUE: emulate_AMX_VECINT:xbytes <- [DW_OP_constu 3, DW_OP_shr, DW_OP_stack_value] 0
	;DEBUG_VALUE: emulate_AMX_VECINT:alumode <- [DW_OP_plus_uconst 316] [$sp+0]
	;DEBUG_VALUE: emulate_AMX_VECINT:xbits <- 0
	;DEBUG_VALUE: emulate_AMX_VECINT:ybits <- 0
	;DEBUG_VALUE: emulate_AMX_VECINT:z_row <- [DW_OP_plus_uconst 248] [$sp+0]
	;DEBUG_VALUE: emulate_AMX_VECINT:y_step <- [DW_OP_plus_uconst 208] [$sp+0]
	;DEBUG_VALUE: emulate_AMX_VECINT:x_step <- [DW_OP_plus_uconst 200] [$sp+0]
	;DEBUG_VALUE: emulate_AMX_VECINT:state <- [DW_OP_plus_uconst 336] [$sp+0]
	.loc	4 0 13 is_stmt 0                ; ./emulate.h:0:13
	mov	x21, #-1
	b	LBB2_72
Ltmp192:
LBB2_62:                                ;   in Loop: Header=BB2_44 Depth=1
	;DEBUG_VALUE: parse_writemask:all <- -1
	;DEBUG_VALUE: parse_writemask:val <- [DW_OP_plus_uconst 128] [$sp+0]
	;DEBUG_VALUE: parse_writemask:mode <- [DW_OP_plus_uconst 184] [$sp+0]
	;DEBUG_VALUE: parse_writemask:maskbits <- 9
	;DEBUG_VALUE: parse_writemask:g <- [DW_OP_constu 3, DW_OP_shr, DW_OP_stack_value] 0
	;DEBUG_VALUE: emulate_AMX_VECINT:ybytes <- [DW_OP_constu 3, DW_OP_shr, DW_OP_stack_value] 0
	;DEBUG_VALUE: emulate_AMX_VECINT:xbytes <- [DW_OP_constu 3, DW_OP_shr, DW_OP_stack_value] 0
	;DEBUG_VALUE: emulate_AMX_VECINT:alumode <- [DW_OP_plus_uconst 316] [$sp+0]
	;DEBUG_VALUE: emulate_AMX_VECINT:xbits <- 0
	;DEBUG_VALUE: emulate_AMX_VECINT:ybits <- 0
	;DEBUG_VALUE: emulate_AMX_VECINT:z_row <- [DW_OP_plus_uconst 248] [$sp+0]
	;DEBUG_VALUE: emulate_AMX_VECINT:y_step <- [DW_OP_plus_uconst 208] [$sp+0]
	;DEBUG_VALUE: emulate_AMX_VECINT:x_step <- [DW_OP_plus_uconst 200] [$sp+0]
	;DEBUG_VALUE: emulate_AMX_VECINT:state <- [DW_OP_plus_uconst 336] [$sp+0]
	ldr	w8, [sp, #128]                  ; 4-byte Folded Reload
	.loc	4 93 13 is_stmt 1               ; ./emulate.h:93:13
	cbz	w8, LBB2_76
Ltmp193:
LBB2_63:                                ;   in Loop: Header=BB2_44 Depth=1
	;DEBUG_VALUE: emulate_AMX_VECINT:ybytes <- [DW_OP_constu 3, DW_OP_shr, DW_OP_stack_value] 0
	;DEBUG_VALUE: emulate_AMX_VECINT:xbytes <- [DW_OP_constu 3, DW_OP_shr, DW_OP_stack_value] 0
	;DEBUG_VALUE: emulate_AMX_VECINT:alumode <- [DW_OP_plus_uconst 316] [$sp+0]
	;DEBUG_VALUE: emulate_AMX_VECINT:xbits <- 0
	;DEBUG_VALUE: emulate_AMX_VECINT:ybits <- 0
	;DEBUG_VALUE: emulate_AMX_VECINT:z_row <- [DW_OP_plus_uconst 248] [$sp+0]
	;DEBUG_VALUE: emulate_AMX_VECINT:y_step <- [DW_OP_plus_uconst 208] [$sp+0]
	;DEBUG_VALUE: emulate_AMX_VECINT:x_step <- [DW_OP_plus_uconst 200] [$sp+0]
	;DEBUG_VALUE: emulate_AMX_VECINT:state <- [DW_OP_plus_uconst 336] [$sp+0]
	.loc	4 0 13 is_stmt 0                ; ./emulate.h:0:13
	ldr	x21, [sp, #56]                  ; 8-byte Folded Reload
Ltmp194:
	;DEBUG_VALUE: x_enable <- $x21
	;DEBUG_VALUE: parse_writemask:g <- [DW_OP_constu 3, DW_OP_shr, DW_OP_stack_value] 0
	;DEBUG_VALUE: parse_writemask:maskbits <- 9
	;DEBUG_VALUE: parse_writemask:mode <- [DW_OP_plus_uconst 184] [$sp+0]
	;DEBUG_VALUE: parse_writemask:val <- [DW_OP_plus_uconst 132] [$sp+0]
	;DEBUG_VALUE: parse_writemask:all <- -1
	.loc	4 70 5 is_stmt 1                ; ./emulate.h:70:5
	cmp	w11, #5
	b.ls	LBB2_67
Ltmp195:
LBB2_64:                                ;   in Loop: Header=BB2_44 Depth=1
	;DEBUG_VALUE: parse_writemask:all <- -1
	;DEBUG_VALUE: parse_writemask:val <- [DW_OP_plus_uconst 132] [$sp+0]
	;DEBUG_VALUE: parse_writemask:mode <- [DW_OP_plus_uconst 184] [$sp+0]
	;DEBUG_VALUE: parse_writemask:maskbits <- 9
	;DEBUG_VALUE: parse_writemask:g <- [DW_OP_constu 3, DW_OP_shr, DW_OP_stack_value] 0
	;DEBUG_VALUE: x_enable <- $x21
	;DEBUG_VALUE: emulate_AMX_VECINT:ybytes <- [DW_OP_constu 3, DW_OP_shr, DW_OP_stack_value] 0
	;DEBUG_VALUE: emulate_AMX_VECINT:xbytes <- [DW_OP_constu 3, DW_OP_shr, DW_OP_stack_value] 0
	;DEBUG_VALUE: emulate_AMX_VECINT:alumode <- [DW_OP_plus_uconst 316] [$sp+0]
	;DEBUG_VALUE: emulate_AMX_VECINT:xbits <- 0
	;DEBUG_VALUE: emulate_AMX_VECINT:ybits <- 0
	;DEBUG_VALUE: emulate_AMX_VECINT:z_row <- [DW_OP_plus_uconst 248] [$sp+0]
	;DEBUG_VALUE: emulate_AMX_VECINT:y_step <- [DW_OP_plus_uconst 208] [$sp+0]
	;DEBUG_VALUE: emulate_AMX_VECINT:x_step <- [DW_OP_plus_uconst 200] [$sp+0]
	;DEBUG_VALUE: emulate_AMX_VECINT:state <- [DW_OP_plus_uconst 336] [$sp+0]
	.loc	4 0 5 is_stmt 0                 ; ./emulate.h:0:5
	mov	x27, #0
	b	LBB2_82
Ltmp196:
LBB2_65:                                ;   in Loop: Header=BB2_44 Depth=1
	;DEBUG_VALUE: parse_writemask:all <- -1
	;DEBUG_VALUE: parse_writemask:val <- [DW_OP_plus_uconst 128] [$sp+0]
	;DEBUG_VALUE: parse_writemask:mode <- [DW_OP_plus_uconst 184] [$sp+0]
	;DEBUG_VALUE: parse_writemask:maskbits <- 9
	;DEBUG_VALUE: parse_writemask:g <- [DW_OP_constu 3, DW_OP_shr, DW_OP_stack_value] 0
	;DEBUG_VALUE: emulate_AMX_VECINT:ybytes <- [DW_OP_constu 3, DW_OP_shr, DW_OP_stack_value] 0
	;DEBUG_VALUE: emulate_AMX_VECINT:xbytes <- [DW_OP_constu 3, DW_OP_shr, DW_OP_stack_value] 0
	;DEBUG_VALUE: emulate_AMX_VECINT:alumode <- [DW_OP_plus_uconst 316] [$sp+0]
	;DEBUG_VALUE: emulate_AMX_VECINT:xbits <- 0
	;DEBUG_VALUE: emulate_AMX_VECINT:ybits <- 0
	;DEBUG_VALUE: emulate_AMX_VECINT:z_row <- [DW_OP_plus_uconst 248] [$sp+0]
	;DEBUG_VALUE: emulate_AMX_VECINT:y_step <- [DW_OP_plus_uconst 208] [$sp+0]
	;DEBUG_VALUE: emulate_AMX_VECINT:x_step <- [DW_OP_plus_uconst 200] [$sp+0]
	;DEBUG_VALUE: emulate_AMX_VECINT:state <- [DW_OP_plus_uconst 336] [$sp+0]
	ldr	x21, [sp, #104]                 ; 8-byte Folded Reload
Ltmp197:
LBB2_66:                                ;   in Loop: Header=BB2_44 Depth=1
	;DEBUG_VALUE: emulate_AMX_VECINT:ybytes <- [DW_OP_constu 3, DW_OP_shr, DW_OP_stack_value] 0
	;DEBUG_VALUE: emulate_AMX_VECINT:xbytes <- [DW_OP_constu 3, DW_OP_shr, DW_OP_stack_value] 0
	;DEBUG_VALUE: emulate_AMX_VECINT:alumode <- [DW_OP_plus_uconst 316] [$sp+0]
	;DEBUG_VALUE: emulate_AMX_VECINT:xbits <- 0
	;DEBUG_VALUE: emulate_AMX_VECINT:ybits <- 0
	;DEBUG_VALUE: emulate_AMX_VECINT:z_row <- [DW_OP_plus_uconst 248] [$sp+0]
	;DEBUG_VALUE: emulate_AMX_VECINT:y_step <- [DW_OP_plus_uconst 208] [$sp+0]
	;DEBUG_VALUE: emulate_AMX_VECINT:x_step <- [DW_OP_plus_uconst 200] [$sp+0]
	;DEBUG_VALUE: emulate_AMX_VECINT:state <- [DW_OP_plus_uconst 336] [$sp+0]
	;DEBUG_VALUE: x_enable <- $x21
	;DEBUG_VALUE: parse_writemask:g <- [DW_OP_constu 3, DW_OP_shr, DW_OP_stack_value] 0
	;DEBUG_VALUE: parse_writemask:maskbits <- 9
	;DEBUG_VALUE: parse_writemask:mode <- [DW_OP_plus_uconst 184] [$sp+0]
	;DEBUG_VALUE: parse_writemask:val <- [DW_OP_plus_uconst 132] [$sp+0]
	;DEBUG_VALUE: parse_writemask:all <- -1
	.loc	4 70 5                          ; ./emulate.h:70:5
	cmp	w11, #5
	b.hi	LBB2_64
Ltmp198:
LBB2_67:                                ;   in Loop: Header=BB2_44 Depth=1
	;DEBUG_VALUE: parse_writemask:all <- -1
	;DEBUG_VALUE: parse_writemask:val <- [DW_OP_plus_uconst 132] [$sp+0]
	;DEBUG_VALUE: parse_writemask:mode <- [DW_OP_plus_uconst 184] [$sp+0]
	;DEBUG_VALUE: parse_writemask:maskbits <- 9
	;DEBUG_VALUE: parse_writemask:g <- [DW_OP_constu 3, DW_OP_shr, DW_OP_stack_value] 0
	;DEBUG_VALUE: x_enable <- $x21
	;DEBUG_VALUE: emulate_AMX_VECINT:ybytes <- [DW_OP_constu 3, DW_OP_shr, DW_OP_stack_value] 0
	;DEBUG_VALUE: emulate_AMX_VECINT:xbytes <- [DW_OP_constu 3, DW_OP_shr, DW_OP_stack_value] 0
	;DEBUG_VALUE: emulate_AMX_VECINT:alumode <- [DW_OP_plus_uconst 316] [$sp+0]
	;DEBUG_VALUE: emulate_AMX_VECINT:xbits <- 0
	;DEBUG_VALUE: emulate_AMX_VECINT:ybits <- 0
	;DEBUG_VALUE: emulate_AMX_VECINT:z_row <- [DW_OP_plus_uconst 248] [$sp+0]
	;DEBUG_VALUE: emulate_AMX_VECINT:y_step <- [DW_OP_plus_uconst 208] [$sp+0]
	;DEBUG_VALUE: emulate_AMX_VECINT:x_step <- [DW_OP_plus_uconst 200] [$sp+0]
	;DEBUG_VALUE: emulate_AMX_VECINT:state <- [DW_OP_plus_uconst 336] [$sp+0]
	.loc	4 0 5                           ; ./emulate.h:0:5
Lloh21:
	adrp	x10, lJTI2_3@PAGE
Lloh22:
	add	x10, x10, lJTI2_3@PAGEOFF
	adr	x8, LBB2_68
	ldrb	w9, [x10, x11]
	add	x8, x8, x9, lsl #2
	br	x8
Ltmp199:
LBB2_68:                                ;   in Loop: Header=BB2_44 Depth=1
	;DEBUG_VALUE: parse_writemask:all <- -1
	;DEBUG_VALUE: parse_writemask:val <- [DW_OP_plus_uconst 132] [$sp+0]
	;DEBUG_VALUE: parse_writemask:mode <- [DW_OP_plus_uconst 184] [$sp+0]
	;DEBUG_VALUE: parse_writemask:maskbits <- 9
	;DEBUG_VALUE: parse_writemask:g <- [DW_OP_constu 3, DW_OP_shr, DW_OP_stack_value] 0
	;DEBUG_VALUE: x_enable <- $x21
	;DEBUG_VALUE: emulate_AMX_VECINT:ybytes <- [DW_OP_constu 3, DW_OP_shr, DW_OP_stack_value] 0
	;DEBUG_VALUE: emulate_AMX_VECINT:xbytes <- [DW_OP_constu 3, DW_OP_shr, DW_OP_stack_value] 0
	;DEBUG_VALUE: emulate_AMX_VECINT:alumode <- [DW_OP_plus_uconst 316] [$sp+0]
	;DEBUG_VALUE: emulate_AMX_VECINT:xbits <- 0
	;DEBUG_VALUE: emulate_AMX_VECINT:ybits <- 0
	;DEBUG_VALUE: emulate_AMX_VECINT:z_row <- [DW_OP_plus_uconst 248] [$sp+0]
	;DEBUG_VALUE: emulate_AMX_VECINT:y_step <- [DW_OP_plus_uconst 208] [$sp+0]
	;DEBUG_VALUE: emulate_AMX_VECINT:x_step <- [DW_OP_plus_uconst 200] [$sp+0]
	;DEBUG_VALUE: emulate_AMX_VECINT:state <- [DW_OP_plus_uconst 336] [$sp+0]
	ldr	w8, [sp, #32]                   ; 4-byte Folded Reload
Ltmp200:
	.loc	4 72 22 is_stmt 1               ; ./emulate.h:72:22
	cmp	w8, #1
	b.hi	LBB2_80
Ltmp201:
; %bb.69:                               ;   in Loop: Header=BB2_44 Depth=1
	;DEBUG_VALUE: parse_writemask:all <- -1
	;DEBUG_VALUE: parse_writemask:val <- [DW_OP_plus_uconst 132] [$sp+0]
	;DEBUG_VALUE: parse_writemask:mode <- [DW_OP_plus_uconst 184] [$sp+0]
	;DEBUG_VALUE: parse_writemask:maskbits <- 9
	;DEBUG_VALUE: parse_writemask:g <- [DW_OP_constu 3, DW_OP_shr, DW_OP_stack_value] 0
	;DEBUG_VALUE: x_enable <- $x21
	;DEBUG_VALUE: emulate_AMX_VECINT:ybytes <- [DW_OP_constu 3, DW_OP_shr, DW_OP_stack_value] 0
	;DEBUG_VALUE: emulate_AMX_VECINT:xbytes <- [DW_OP_constu 3, DW_OP_shr, DW_OP_stack_value] 0
	;DEBUG_VALUE: emulate_AMX_VECINT:alumode <- [DW_OP_plus_uconst 316] [$sp+0]
	;DEBUG_VALUE: emulate_AMX_VECINT:xbits <- 0
	;DEBUG_VALUE: emulate_AMX_VECINT:ybits <- 0
	;DEBUG_VALUE: emulate_AMX_VECINT:z_row <- [DW_OP_plus_uconst 248] [$sp+0]
	;DEBUG_VALUE: emulate_AMX_VECINT:y_step <- [DW_OP_plus_uconst 208] [$sp+0]
	;DEBUG_VALUE: emulate_AMX_VECINT:x_step <- [DW_OP_plus_uconst 200] [$sp+0]
	;DEBUG_VALUE: emulate_AMX_VECINT:state <- [DW_OP_plus_uconst 336] [$sp+0]
	.loc	4 0 22 is_stmt 0                ; ./emulate.h:0:22
	ldr	w9, [sp, #4]                    ; 4-byte Folded Reload
	ldr	x8, [sp, #8]                    ; 8-byte Folded Reload
Ltmp202:
LBB2_70:                                ;   Parent Loop BB2_44 Depth=1
                                        ; =>  This Inner Loop Header: Depth=2
	;DEBUG_VALUE: parse_writemask:val <- [DW_OP_plus_uconst 132] [$sp+0]
	;DEBUG_VALUE: parse_writemask:mode <- [DW_OP_plus_uconst 184] [$sp+0]
	;DEBUG_VALUE: parse_writemask:maskbits <- 9
	;DEBUG_VALUE: x_enable <- $x21
	;DEBUG_VALUE: emulate_AMX_VECINT:ybytes <- [DW_OP_constu 3, DW_OP_shr, DW_OP_stack_value] 0
	;DEBUG_VALUE: emulate_AMX_VECINT:xbytes <- [DW_OP_constu 3, DW_OP_shr, DW_OP_stack_value] 0
	;DEBUG_VALUE: emulate_AMX_VECINT:alumode <- [DW_OP_plus_uconst 316] [$sp+0]
	;DEBUG_VALUE: emulate_AMX_VECINT:xbits <- 0
	;DEBUG_VALUE: emulate_AMX_VECINT:ybits <- 0
	;DEBUG_VALUE: emulate_AMX_VECINT:z_row <- [DW_OP_plus_uconst 248] [$sp+0]
	;DEBUG_VALUE: emulate_AMX_VECINT:y_step <- [DW_OP_plus_uconst 208] [$sp+0]
	;DEBUG_VALUE: emulate_AMX_VECINT:x_step <- [DW_OP_plus_uconst 200] [$sp+0]
	;DEBUG_VALUE: emulate_AMX_VECINT:state <- [DW_OP_plus_uconst 336] [$sp+0]
	;DEBUG_VALUE: parse_writemask:all <- $x8
	.loc	4 76 28 is_stmt 1               ; ./emulate.h:76:28
	lsl	x10, x8, x9
	.loc	4 76 21 is_stmt 0               ; ./emulate.h:76:21
	orr	x8, x10, x8
Ltmp203:
	;DEBUG_VALUE: parse_writemask:all <- $x8
	;DEBUG_VALUE: parse_writemask:g <- $w9
	.loc	4 75 23 is_stmt 1               ; ./emulate.h:75:23
	lsl	w10, w9, #1
Ltmp204:
	;DEBUG_VALUE: parse_writemask:g <- $w10
	.loc	4 75 13 is_stmt 0               ; ./emulate.h:75:13
	cmp	w9, #32
	mov	x9, x10
Ltmp205:
	;DEBUG_VALUE: parse_writemask:g <- $w9
	b.lo	LBB2_70
	b	LBB2_81
Ltmp206:
LBB2_71:                                ;   in Loop: Header=BB2_44 Depth=1
	;DEBUG_VALUE: emulate_AMX_VECINT:ybytes <- [DW_OP_constu 3, DW_OP_shr, DW_OP_stack_value] 0
	;DEBUG_VALUE: emulate_AMX_VECINT:xbytes <- [DW_OP_constu 3, DW_OP_shr, DW_OP_stack_value] 0
	;DEBUG_VALUE: emulate_AMX_VECINT:alumode <- [DW_OP_plus_uconst 316] [$sp+0]
	;DEBUG_VALUE: emulate_AMX_VECINT:xbits <- 0
	;DEBUG_VALUE: emulate_AMX_VECINT:ybits <- 0
	;DEBUG_VALUE: emulate_AMX_VECINT:z_row <- [DW_OP_plus_uconst 248] [$sp+0]
	;DEBUG_VALUE: emulate_AMX_VECINT:y_step <- [DW_OP_plus_uconst 208] [$sp+0]
	;DEBUG_VALUE: emulate_AMX_VECINT:x_step <- [DW_OP_plus_uconst 200] [$sp+0]
	;DEBUG_VALUE: emulate_AMX_VECINT:state <- [DW_OP_plus_uconst 336] [$sp+0]
	.loc	4 0 13                          ; ./emulate.h:0:13
	ldr	x27, [sp, #64]                  ; 8-byte Folded Reload
	b	LBB2_82
Ltmp207:
LBB2_72:                                ;   in Loop: Header=BB2_44 Depth=1
	;DEBUG_VALUE: emulate_AMX_VECINT:ybytes <- [DW_OP_constu 3, DW_OP_shr, DW_OP_stack_value] 0
	;DEBUG_VALUE: emulate_AMX_VECINT:xbytes <- [DW_OP_constu 3, DW_OP_shr, DW_OP_stack_value] 0
	;DEBUG_VALUE: emulate_AMX_VECINT:alumode <- [DW_OP_plus_uconst 316] [$sp+0]
	;DEBUG_VALUE: emulate_AMX_VECINT:xbits <- 0
	;DEBUG_VALUE: emulate_AMX_VECINT:ybits <- 0
	;DEBUG_VALUE: emulate_AMX_VECINT:z_row <- [DW_OP_plus_uconst 248] [$sp+0]
	;DEBUG_VALUE: emulate_AMX_VECINT:y_step <- [DW_OP_plus_uconst 208] [$sp+0]
	;DEBUG_VALUE: emulate_AMX_VECINT:x_step <- [DW_OP_plus_uconst 200] [$sp+0]
	;DEBUG_VALUE: emulate_AMX_VECINT:state <- [DW_OP_plus_uconst 336] [$sp+0]
	ldr	w8, [sp, #132]                  ; 4-byte Folded Reload
	cbz	w8, LBB2_79
Ltmp208:
LBB2_73:                                ;   in Loop: Header=BB2_44 Depth=1
	;DEBUG_VALUE: emulate_AMX_VECINT:ybytes <- [DW_OP_constu 3, DW_OP_shr, DW_OP_stack_value] 0
	;DEBUG_VALUE: emulate_AMX_VECINT:xbytes <- [DW_OP_constu 3, DW_OP_shr, DW_OP_stack_value] 0
	;DEBUG_VALUE: emulate_AMX_VECINT:alumode <- [DW_OP_plus_uconst 316] [$sp+0]
	;DEBUG_VALUE: emulate_AMX_VECINT:xbits <- 0
	;DEBUG_VALUE: emulate_AMX_VECINT:ybits <- 0
	;DEBUG_VALUE: emulate_AMX_VECINT:z_row <- [DW_OP_plus_uconst 248] [$sp+0]
	;DEBUG_VALUE: emulate_AMX_VECINT:y_step <- [DW_OP_plus_uconst 208] [$sp+0]
	;DEBUG_VALUE: emulate_AMX_VECINT:x_step <- [DW_OP_plus_uconst 200] [$sp+0]
	;DEBUG_VALUE: emulate_AMX_VECINT:state <- [DW_OP_plus_uconst 336] [$sp+0]
	ldr	x27, [sp, #40]                  ; 8-byte Folded Reload
	b	LBB2_82
Ltmp209:
LBB2_74:                                ;   in Loop: Header=BB2_44 Depth=1
	;DEBUG_VALUE: parse_writemask:all <- -1
	;DEBUG_VALUE: parse_writemask:val <- [DW_OP_plus_uconst 128] [$sp+0]
	;DEBUG_VALUE: parse_writemask:mode <- [DW_OP_plus_uconst 184] [$sp+0]
	;DEBUG_VALUE: parse_writemask:maskbits <- 9
	;DEBUG_VALUE: parse_writemask:g <- [DW_OP_constu 3, DW_OP_shr, DW_OP_stack_value] 0
	;DEBUG_VALUE: emulate_AMX_VECINT:ybytes <- [DW_OP_constu 3, DW_OP_shr, DW_OP_stack_value] 0
	;DEBUG_VALUE: emulate_AMX_VECINT:xbytes <- [DW_OP_constu 3, DW_OP_shr, DW_OP_stack_value] 0
	;DEBUG_VALUE: emulate_AMX_VECINT:alumode <- [DW_OP_plus_uconst 316] [$sp+0]
	;DEBUG_VALUE: emulate_AMX_VECINT:xbits <- 0
	;DEBUG_VALUE: emulate_AMX_VECINT:ybits <- 0
	;DEBUG_VALUE: emulate_AMX_VECINT:z_row <- [DW_OP_plus_uconst 248] [$sp+0]
	;DEBUG_VALUE: emulate_AMX_VECINT:y_step <- [DW_OP_plus_uconst 208] [$sp+0]
	;DEBUG_VALUE: emulate_AMX_VECINT:x_step <- [DW_OP_plus_uconst 200] [$sp+0]
	;DEBUG_VALUE: emulate_AMX_VECINT:state <- [DW_OP_plus_uconst 336] [$sp+0]
	mov	x8, #-1
Ltmp210:
LBB2_75:                                ;   in Loop: Header=BB2_44 Depth=1
	;DEBUG_VALUE: parse_writemask:val <- [DW_OP_plus_uconst 128] [$sp+0]
	;DEBUG_VALUE: parse_writemask:mode <- [DW_OP_plus_uconst 184] [$sp+0]
	;DEBUG_VALUE: parse_writemask:maskbits <- 9
	;DEBUG_VALUE: emulate_AMX_VECINT:ybytes <- [DW_OP_constu 3, DW_OP_shr, DW_OP_stack_value] 0
	;DEBUG_VALUE: emulate_AMX_VECINT:xbytes <- [DW_OP_constu 3, DW_OP_shr, DW_OP_stack_value] 0
	;DEBUG_VALUE: emulate_AMX_VECINT:alumode <- [DW_OP_plus_uconst 316] [$sp+0]
	;DEBUG_VALUE: emulate_AMX_VECINT:xbits <- 0
	;DEBUG_VALUE: emulate_AMX_VECINT:ybits <- 0
	;DEBUG_VALUE: emulate_AMX_VECINT:z_row <- [DW_OP_plus_uconst 248] [$sp+0]
	;DEBUG_VALUE: emulate_AMX_VECINT:y_step <- [DW_OP_plus_uconst 208] [$sp+0]
	;DEBUG_VALUE: emulate_AMX_VECINT:x_step <- [DW_OP_plus_uconst 200] [$sp+0]
	;DEBUG_VALUE: emulate_AMX_VECINT:state <- [DW_OP_plus_uconst 336] [$sp+0]
	;DEBUG_VALUE: parse_writemask:all <- $x8
	ldr	w9, [sp, #128]                  ; 4-byte Folded Reload
Ltmp211:
	.loc	4 83 16 is_stmt 1               ; ./emulate.h:83:16
	cmp	w9, #6
	csel	x21, x8, xzr, lo
Ltmp212:
	;DEBUG_VALUE: x_enable <- $x21
	;DEBUG_VALUE: parse_writemask:g <- [DW_OP_constu 3, DW_OP_shr, DW_OP_stack_value] 0
	;DEBUG_VALUE: parse_writemask:maskbits <- 9
	;DEBUG_VALUE: parse_writemask:mode <- [DW_OP_plus_uconst 184] [$sp+0]
	;DEBUG_VALUE: parse_writemask:val <- [DW_OP_plus_uconst 132] [$sp+0]
	;DEBUG_VALUE: parse_writemask:all <- -1
	.loc	4 70 5                          ; ./emulate.h:70:5
	cmp	w11, #5
	b.ls	LBB2_67
	b	LBB2_64
Ltmp213:
LBB2_76:                                ;   in Loop: Header=BB2_44 Depth=1
	;DEBUG_VALUE: parse_writemask:all <- -1
	;DEBUG_VALUE: parse_writemask:val <- [DW_OP_plus_uconst 128] [$sp+0]
	;DEBUG_VALUE: parse_writemask:mode <- [DW_OP_plus_uconst 184] [$sp+0]
	;DEBUG_VALUE: parse_writemask:maskbits <- 9
	;DEBUG_VALUE: parse_writemask:g <- [DW_OP_constu 3, DW_OP_shr, DW_OP_stack_value] 0
	;DEBUG_VALUE: emulate_AMX_VECINT:ybytes <- [DW_OP_constu 3, DW_OP_shr, DW_OP_stack_value] 0
	;DEBUG_VALUE: emulate_AMX_VECINT:xbytes <- [DW_OP_constu 3, DW_OP_shr, DW_OP_stack_value] 0
	;DEBUG_VALUE: emulate_AMX_VECINT:alumode <- [DW_OP_plus_uconst 316] [$sp+0]
	;DEBUG_VALUE: emulate_AMX_VECINT:xbits <- 0
	;DEBUG_VALUE: emulate_AMX_VECINT:ybits <- 0
	;DEBUG_VALUE: emulate_AMX_VECINT:z_row <- [DW_OP_plus_uconst 248] [$sp+0]
	;DEBUG_VALUE: emulate_AMX_VECINT:y_step <- [DW_OP_plus_uconst 208] [$sp+0]
	;DEBUG_VALUE: emulate_AMX_VECINT:x_step <- [DW_OP_plus_uconst 200] [$sp+0]
	;DEBUG_VALUE: emulate_AMX_VECINT:state <- [DW_OP_plus_uconst 336] [$sp+0]
	.loc	4 0 5 is_stmt 0                 ; ./emulate.h:0:5
	mov	x21, #-1
Ltmp214:
LBB2_77:                                ;   in Loop: Header=BB2_44 Depth=1
	;DEBUG_VALUE: emulate_AMX_VECINT:ybytes <- [DW_OP_constu 3, DW_OP_shr, DW_OP_stack_value] 0
	;DEBUG_VALUE: emulate_AMX_VECINT:xbytes <- [DW_OP_constu 3, DW_OP_shr, DW_OP_stack_value] 0
	;DEBUG_VALUE: emulate_AMX_VECINT:alumode <- [DW_OP_plus_uconst 316] [$sp+0]
	;DEBUG_VALUE: emulate_AMX_VECINT:xbits <- 0
	;DEBUG_VALUE: emulate_AMX_VECINT:ybits <- 0
	;DEBUG_VALUE: emulate_AMX_VECINT:z_row <- [DW_OP_plus_uconst 248] [$sp+0]
	;DEBUG_VALUE: emulate_AMX_VECINT:y_step <- [DW_OP_plus_uconst 208] [$sp+0]
	;DEBUG_VALUE: emulate_AMX_VECINT:x_step <- [DW_OP_plus_uconst 200] [$sp+0]
	;DEBUG_VALUE: emulate_AMX_VECINT:state <- [DW_OP_plus_uconst 336] [$sp+0]
	ldr	w8, [sp, #132]                  ; 4-byte Folded Reload
	cbz	w8, LBB2_79
Ltmp215:
LBB2_78:                                ;   in Loop: Header=BB2_44 Depth=1
	;DEBUG_VALUE: emulate_AMX_VECINT:ybytes <- [DW_OP_constu 3, DW_OP_shr, DW_OP_stack_value] 0
	;DEBUG_VALUE: emulate_AMX_VECINT:xbytes <- [DW_OP_constu 3, DW_OP_shr, DW_OP_stack_value] 0
	;DEBUG_VALUE: emulate_AMX_VECINT:alumode <- [DW_OP_plus_uconst 316] [$sp+0]
	;DEBUG_VALUE: emulate_AMX_VECINT:xbits <- 0
	;DEBUG_VALUE: emulate_AMX_VECINT:ybits <- 0
	;DEBUG_VALUE: emulate_AMX_VECINT:z_row <- [DW_OP_plus_uconst 248] [$sp+0]
	;DEBUG_VALUE: emulate_AMX_VECINT:y_step <- [DW_OP_plus_uconst 208] [$sp+0]
	;DEBUG_VALUE: emulate_AMX_VECINT:x_step <- [DW_OP_plus_uconst 200] [$sp+0]
	;DEBUG_VALUE: emulate_AMX_VECINT:state <- [DW_OP_plus_uconst 336] [$sp+0]
	ldr	x27, [sp, #48]                  ; 8-byte Folded Reload
	b	LBB2_82
Ltmp216:
LBB2_79:                                ;   in Loop: Header=BB2_44 Depth=1
	;DEBUG_VALUE: emulate_AMX_VECINT:ybytes <- [DW_OP_constu 3, DW_OP_shr, DW_OP_stack_value] 0
	;DEBUG_VALUE: emulate_AMX_VECINT:xbytes <- [DW_OP_constu 3, DW_OP_shr, DW_OP_stack_value] 0
	;DEBUG_VALUE: emulate_AMX_VECINT:alumode <- [DW_OP_plus_uconst 316] [$sp+0]
	;DEBUG_VALUE: emulate_AMX_VECINT:xbits <- 0
	;DEBUG_VALUE: emulate_AMX_VECINT:ybits <- 0
	;DEBUG_VALUE: emulate_AMX_VECINT:z_row <- [DW_OP_plus_uconst 248] [$sp+0]
	;DEBUG_VALUE: emulate_AMX_VECINT:y_step <- [DW_OP_plus_uconst 208] [$sp+0]
	;DEBUG_VALUE: emulate_AMX_VECINT:x_step <- [DW_OP_plus_uconst 200] [$sp+0]
	;DEBUG_VALUE: emulate_AMX_VECINT:state <- [DW_OP_plus_uconst 336] [$sp+0]
	mov	x27, #-1
	b	LBB2_82
Ltmp217:
LBB2_80:                                ;   in Loop: Header=BB2_44 Depth=1
	;DEBUG_VALUE: parse_writemask:all <- -1
	;DEBUG_VALUE: parse_writemask:val <- [DW_OP_plus_uconst 132] [$sp+0]
	;DEBUG_VALUE: parse_writemask:mode <- [DW_OP_plus_uconst 184] [$sp+0]
	;DEBUG_VALUE: parse_writemask:maskbits <- 9
	;DEBUG_VALUE: parse_writemask:g <- [DW_OP_constu 3, DW_OP_shr, DW_OP_stack_value] 0
	;DEBUG_VALUE: x_enable <- $x21
	;DEBUG_VALUE: emulate_AMX_VECINT:ybytes <- [DW_OP_constu 3, DW_OP_shr, DW_OP_stack_value] 0
	;DEBUG_VALUE: emulate_AMX_VECINT:xbytes <- [DW_OP_constu 3, DW_OP_shr, DW_OP_stack_value] 0
	;DEBUG_VALUE: emulate_AMX_VECINT:alumode <- [DW_OP_plus_uconst 316] [$sp+0]
	;DEBUG_VALUE: emulate_AMX_VECINT:xbits <- 0
	;DEBUG_VALUE: emulate_AMX_VECINT:ybits <- 0
	;DEBUG_VALUE: emulate_AMX_VECINT:z_row <- [DW_OP_plus_uconst 248] [$sp+0]
	;DEBUG_VALUE: emulate_AMX_VECINT:y_step <- [DW_OP_plus_uconst 208] [$sp+0]
	;DEBUG_VALUE: emulate_AMX_VECINT:x_step <- [DW_OP_plus_uconst 200] [$sp+0]
	;DEBUG_VALUE: emulate_AMX_VECINT:state <- [DW_OP_plus_uconst 336] [$sp+0]
	mov	x8, #-1
Ltmp218:
LBB2_81:                                ;   in Loop: Header=BB2_44 Depth=1
	;DEBUG_VALUE: parse_writemask:val <- [DW_OP_plus_uconst 132] [$sp+0]
	;DEBUG_VALUE: parse_writemask:mode <- [DW_OP_plus_uconst 184] [$sp+0]
	;DEBUG_VALUE: parse_writemask:maskbits <- 9
	;DEBUG_VALUE: x_enable <- $x21
	;DEBUG_VALUE: emulate_AMX_VECINT:ybytes <- [DW_OP_constu 3, DW_OP_shr, DW_OP_stack_value] 0
	;DEBUG_VALUE: emulate_AMX_VECINT:xbytes <- [DW_OP_constu 3, DW_OP_shr, DW_OP_stack_value] 0
	;DEBUG_VALUE: emulate_AMX_VECINT:alumode <- [DW_OP_plus_uconst 316] [$sp+0]
	;DEBUG_VALUE: emulate_AMX_VECINT:xbits <- 0
	;DEBUG_VALUE: emulate_AMX_VECINT:ybits <- 0
	;DEBUG_VALUE: emulate_AMX_VECINT:z_row <- [DW_OP_plus_uconst 248] [$sp+0]
	;DEBUG_VALUE: emulate_AMX_VECINT:y_step <- [DW_OP_plus_uconst 208] [$sp+0]
	;DEBUG_VALUE: emulate_AMX_VECINT:x_step <- [DW_OP_plus_uconst 200] [$sp+0]
	;DEBUG_VALUE: emulate_AMX_VECINT:state <- [DW_OP_plus_uconst 336] [$sp+0]
	;DEBUG_VALUE: parse_writemask:all <- $x8
	ldr	w9, [sp, #132]                  ; 4-byte Folded Reload
Ltmp219:
	.loc	4 83 16 is_stmt 1               ; ./emulate.h:83:16
	cmp	w9, #6
	csel	x27, x8, xzr, lo
Ltmp220:
LBB2_82:                                ;   in Loop: Header=BB2_44 Depth=1
	;DEBUG_VALUE: emulate_AMX_VECINT:ybytes <- [DW_OP_constu 3, DW_OP_shr, DW_OP_stack_value] 0
	;DEBUG_VALUE: emulate_AMX_VECINT:xbytes <- [DW_OP_constu 3, DW_OP_shr, DW_OP_stack_value] 0
	;DEBUG_VALUE: emulate_AMX_VECINT:alumode <- [DW_OP_plus_uconst 316] [$sp+0]
	;DEBUG_VALUE: emulate_AMX_VECINT:xbits <- 0
	;DEBUG_VALUE: emulate_AMX_VECINT:ybits <- 0
	;DEBUG_VALUE: emulate_AMX_VECINT:z_row <- [DW_OP_plus_uconst 248] [$sp+0]
	;DEBUG_VALUE: emulate_AMX_VECINT:y_step <- [DW_OP_plus_uconst 208] [$sp+0]
	;DEBUG_VALUE: emulate_AMX_VECINT:x_step <- [DW_OP_plus_uconst 200] [$sp+0]
	;DEBUG_VALUE: emulate_AMX_VECINT:state <- [DW_OP_plus_uconst 336] [$sp+0]
	;DEBUG_VALUE: emulate_AMX_VECINT:x_offset <- undef
	;DEBUG_VALUE: emulate_AMX_VECINT:y_offset <- undef
	;DEBUG_VALUE: y_enable <- $x27
	.loc	4 0 16 is_stmt 0                ; ./emulate.h:0:16
	ldr	x10, [sp, #360]                 ; 8-byte Folded Reload
	.loc	3 173 13 is_stmt 1              ; vecint.c:173:13
	cmp	x10, #1
	csinv	x8, x21, xzr, ne
	csinv	x9, x27, xzr, ne
	cbz	x10, LBB2_84
Ltmp221:
; %bb.83:                               ;   in Loop: Header=BB2_44 Depth=1
	;DEBUG_VALUE: y_enable <- $x27
	;DEBUG_VALUE: emulate_AMX_VECINT:ybytes <- [DW_OP_constu 3, DW_OP_shr, DW_OP_stack_value] 0
	;DEBUG_VALUE: emulate_AMX_VECINT:xbytes <- [DW_OP_constu 3, DW_OP_shr, DW_OP_stack_value] 0
	;DEBUG_VALUE: emulate_AMX_VECINT:alumode <- [DW_OP_plus_uconst 316] [$sp+0]
	;DEBUG_VALUE: emulate_AMX_VECINT:xbits <- 0
	;DEBUG_VALUE: emulate_AMX_VECINT:ybits <- 0
	;DEBUG_VALUE: emulate_AMX_VECINT:z_row <- [DW_OP_plus_uconst 248] [$sp+0]
	;DEBUG_VALUE: emulate_AMX_VECINT:y_step <- [DW_OP_plus_uconst 208] [$sp+0]
	;DEBUG_VALUE: emulate_AMX_VECINT:x_step <- [DW_OP_plus_uconst 200] [$sp+0]
	;DEBUG_VALUE: emulate_AMX_VECINT:state <- [DW_OP_plus_uconst 336] [$sp+0]
	.loc	3 0 13 is_stmt 0                ; vecint.c:0:13
	mov	x21, x8
	mov	x27, x9
Ltmp222:
	ldr	x9, [sp, #320]                  ; 8-byte Folded Reload
	ldr	x10, [sp, #216]                 ; 8-byte Folded Reload
	b	LBB2_89
Ltmp223:
LBB2_84:                                ;   in Loop: Header=BB2_44 Depth=1
	;DEBUG_VALUE: y_enable <- $x27
	;DEBUG_VALUE: emulate_AMX_VECINT:ybytes <- [DW_OP_constu 3, DW_OP_shr, DW_OP_stack_value] 0
	;DEBUG_VALUE: emulate_AMX_VECINT:xbytes <- [DW_OP_constu 3, DW_OP_shr, DW_OP_stack_value] 0
	;DEBUG_VALUE: emulate_AMX_VECINT:alumode <- [DW_OP_plus_uconst 316] [$sp+0]
	;DEBUG_VALUE: emulate_AMX_VECINT:xbits <- 0
	;DEBUG_VALUE: emulate_AMX_VECINT:ybits <- 0
	;DEBUG_VALUE: emulate_AMX_VECINT:z_row <- [DW_OP_plus_uconst 248] [$sp+0]
	;DEBUG_VALUE: emulate_AMX_VECINT:y_step <- [DW_OP_plus_uconst 208] [$sp+0]
	;DEBUG_VALUE: emulate_AMX_VECINT:x_step <- [DW_OP_plus_uconst 200] [$sp+0]
	;DEBUG_VALUE: emulate_AMX_VECINT:state <- [DW_OP_plus_uconst 336] [$sp+0]
	;DEBUG_VALUE: val <- [DW_OP_plus_uconst 120] [$sp+0]
	ldr	x8, [sp, #120]                  ; 8-byte Folded Reload
Ltmp224:
	.loc	3 178 17 is_stmt 1              ; vecint.c:178:17
	cmp	w8, #4
	b.eq	LBB2_87
Ltmp225:
; %bb.85:                               ;   in Loop: Header=BB2_44 Depth=1
	;DEBUG_VALUE: val <- [DW_OP_plus_uconst 120] [$sp+0]
	;DEBUG_VALUE: y_enable <- $x27
	;DEBUG_VALUE: emulate_AMX_VECINT:ybytes <- [DW_OP_constu 3, DW_OP_shr, DW_OP_stack_value] 0
	;DEBUG_VALUE: emulate_AMX_VECINT:xbytes <- [DW_OP_constu 3, DW_OP_shr, DW_OP_stack_value] 0
	;DEBUG_VALUE: emulate_AMX_VECINT:alumode <- [DW_OP_plus_uconst 316] [$sp+0]
	;DEBUG_VALUE: emulate_AMX_VECINT:xbits <- 0
	;DEBUG_VALUE: emulate_AMX_VECINT:ybits <- 0
	;DEBUG_VALUE: emulate_AMX_VECINT:z_row <- [DW_OP_plus_uconst 248] [$sp+0]
	;DEBUG_VALUE: emulate_AMX_VECINT:y_step <- [DW_OP_plus_uconst 208] [$sp+0]
	;DEBUG_VALUE: emulate_AMX_VECINT:x_step <- [DW_OP_plus_uconst 200] [$sp+0]
	;DEBUG_VALUE: emulate_AMX_VECINT:state <- [DW_OP_plus_uconst 336] [$sp+0]
	cmp	w8, #5
	ldr	x9, [sp, #320]                  ; 8-byte Folded Reload
	ldr	x10, [sp, #216]                 ; 8-byte Folded Reload
	b.ne	LBB2_89
Ltmp226:
; %bb.86:                               ;   in Loop: Header=BB2_44 Depth=1
	;DEBUG_VALUE: val <- [DW_OP_plus_uconst 120] [$sp+0]
	;DEBUG_VALUE: y_enable <- $x27
	;DEBUG_VALUE: emulate_AMX_VECINT:ybytes <- [DW_OP_constu 3, DW_OP_shr, DW_OP_stack_value] 0
	;DEBUG_VALUE: emulate_AMX_VECINT:xbytes <- [DW_OP_constu 3, DW_OP_shr, DW_OP_stack_value] 0
	;DEBUG_VALUE: emulate_AMX_VECINT:alumode <- [DW_OP_plus_uconst 316] [$sp+0]
	;DEBUG_VALUE: emulate_AMX_VECINT:xbits <- 0
	;DEBUG_VALUE: emulate_AMX_VECINT:ybits <- 0
	;DEBUG_VALUE: emulate_AMX_VECINT:z_row <- [DW_OP_plus_uconst 248] [$sp+0]
	;DEBUG_VALUE: emulate_AMX_VECINT:y_step <- [DW_OP_plus_uconst 208] [$sp+0]
	;DEBUG_VALUE: emulate_AMX_VECINT:x_step <- [DW_OP_plus_uconst 200] [$sp+0]
	;DEBUG_VALUE: emulate_AMX_VECINT:state <- [DW_OP_plus_uconst 336] [$sp+0]
	.loc	3 0 17 is_stmt 0                ; vecint.c:0:17
	add	x8, sp, #400
	b	LBB2_88
Ltmp227:
LBB2_87:                                ;   in Loop: Header=BB2_44 Depth=1
	;DEBUG_VALUE: val <- [DW_OP_plus_uconst 120] [$sp+0]
	;DEBUG_VALUE: y_enable <- $x27
	;DEBUG_VALUE: emulate_AMX_VECINT:ybytes <- [DW_OP_constu 3, DW_OP_shr, DW_OP_stack_value] 0
	;DEBUG_VALUE: emulate_AMX_VECINT:xbytes <- [DW_OP_constu 3, DW_OP_shr, DW_OP_stack_value] 0
	;DEBUG_VALUE: emulate_AMX_VECINT:alumode <- [DW_OP_plus_uconst 316] [$sp+0]
	;DEBUG_VALUE: emulate_AMX_VECINT:xbits <- 0
	;DEBUG_VALUE: emulate_AMX_VECINT:ybits <- 0
	;DEBUG_VALUE: emulate_AMX_VECINT:z_row <- [DW_OP_plus_uconst 248] [$sp+0]
	;DEBUG_VALUE: emulate_AMX_VECINT:y_step <- [DW_OP_plus_uconst 208] [$sp+0]
	;DEBUG_VALUE: emulate_AMX_VECINT:x_step <- [DW_OP_plus_uconst 200] [$sp+0]
	;DEBUG_VALUE: emulate_AMX_VECINT:state <- [DW_OP_plus_uconst 336] [$sp+0]
	sub	x8, x29, #224
	ldr	x9, [sp, #320]                  ; 8-byte Folded Reload
	ldr	x10, [sp, #216]                 ; 8-byte Folded Reload
Ltmp228:
LBB2_88:                                ;   in Loop: Header=BB2_44 Depth=1
	;DEBUG_VALUE: val <- [DW_OP_plus_uconst 120] [$sp+0]
	;DEBUG_VALUE: y_enable <- $x27
	;DEBUG_VALUE: emulate_AMX_VECINT:ybytes <- [DW_OP_constu 3, DW_OP_shr, DW_OP_stack_value] 0
	;DEBUG_VALUE: emulate_AMX_VECINT:xbytes <- [DW_OP_constu 3, DW_OP_shr, DW_OP_stack_value] 0
	;DEBUG_VALUE: emulate_AMX_VECINT:alumode <- [DW_OP_plus_uconst 316] [$sp+0]
	;DEBUG_VALUE: emulate_AMX_VECINT:xbits <- 0
	;DEBUG_VALUE: emulate_AMX_VECINT:ybits <- 0
	;DEBUG_VALUE: emulate_AMX_VECINT:z_row <- [DW_OP_plus_uconst 248] [$sp+0]
	;DEBUG_VALUE: emulate_AMX_VECINT:y_step <- [DW_OP_plus_uconst 208] [$sp+0]
	;DEBUG_VALUE: emulate_AMX_VECINT:x_step <- [DW_OP_plus_uconst 200] [$sp+0]
	;DEBUG_VALUE: emulate_AMX_VECINT:state <- [DW_OP_plus_uconst 336] [$sp+0]
	movi.2d	v0, #0000000000000000
Ltmp229:
	stp	q0, q0, [x8, #32]
	stp	q0, q0, [x8]
Ltmp230:
LBB2_89:                                ;   in Loop: Header=BB2_44 Depth=1
	;DEBUG_VALUE: emulate_AMX_VECINT:ybytes <- [DW_OP_constu 3, DW_OP_shr, DW_OP_stack_value] 0
	;DEBUG_VALUE: emulate_AMX_VECINT:xbytes <- [DW_OP_constu 3, DW_OP_shr, DW_OP_stack_value] 0
	;DEBUG_VALUE: emulate_AMX_VECINT:alumode <- [DW_OP_plus_uconst 316] [$sp+0]
	;DEBUG_VALUE: emulate_AMX_VECINT:xbits <- 0
	;DEBUG_VALUE: emulate_AMX_VECINT:ybits <- 0
	;DEBUG_VALUE: emulate_AMX_VECINT:z_row <- [DW_OP_plus_uconst 248] [$sp+0]
	;DEBUG_VALUE: emulate_AMX_VECINT:y_step <- [DW_OP_plus_uconst 208] [$sp+0]
	;DEBUG_VALUE: emulate_AMX_VECINT:x_step <- [DW_OP_plus_uconst 200] [$sp+0]
	;DEBUG_VALUE: emulate_AMX_VECINT:state <- [DW_OP_plus_uconst 336] [$sp+0]
	mov	w19, #0
	ldr	x8, [sp, #240]                  ; 8-byte Folded Reload
	add	x8, x10, x8
Ltmp231:
	;DEBUG_VALUE: emulate_AMX_VECINT:x_offset <- $x8
	str	x8, [sp, #240]                  ; 8-byte Folded Spill
Ltmp232:
	;DEBUG_VALUE: emulate_AMX_VECINT:x_offset <- [DW_OP_plus_uconst 240] [$sp+0]
	;DEBUG_VALUE: emulate_AMX_VECINT:x_offset <- [DW_OP_plus_uconst 240] [$sp+0]
	ldr	x8, [sp, #232]                  ; 8-byte Folded Reload
	add	x8, x9, x8
Ltmp233:
	;DEBUG_VALUE: step <- $w23
	;DEBUG_VALUE: ysignext <- undef
	;DEBUG_VALUE: xsignext <- undef
	;DEBUG_VALUE: y_enable <- $x27
	;DEBUG_VALUE: x_enable <- $x21
	;DEBUG_VALUE: emulate_AMX_VECINT:y_offset <- $x8
	str	x8, [sp, #232]                  ; 8-byte Folded Spill
Ltmp234:
	;DEBUG_VALUE: emulate_AMX_VECINT:y_offset <- [DW_OP_plus_uconst 232] [$sp+0]
	;DEBUG_VALUE: emulate_AMX_VECINT:y_offset <- [DW_OP_plus_uconst 232] [$sp+0]
	ldr	x8, [sp, #376]                  ; 8-byte Folded Reload
	.loc	3 189 34 is_stmt 1              ; vecint.c:189:34
	udiv	w8, w8, w23
	.loc	3 189 42 is_stmt 0              ; vecint.c:189:42
	sub	w9, w8, #1
	;DEBUG_VALUE: i <- 0
Ltmp235:
	;DEBUG_VALUE: zmask <- $w9
	.loc	3 0 42                          ; vecint.c:0:42
	str	w9, [sp, #320]                  ; 4-byte Folded Spill
Ltmp236:
	;DEBUG_VALUE: zmask <- [DW_OP_plus_uconst 320] [$sp+0]
	;DEBUG_VALUE: zmask <- [DW_OP_plus_uconst 320] [$sp+0]
	neg	w8, w8
	ldr	x9, [sp, #248]                  ; 8-byte Folded Reload
	and	x20, x9, x8
Ltmp237:
	;DEBUG_VALUE: zsignext <- undef
	b	LBB2_95
Ltmp238:
LBB2_90:                                ;   in Loop: Header=BB2_95 Depth=2
	;DEBUG_VALUE: vecint_alu:val <- $x9
	;DEBUG_VALUE: zv <- $x8
	;DEBUG_VALUE: vecint_alu:x <- $x26
	;DEBUG_VALUE: vecint_alu:y <- $x22
	;DEBUG_VALUE: vecint_alu:z <- $x8
	;DEBUG_VALUE: z <- $x28
	;DEBUG_VALUE: yv <- $x22
	;DEBUG_VALUE: xv <- $x26
	;DEBUG_VALUE: i <- $w19
	;DEBUG_VALUE: zmask <- [DW_OP_plus_uconst 320] [$sp+0]
	;DEBUG_VALUE: step <- $w23
	;DEBUG_VALUE: y_enable <- $x27
	;DEBUG_VALUE: x_enable <- $x21
	;DEBUG_VALUE: emulate_AMX_VECINT:y_offset <- [DW_OP_plus_uconst 232] [$sp+0]
	;DEBUG_VALUE: emulate_AMX_VECINT:x_offset <- [DW_OP_plus_uconst 240] [$sp+0]
	;DEBUG_VALUE: emulate_AMX_VECINT:ybytes <- [DW_OP_constu 3, DW_OP_shr, DW_OP_stack_value] 0
	;DEBUG_VALUE: emulate_AMX_VECINT:xbytes <- [DW_OP_constu 3, DW_OP_shr, DW_OP_stack_value] 0
	;DEBUG_VALUE: emulate_AMX_VECINT:alumode <- [DW_OP_plus_uconst 316] [$sp+0]
	;DEBUG_VALUE: emulate_AMX_VECINT:xbits <- 0
	;DEBUG_VALUE: emulate_AMX_VECINT:ybits <- 0
	;DEBUG_VALUE: emulate_AMX_VECINT:z_row <- [DW_OP_plus_uconst 248] [$sp+0]
	;DEBUG_VALUE: emulate_AMX_VECINT:y_step <- [DW_OP_plus_uconst 208] [$sp+0]
	;DEBUG_VALUE: emulate_AMX_VECINT:x_step <- [DW_OP_plus_uconst 200] [$sp+0]
	;DEBUG_VALUE: emulate_AMX_VECINT:state <- [DW_OP_plus_uconst 336] [$sp+0]
	ldr	x10, [sp, #264]                 ; 8-byte Folded Reload
Ltmp239:
	.loc	3 40 13 is_stmt 1               ; vecint.c:40:13
	add	x9, x9, x10
Ltmp240:
	;DEBUG_VALUE: vecint_alu:val <- $x9
	.loc	3 0 13 is_stmt 0                ; vecint.c:0:13
	ldr	w11, [sp, #316]                 ; 4-byte Folded Reload
Ltmp241:
LBB2_91:                                ;   in Loop: Header=BB2_95 Depth=2
	;DEBUG_VALUE: vecint_alu:val <- $x9
	;DEBUG_VALUE: zv <- $x8
	;DEBUG_VALUE: vecint_alu:x <- $x26
	;DEBUG_VALUE: vecint_alu:y <- $x22
	;DEBUG_VALUE: vecint_alu:z <- $x8
	;DEBUG_VALUE: z <- $x28
	;DEBUG_VALUE: yv <- $x22
	;DEBUG_VALUE: xv <- $x26
	;DEBUG_VALUE: i <- $w19
	;DEBUG_VALUE: zmask <- [DW_OP_plus_uconst 320] [$sp+0]
	;DEBUG_VALUE: step <- $w23
	;DEBUG_VALUE: y_enable <- $x27
	;DEBUG_VALUE: x_enable <- $x21
	;DEBUG_VALUE: emulate_AMX_VECINT:y_offset <- [DW_OP_plus_uconst 232] [$sp+0]
	;DEBUG_VALUE: emulate_AMX_VECINT:x_offset <- [DW_OP_plus_uconst 240] [$sp+0]
	;DEBUG_VALUE: emulate_AMX_VECINT:ybytes <- [DW_OP_constu 3, DW_OP_shr, DW_OP_stack_value] 0
	;DEBUG_VALUE: emulate_AMX_VECINT:xbytes <- [DW_OP_constu 3, DW_OP_shr, DW_OP_stack_value] 0
	;DEBUG_VALUE: emulate_AMX_VECINT:alumode <- [DW_OP_plus_uconst 316] [$sp+0]
	;DEBUG_VALUE: emulate_AMX_VECINT:xbits <- 0
	;DEBUG_VALUE: emulate_AMX_VECINT:ybits <- 0
	;DEBUG_VALUE: emulate_AMX_VECINT:z_row <- [DW_OP_plus_uconst 248] [$sp+0]
	;DEBUG_VALUE: emulate_AMX_VECINT:y_step <- [DW_OP_plus_uconst 208] [$sp+0]
	;DEBUG_VALUE: emulate_AMX_VECINT:x_step <- [DW_OP_plus_uconst 200] [$sp+0]
	;DEBUG_VALUE: emulate_AMX_VECINT:state <- [DW_OP_plus_uconst 336] [$sp+0]
	;DEBUG_VALUE: vecint_alu:val <- $x9
	ldr	x10, [sp, #288]                 ; 8-byte Folded Reload
	.loc	3 50 9 is_stmt 1                ; vecint.c:50:9
	asr	x9, x9, x10
Ltmp242:
	;DEBUG_VALUE: vecint_alu:val <- $x9
	.loc	3 0 9 is_stmt 0                 ; vecint.c:0:9
	mov	w10, #1
	lsl	w10, w10, w11
Ltmp243:
	;DEBUG_VALUE: vecint_alu:val <- undef
	mov	w12, #74
	tst	w10, w12
	cneg	x10, x9, ne
Ltmp244:
	.loc	3 51 22 is_stmt 1               ; vecint.c:51:22
	cmp	w11, #6
	csel	x9, x9, x10, hi
Ltmp245:
LBB2_92:                                ;   in Loop: Header=BB2_95 Depth=2
	;DEBUG_VALUE: zv <- $x8
	;DEBUG_VALUE: vecint_alu:y <- $x22
	;DEBUG_VALUE: vecint_alu:z <- $x8
	;DEBUG_VALUE: z <- $x28
	;DEBUG_VALUE: i <- $w19
	;DEBUG_VALUE: zmask <- [DW_OP_plus_uconst 320] [$sp+0]
	;DEBUG_VALUE: step <- $w23
	;DEBUG_VALUE: y_enable <- $x27
	;DEBUG_VALUE: x_enable <- $x21
	;DEBUG_VALUE: emulate_AMX_VECINT:y_offset <- [DW_OP_plus_uconst 232] [$sp+0]
	;DEBUG_VALUE: emulate_AMX_VECINT:x_offset <- [DW_OP_plus_uconst 240] [$sp+0]
	;DEBUG_VALUE: emulate_AMX_VECINT:ybytes <- [DW_OP_constu 3, DW_OP_shr, DW_OP_stack_value] 0
	;DEBUG_VALUE: emulate_AMX_VECINT:xbytes <- [DW_OP_constu 3, DW_OP_shr, DW_OP_stack_value] 0
	;DEBUG_VALUE: emulate_AMX_VECINT:alumode <- [DW_OP_plus_uconst 316] [$sp+0]
	;DEBUG_VALUE: emulate_AMX_VECINT:xbits <- 0
	;DEBUG_VALUE: emulate_AMX_VECINT:ybits <- 0
	;DEBUG_VALUE: emulate_AMX_VECINT:z_row <- [DW_OP_plus_uconst 248] [$sp+0]
	;DEBUG_VALUE: emulate_AMX_VECINT:y_step <- [DW_OP_plus_uconst 208] [$sp+0]
	;DEBUG_VALUE: emulate_AMX_VECINT:x_step <- [DW_OP_plus_uconst 200] [$sp+0]
	;DEBUG_VALUE: emulate_AMX_VECINT:state <- [DW_OP_plus_uconst 336] [$sp+0]
	;DEBUG_VALUE: vecint_alu:val <- $x9
	.loc	3 54 9                          ; vecint.c:54:9
	cmp	w11, #10
	csel	x8, xzr, x8, eq
Ltmp246:
	add	x8, x9, x8
Ltmp247:
	;DEBUG_VALUE: vecint_alu:val <- $x8
	.loc	3 0 9 is_stmt 0                 ; vecint.c:0:9
	mov	w9, #32767
Ltmp248:
	.loc	3 57 22 is_stmt 1               ; vecint.c:57:22
	cmp	x8, x9
	csel	x9, x8, x9, lt
	cmn	x9, #8, lsl #12                 ; =32768
	mov	x10, #-32768
	csel	x9, x9, x10, gt
	ldr	w10, [sp, #368]                 ; 4-byte Folded Reload
	cmp	w10, #2
	csel	x8, x9, x8, lo
Ltmp249:
	;DEBUG_VALUE: vecint_alu:val <- $x8
LBB2_93:                                ;   in Loop: Header=BB2_95 Depth=2
	;DEBUG_VALUE: z <- $x28
	;DEBUG_VALUE: i <- $w19
	;DEBUG_VALUE: zmask <- [DW_OP_plus_uconst 320] [$sp+0]
	;DEBUG_VALUE: step <- $w23
	;DEBUG_VALUE: y_enable <- $x27
	;DEBUG_VALUE: x_enable <- $x21
	;DEBUG_VALUE: emulate_AMX_VECINT:y_offset <- [DW_OP_plus_uconst 232] [$sp+0]
	;DEBUG_VALUE: emulate_AMX_VECINT:x_offset <- [DW_OP_plus_uconst 240] [$sp+0]
	;DEBUG_VALUE: emulate_AMX_VECINT:ybytes <- [DW_OP_constu 3, DW_OP_shr, DW_OP_stack_value] 0
	;DEBUG_VALUE: emulate_AMX_VECINT:xbytes <- [DW_OP_constu 3, DW_OP_shr, DW_OP_stack_value] 0
	;DEBUG_VALUE: emulate_AMX_VECINT:alumode <- [DW_OP_plus_uconst 316] [$sp+0]
	;DEBUG_VALUE: emulate_AMX_VECINT:xbits <- 0
	;DEBUG_VALUE: emulate_AMX_VECINT:ybits <- 0
	;DEBUG_VALUE: emulate_AMX_VECINT:z_row <- [DW_OP_plus_uconst 248] [$sp+0]
	;DEBUG_VALUE: emulate_AMX_VECINT:y_step <- [DW_OP_plus_uconst 208] [$sp+0]
	;DEBUG_VALUE: emulate_AMX_VECINT:x_step <- [DW_OP_plus_uconst 200] [$sp+0]
	;DEBUG_VALUE: emulate_AMX_VECINT:state <- [DW_OP_plus_uconst 336] [$sp+0]
	.loc	3 0 22 is_stmt 0                ; vecint.c:0:22
	ldr	x9, [sp, #392]                  ; 8-byte Folded Reload
	.loc	3 200 69 is_stmt 1              ; vecint.c:200:69
	mov	x10, #12884901888
	cmp	x9, x10
	csel	x8, xzr, x8, eq
	;DEBUG_VALUE: store_int:val <- $x8
Ltmp250:
	;DEBUG_VALUE: result <- $x8
	.loc	3 0 69 is_stmt 0                ; vecint.c:0:69
	stur	x8, [x29, #-160]
Ltmp251:
	;DEBUG_VALUE: store_int:dst <- $x28
	;DEBUG_VALUE: store_int:val <- [DW_OP_constu 160, DW_OP_minus, DW_OP_deref] $fp
	.loc	4 38 5 is_stmt 1                ; ./emulate.h:38:5
	sub	x1, x29, #160
	mov	x0, x28
	ldr	x2, [sp, #376]                  ; 8-byte Folded Reload
	bl	_memcpy
Ltmp252:
	.loc	4 0 5 is_stmt 0                 ; ./emulate.h:0:5
	ldr	w12, [sp, #332]                 ; 4-byte Folded Reload
	add	x28, sp, #400
Ltmp253:
LBB2_94:                                ;   in Loop: Header=BB2_95 Depth=2
	;DEBUG_VALUE: i <- $w19
	;DEBUG_VALUE: zmask <- [DW_OP_plus_uconst 320] [$sp+0]
	;DEBUG_VALUE: step <- $w23
	;DEBUG_VALUE: y_enable <- $x27
	;DEBUG_VALUE: x_enable <- $x21
	;DEBUG_VALUE: emulate_AMX_VECINT:y_offset <- [DW_OP_plus_uconst 232] [$sp+0]
	;DEBUG_VALUE: emulate_AMX_VECINT:x_offset <- [DW_OP_plus_uconst 240] [$sp+0]
	;DEBUG_VALUE: emulate_AMX_VECINT:ybytes <- [DW_OP_constu 3, DW_OP_shr, DW_OP_stack_value] 0
	;DEBUG_VALUE: emulate_AMX_VECINT:xbytes <- [DW_OP_constu 3, DW_OP_shr, DW_OP_stack_value] 0
	;DEBUG_VALUE: emulate_AMX_VECINT:alumode <- [DW_OP_plus_uconst 316] [$sp+0]
	;DEBUG_VALUE: emulate_AMX_VECINT:xbits <- 0
	;DEBUG_VALUE: emulate_AMX_VECINT:ybits <- 0
	;DEBUG_VALUE: emulate_AMX_VECINT:z_row <- [DW_OP_plus_uconst 248] [$sp+0]
	;DEBUG_VALUE: emulate_AMX_VECINT:y_step <- [DW_OP_plus_uconst 208] [$sp+0]
	;DEBUG_VALUE: emulate_AMX_VECINT:x_step <- [DW_OP_plus_uconst 200] [$sp+0]
	;DEBUG_VALUE: emulate_AMX_VECINT:state <- [DW_OP_plus_uconst 336] [$sp+0]
	.loc	3 190 40 is_stmt 1              ; vecint.c:190:40
	add	w19, w19, w23
Ltmp254:
	;DEBUG_VALUE: i <- $w19
	.loc	3 190 9 is_stmt 0               ; vecint.c:190:9
	cmp	w19, #64
	b.hs	LBB2_43
Ltmp255:
LBB2_95:                                ;   Parent Loop BB2_44 Depth=1
                                        ; =>  This Inner Loop Header: Depth=2
	;DEBUG_VALUE: zmask <- [DW_OP_plus_uconst 320] [$sp+0]
	;DEBUG_VALUE: step <- $w23
	;DEBUG_VALUE: y_enable <- $x27
	;DEBUG_VALUE: x_enable <- $x21
	;DEBUG_VALUE: emulate_AMX_VECINT:y_offset <- [DW_OP_plus_uconst 232] [$sp+0]
	;DEBUG_VALUE: emulate_AMX_VECINT:x_offset <- [DW_OP_plus_uconst 240] [$sp+0]
	;DEBUG_VALUE: emulate_AMX_VECINT:ybytes <- [DW_OP_constu 3, DW_OP_shr, DW_OP_stack_value] 0
	;DEBUG_VALUE: emulate_AMX_VECINT:xbytes <- [DW_OP_constu 3, DW_OP_shr, DW_OP_stack_value] 0
	;DEBUG_VALUE: emulate_AMX_VECINT:alumode <- [DW_OP_plus_uconst 316] [$sp+0]
	;DEBUG_VALUE: emulate_AMX_VECINT:xbits <- 0
	;DEBUG_VALUE: emulate_AMX_VECINT:ybits <- 0
	;DEBUG_VALUE: emulate_AMX_VECINT:z_row <- [DW_OP_plus_uconst 248] [$sp+0]
	;DEBUG_VALUE: emulate_AMX_VECINT:y_step <- [DW_OP_plus_uconst 208] [$sp+0]
	;DEBUG_VALUE: emulate_AMX_VECINT:x_step <- [DW_OP_plus_uconst 200] [$sp+0]
	;DEBUG_VALUE: emulate_AMX_VECINT:state <- [DW_OP_plus_uconst 336] [$sp+0]
	;DEBUG_VALUE: i <- $w19
	.loc	3 191 39 is_stmt 1              ; vecint.c:191:39
	and	w8, w12, w19
Ltmp256:
	;DEBUG_VALUE: xi <- $w8
	.loc	3 192 17                        ; vecint.c:192:17
	lsr	x9, x21, x8
	tbz	w9, #0, LBB2_94
Ltmp257:
; %bb.96:                               ;   in Loop: Header=BB2_95 Depth=2
	;DEBUG_VALUE: xi <- $w8
	;DEBUG_VALUE: i <- $w19
	;DEBUG_VALUE: zmask <- [DW_OP_plus_uconst 320] [$sp+0]
	;DEBUG_VALUE: step <- $w23
	;DEBUG_VALUE: y_enable <- $x27
	;DEBUG_VALUE: x_enable <- $x21
	;DEBUG_VALUE: emulate_AMX_VECINT:y_offset <- [DW_OP_plus_uconst 232] [$sp+0]
	;DEBUG_VALUE: emulate_AMX_VECINT:x_offset <- [DW_OP_plus_uconst 240] [$sp+0]
	;DEBUG_VALUE: emulate_AMX_VECINT:ybytes <- [DW_OP_constu 3, DW_OP_shr, DW_OP_stack_value] 0
	;DEBUG_VALUE: emulate_AMX_VECINT:xbytes <- [DW_OP_constu 3, DW_OP_shr, DW_OP_stack_value] 0
	;DEBUG_VALUE: emulate_AMX_VECINT:alumode <- [DW_OP_plus_uconst 316] [$sp+0]
	;DEBUG_VALUE: emulate_AMX_VECINT:xbits <- 0
	;DEBUG_VALUE: emulate_AMX_VECINT:ybits <- 0
	;DEBUG_VALUE: emulate_AMX_VECINT:z_row <- [DW_OP_plus_uconst 248] [$sp+0]
	;DEBUG_VALUE: emulate_AMX_VECINT:y_step <- [DW_OP_plus_uconst 208] [$sp+0]
	;DEBUG_VALUE: emulate_AMX_VECINT:x_step <- [DW_OP_plus_uconst 200] [$sp+0]
	;DEBUG_VALUE: emulate_AMX_VECINT:state <- [DW_OP_plus_uconst 336] [$sp+0]
	.loc	3 0 17 is_stmt 0                ; vecint.c:0:17
	ldr	w9, [sp, #348]                  ; 4-byte Folded Reload
	.loc	3 193 27 is_stmt 1              ; vecint.c:193:27
	and	w9, w19, w9
	ldr	x10, [sp, #360]                 ; 8-byte Folded Reload
	cmp	x10, #1
	ldr	x10, [sp, #352]                 ; 8-byte Folded Reload
	csel	x22, x10, x9, eq
Ltmp258:
	;DEBUG_VALUE: yj <- $x22
	.loc	3 194 17                        ; vecint.c:194:17
	lsr	x9, x27, x22
	tbz	w9, #0, LBB2_94
Ltmp259:
; %bb.97:                               ;   in Loop: Header=BB2_95 Depth=2
	;DEBUG_VALUE: yj <- $x22
	;DEBUG_VALUE: xi <- $w8
	;DEBUG_VALUE: i <- $w19
	;DEBUG_VALUE: zmask <- [DW_OP_plus_uconst 320] [$sp+0]
	;DEBUG_VALUE: step <- $w23
	;DEBUG_VALUE: y_enable <- $x27
	;DEBUG_VALUE: x_enable <- $x21
	;DEBUG_VALUE: emulate_AMX_VECINT:y_offset <- [DW_OP_plus_uconst 232] [$sp+0]
	;DEBUG_VALUE: emulate_AMX_VECINT:x_offset <- [DW_OP_plus_uconst 240] [$sp+0]
	;DEBUG_VALUE: emulate_AMX_VECINT:ybytes <- [DW_OP_constu 3, DW_OP_shr, DW_OP_stack_value] 0
	;DEBUG_VALUE: emulate_AMX_VECINT:xbytes <- [DW_OP_constu 3, DW_OP_shr, DW_OP_stack_value] 0
	;DEBUG_VALUE: emulate_AMX_VECINT:alumode <- [DW_OP_plus_uconst 316] [$sp+0]
	;DEBUG_VALUE: emulate_AMX_VECINT:xbits <- 0
	;DEBUG_VALUE: emulate_AMX_VECINT:ybits <- 0
	;DEBUG_VALUE: emulate_AMX_VECINT:z_row <- [DW_OP_plus_uconst 248] [$sp+0]
	;DEBUG_VALUE: emulate_AMX_VECINT:y_step <- [DW_OP_plus_uconst 208] [$sp+0]
	;DEBUG_VALUE: emulate_AMX_VECINT:x_step <- [DW_OP_plus_uconst 200] [$sp+0]
	;DEBUG_VALUE: emulate_AMX_VECINT:state <- [DW_OP_plus_uconst 336] [$sp+0]
	.loc	3 196 37                        ; vecint.c:196:37
	sub	x9, x29, #224
	add	x1, x9, x8
Ltmp260:
	;DEBUG_VALUE: load_int:val <- 0
	;DEBUG_VALUE: load_int:signext <- undef
	;DEBUG_VALUE: load_int:nbytes <- [DW_OP_constu 3, DW_OP_shr, DW_OP_stack_value] 0
	;DEBUG_VALUE: load_int:src <- $x1
	.loc	4 32 13                         ; ./emulate.h:32:13
	stur	xzr, [x29, #-160]
Ltmp261:
	;DEBUG_VALUE: load_int:val <- [DW_OP_constu 160, DW_OP_minus, DW_OP_deref] $fp
	.loc	4 33 5                          ; ./emulate.h:33:5
	sub	x0, x29, #160
	mov	x2, x24
	mov	w3, #8
	bl	___memcpy_chk
Ltmp262:
	.loc	4 34 13                         ; ./emulate.h:34:13
	ldur	x8, [x29, #-160]
Ltmp263:
	;DEBUG_VALUE: load_int:val <- $x8
	.loc	4 0 13 is_stmt 0                ; ./emulate.h:0:13
	ldr	x9, [sp, #304]                  ; 8-byte Folded Reload
	.loc	4 34 17                         ; ./emulate.h:34:17
	lsl	x8, x8, x9
Ltmp264:
	.loc	4 34 29                         ; ./emulate.h:34:29
	asr	x26, x8, x9
Ltmp265:
	;DEBUG_VALUE: xv <- $x26
	.loc	3 197 37 is_stmt 1              ; vecint.c:197:37
	add	x1, x28, x22
Ltmp266:
	;DEBUG_VALUE: load_int:val <- 0
	;DEBUG_VALUE: load_int:signext <- undef
	;DEBUG_VALUE: load_int:nbytes <- [DW_OP_constu 3, DW_OP_shr, DW_OP_stack_value] 0
	;DEBUG_VALUE: load_int:src <- $x1
	.loc	4 32 13                         ; ./emulate.h:32:13
	stur	xzr, [x29, #-160]
Ltmp267:
	;DEBUG_VALUE: load_int:val <- [DW_OP_constu 160, DW_OP_minus, DW_OP_deref] $fp
	.loc	4 33 5                          ; ./emulate.h:33:5
	sub	x0, x29, #160
	mov	x2, x25
	mov	w3, #8
	bl	___memcpy_chk
Ltmp268:
	.loc	4 34 13                         ; ./emulate.h:34:13
	ldur	x8, [x29, #-160]
Ltmp269:
	;DEBUG_VALUE: load_int:val <- $x8
	.loc	4 0 13 is_stmt 0                ; ./emulate.h:0:13
	ldr	x9, [sp, #296]                  ; 8-byte Folded Reload
	.loc	4 34 17                         ; ./emulate.h:34:17
	lsl	x8, x8, x9
Ltmp270:
	.loc	4 34 29                         ; ./emulate.h:34:29
	asr	x22, x8, x9
Ltmp271:
	;DEBUG_VALUE: yv <- $x22
	.loc	3 198 33 is_stmt 1              ; vecint.c:198:33
	udiv	w8, w19, w23
	ldr	w9, [sp, #320]                  ; 4-byte Folded Reload
	and	w8, w8, w9
	orr	x8, x20, x8
	ldr	x9, [sp, #336]                  ; 8-byte Folded Reload
	.loc	3 198 24 is_stmt 0              ; vecint.c:198:24
	add	x8, x9, x8, lsl #6
	ldr	w9, [sp, #276]                  ; 4-byte Folded Reload
	.loc	3 198 74                        ; vecint.c:198:74
	and	w9, w19, w9
	.loc	3 198 24                        ; vecint.c:198:24
	add	x8, x8, x9
	add	x28, x8, #1024
Ltmp272:
	;DEBUG_VALUE: load_int:val <- 0
	;DEBUG_VALUE: load_int:src <- $x28
	;DEBUG_VALUE: z <- $x28
	.loc	4 32 13 is_stmt 1               ; ./emulate.h:32:13
	stur	xzr, [x29, #-160]
Ltmp273:
	;DEBUG_VALUE: load_int:val <- [DW_OP_constu 160, DW_OP_minus, DW_OP_deref] $fp
	.loc	4 33 5                          ; ./emulate.h:33:5
	sub	x0, x29, #160
	mov	x1, x28
	ldr	x2, [sp, #376]                  ; 8-byte Folded Reload
	mov	w3, #8
	bl	___memcpy_chk
Ltmp274:
	.loc	4 34 13                         ; ./emulate.h:34:13
	ldur	x8, [x29, #-160]
Ltmp275:
	;DEBUG_VALUE: load_int:val <- $x8
	.loc	4 0 13 is_stmt 0                ; ./emulate.h:0:13
	ldr	x9, [sp, #280]                  ; 8-byte Folded Reload
	.loc	4 34 17                         ; ./emulate.h:34:17
	lsl	x8, x8, x9
Ltmp276:
	.loc	4 34 29                         ; ./emulate.h:34:29
	asr	x8, x8, x9
Ltmp277:
	;DEBUG_VALUE: vecint_alu:shift <- undef
	;DEBUG_VALUE: vecint_alu:z <- $x8
	;DEBUG_VALUE: vecint_alu:y <- $x22
	;DEBUG_VALUE: vecint_alu:x <- $x26
	;DEBUG_VALUE: zv <- $x8
	.loc	3 38 21 is_stmt 1               ; vecint.c:38:21
	mul	x9, x22, x26
Ltmp278:
	;DEBUG_VALUE: vecint_alu:val <- $x9
	.loc	3 0 21 is_stmt 0                ; vecint.c:0:21
	ldr	w10, [sp, #368]                 ; 4-byte Folded Reload
Ltmp279:
	.loc	3 39 22 is_stmt 1               ; vecint.c:39:22
	cmp	w10, #1
Ltmp280:
	;DEBUG_VALUE: vecint_alu:alumode <- undef
	;DEBUG_VALUE: load_int:signext <- undef
	b.ls	LBB2_90
Ltmp281:
; %bb.98:                               ;   in Loop: Header=BB2_95 Depth=2
	;DEBUG_VALUE: vecint_alu:val <- $x9
	;DEBUG_VALUE: zv <- $x8
	;DEBUG_VALUE: vecint_alu:x <- $x26
	;DEBUG_VALUE: vecint_alu:y <- $x22
	;DEBUG_VALUE: vecint_alu:z <- $x8
	;DEBUG_VALUE: z <- $x28
	;DEBUG_VALUE: yv <- $x22
	;DEBUG_VALUE: xv <- $x26
	;DEBUG_VALUE: i <- $w19
	;DEBUG_VALUE: zmask <- [DW_OP_plus_uconst 320] [$sp+0]
	;DEBUG_VALUE: step <- $w23
	;DEBUG_VALUE: y_enable <- $x27
	;DEBUG_VALUE: x_enable <- $x21
	;DEBUG_VALUE: emulate_AMX_VECINT:y_offset <- [DW_OP_plus_uconst 232] [$sp+0]
	;DEBUG_VALUE: emulate_AMX_VECINT:x_offset <- [DW_OP_plus_uconst 240] [$sp+0]
	;DEBUG_VALUE: emulate_AMX_VECINT:ybytes <- [DW_OP_constu 3, DW_OP_shr, DW_OP_stack_value] 0
	;DEBUG_VALUE: emulate_AMX_VECINT:xbytes <- [DW_OP_constu 3, DW_OP_shr, DW_OP_stack_value] 0
	;DEBUG_VALUE: emulate_AMX_VECINT:alumode <- [DW_OP_plus_uconst 316] [$sp+0]
	;DEBUG_VALUE: emulate_AMX_VECINT:xbits <- 0
	;DEBUG_VALUE: emulate_AMX_VECINT:ybits <- 0
	;DEBUG_VALUE: emulate_AMX_VECINT:z_row <- [DW_OP_plus_uconst 248] [$sp+0]
	;DEBUG_VALUE: emulate_AMX_VECINT:y_step <- [DW_OP_plus_uconst 208] [$sp+0]
	;DEBUG_VALUE: emulate_AMX_VECINT:x_step <- [DW_OP_plus_uconst 200] [$sp+0]
	;DEBUG_VALUE: emulate_AMX_VECINT:state <- [DW_OP_plus_uconst 336] [$sp+0]
	.loc	3 0 22 is_stmt 0                ; vecint.c:0:22
	ldr	w10, [sp, #260]                 ; 4-byte Folded Reload
Ltmp282:
	.loc	3 41 29 is_stmt 1               ; vecint.c:41:29
	cmp	w10, #2
	ldr	w11, [sp, #316]                 ; 4-byte Folded Reload
	b.ne	LBB2_100
Ltmp283:
; %bb.99:                               ;   in Loop: Header=BB2_95 Depth=2
	;DEBUG_VALUE: vecint_alu:val <- $x9
	;DEBUG_VALUE: zv <- $x8
	;DEBUG_VALUE: vecint_alu:x <- $x26
	;DEBUG_VALUE: vecint_alu:y <- $x22
	;DEBUG_VALUE: vecint_alu:z <- $x8
	;DEBUG_VALUE: z <- $x28
	;DEBUG_VALUE: yv <- $x22
	;DEBUG_VALUE: xv <- $x26
	;DEBUG_VALUE: i <- $w19
	;DEBUG_VALUE: zmask <- [DW_OP_plus_uconst 320] [$sp+0]
	;DEBUG_VALUE: step <- $w23
	;DEBUG_VALUE: y_enable <- $x27
	;DEBUG_VALUE: x_enable <- $x21
	;DEBUG_VALUE: emulate_AMX_VECINT:y_offset <- [DW_OP_plus_uconst 232] [$sp+0]
	;DEBUG_VALUE: emulate_AMX_VECINT:x_offset <- [DW_OP_plus_uconst 240] [$sp+0]
	;DEBUG_VALUE: emulate_AMX_VECINT:ybytes <- [DW_OP_constu 3, DW_OP_shr, DW_OP_stack_value] 0
	;DEBUG_VALUE: emulate_AMX_VECINT:xbytes <- [DW_OP_constu 3, DW_OP_shr, DW_OP_stack_value] 0
	;DEBUG_VALUE: emulate_AMX_VECINT:alumode <- [DW_OP_plus_uconst 316] [$sp+0]
	;DEBUG_VALUE: emulate_AMX_VECINT:xbits <- 0
	;DEBUG_VALUE: emulate_AMX_VECINT:ybits <- 0
	;DEBUG_VALUE: emulate_AMX_VECINT:z_row <- [DW_OP_plus_uconst 248] [$sp+0]
	;DEBUG_VALUE: emulate_AMX_VECINT:y_step <- [DW_OP_plus_uconst 208] [$sp+0]
	;DEBUG_VALUE: emulate_AMX_VECINT:x_step <- [DW_OP_plus_uconst 200] [$sp+0]
	;DEBUG_VALUE: emulate_AMX_VECINT:state <- [DW_OP_plus_uconst 336] [$sp+0]
	.loc	3 42 17                         ; vecint.c:42:17
	add	x9, x22, x26
Ltmp284:
	;DEBUG_VALUE: vecint_alu:val <- $x9
	.loc	3 0 17 is_stmt 0                ; vecint.c:0:17
	b	LBB2_91
Ltmp285:
LBB2_100:                               ;   in Loop: Header=BB2_95 Depth=2
	;DEBUG_VALUE: vecint_alu:val <- $x9
	;DEBUG_VALUE: zv <- $x8
	;DEBUG_VALUE: vecint_alu:x <- $x26
	;DEBUG_VALUE: vecint_alu:y <- $x22
	;DEBUG_VALUE: vecint_alu:z <- $x8
	;DEBUG_VALUE: z <- $x28
	;DEBUG_VALUE: yv <- $x22
	;DEBUG_VALUE: xv <- $x26
	;DEBUG_VALUE: i <- $w19
	;DEBUG_VALUE: zmask <- [DW_OP_plus_uconst 320] [$sp+0]
	;DEBUG_VALUE: step <- $w23
	;DEBUG_VALUE: y_enable <- $x27
	;DEBUG_VALUE: x_enable <- $x21
	;DEBUG_VALUE: emulate_AMX_VECINT:y_offset <- [DW_OP_plus_uconst 232] [$sp+0]
	;DEBUG_VALUE: emulate_AMX_VECINT:x_offset <- [DW_OP_plus_uconst 240] [$sp+0]
	;DEBUG_VALUE: emulate_AMX_VECINT:ybytes <- [DW_OP_constu 3, DW_OP_shr, DW_OP_stack_value] 0
	;DEBUG_VALUE: emulate_AMX_VECINT:xbytes <- [DW_OP_constu 3, DW_OP_shr, DW_OP_stack_value] 0
	;DEBUG_VALUE: emulate_AMX_VECINT:alumode <- [DW_OP_plus_uconst 316] [$sp+0]
	;DEBUG_VALUE: emulate_AMX_VECINT:xbits <- 0
	;DEBUG_VALUE: emulate_AMX_VECINT:ybits <- 0
	;DEBUG_VALUE: emulate_AMX_VECINT:z_row <- [DW_OP_plus_uconst 248] [$sp+0]
	;DEBUG_VALUE: emulate_AMX_VECINT:y_step <- [DW_OP_plus_uconst 208] [$sp+0]
	;DEBUG_VALUE: emulate_AMX_VECINT:x_step <- [DW_OP_plus_uconst 200] [$sp+0]
	;DEBUG_VALUE: emulate_AMX_VECINT:state <- [DW_OP_plus_uconst 336] [$sp+0]
	.loc	3 43 16 is_stmt 1               ; vecint.c:43:16
	cmp	w11, #12
	b.eq	LBB2_104
Ltmp286:
; %bb.101:                              ;   in Loop: Header=BB2_95 Depth=2
	;DEBUG_VALUE: vecint_alu:val <- $x9
	;DEBUG_VALUE: zv <- $x8
	;DEBUG_VALUE: vecint_alu:x <- $x26
	;DEBUG_VALUE: vecint_alu:y <- $x22
	;DEBUG_VALUE: vecint_alu:z <- $x8
	;DEBUG_VALUE: z <- $x28
	;DEBUG_VALUE: yv <- $x22
	;DEBUG_VALUE: xv <- $x26
	;DEBUG_VALUE: i <- $w19
	;DEBUG_VALUE: zmask <- [DW_OP_plus_uconst 320] [$sp+0]
	;DEBUG_VALUE: step <- $w23
	;DEBUG_VALUE: y_enable <- $x27
	;DEBUG_VALUE: x_enable <- $x21
	;DEBUG_VALUE: emulate_AMX_VECINT:y_offset <- [DW_OP_plus_uconst 232] [$sp+0]
	;DEBUG_VALUE: emulate_AMX_VECINT:x_offset <- [DW_OP_plus_uconst 240] [$sp+0]
	;DEBUG_VALUE: emulate_AMX_VECINT:ybytes <- [DW_OP_constu 3, DW_OP_shr, DW_OP_stack_value] 0
	;DEBUG_VALUE: emulate_AMX_VECINT:xbytes <- [DW_OP_constu 3, DW_OP_shr, DW_OP_stack_value] 0
	;DEBUG_VALUE: emulate_AMX_VECINT:alumode <- [DW_OP_plus_uconst 316] [$sp+0]
	;DEBUG_VALUE: emulate_AMX_VECINT:xbits <- 0
	;DEBUG_VALUE: emulate_AMX_VECINT:ybits <- 0
	;DEBUG_VALUE: emulate_AMX_VECINT:z_row <- [DW_OP_plus_uconst 248] [$sp+0]
	;DEBUG_VALUE: emulate_AMX_VECINT:y_step <- [DW_OP_plus_uconst 208] [$sp+0]
	;DEBUG_VALUE: emulate_AMX_VECINT:x_step <- [DW_OP_plus_uconst 200] [$sp+0]
	;DEBUG_VALUE: emulate_AMX_VECINT:state <- [DW_OP_plus_uconst 336] [$sp+0]
	cmp	w11, #11
	b.eq	LBB2_105
Ltmp287:
; %bb.102:                              ;   in Loop: Header=BB2_95 Depth=2
	;DEBUG_VALUE: vecint_alu:val <- $x9
	;DEBUG_VALUE: zv <- $x8
	;DEBUG_VALUE: vecint_alu:x <- $x26
	;DEBUG_VALUE: vecint_alu:y <- $x22
	;DEBUG_VALUE: vecint_alu:z <- $x8
	;DEBUG_VALUE: z <- $x28
	;DEBUG_VALUE: yv <- $x22
	;DEBUG_VALUE: xv <- $x26
	;DEBUG_VALUE: i <- $w19
	;DEBUG_VALUE: zmask <- [DW_OP_plus_uconst 320] [$sp+0]
	;DEBUG_VALUE: step <- $w23
	;DEBUG_VALUE: y_enable <- $x27
	;DEBUG_VALUE: x_enable <- $x21
	;DEBUG_VALUE: emulate_AMX_VECINT:y_offset <- [DW_OP_plus_uconst 232] [$sp+0]
	;DEBUG_VALUE: emulate_AMX_VECINT:x_offset <- [DW_OP_plus_uconst 240] [$sp+0]
	;DEBUG_VALUE: emulate_AMX_VECINT:ybytes <- [DW_OP_constu 3, DW_OP_shr, DW_OP_stack_value] 0
	;DEBUG_VALUE: emulate_AMX_VECINT:xbytes <- [DW_OP_constu 3, DW_OP_shr, DW_OP_stack_value] 0
	;DEBUG_VALUE: emulate_AMX_VECINT:alumode <- [DW_OP_plus_uconst 316] [$sp+0]
	;DEBUG_VALUE: emulate_AMX_VECINT:xbits <- 0
	;DEBUG_VALUE: emulate_AMX_VECINT:ybits <- 0
	;DEBUG_VALUE: emulate_AMX_VECINT:z_row <- [DW_OP_plus_uconst 248] [$sp+0]
	;DEBUG_VALUE: emulate_AMX_VECINT:y_step <- [DW_OP_plus_uconst 208] [$sp+0]
	;DEBUG_VALUE: emulate_AMX_VECINT:x_step <- [DW_OP_plus_uconst 200] [$sp+0]
	;DEBUG_VALUE: emulate_AMX_VECINT:state <- [DW_OP_plus_uconst 336] [$sp+0]
	cmp	w11, #9
	b.ne	LBB2_91
Ltmp288:
; %bb.103:                              ;   in Loop: Header=BB2_95 Depth=2
	;DEBUG_VALUE: vecint_alu:val <- $x9
	;DEBUG_VALUE: zv <- $x8
	;DEBUG_VALUE: vecint_alu:x <- $x26
	;DEBUG_VALUE: vecint_alu:y <- $x22
	;DEBUG_VALUE: vecint_alu:z <- $x8
	;DEBUG_VALUE: z <- $x28
	;DEBUG_VALUE: yv <- $x22
	;DEBUG_VALUE: xv <- $x26
	;DEBUG_VALUE: i <- $w19
	;DEBUG_VALUE: zmask <- [DW_OP_plus_uconst 320] [$sp+0]
	;DEBUG_VALUE: step <- $w23
	;DEBUG_VALUE: y_enable <- $x27
	;DEBUG_VALUE: x_enable <- $x21
	;DEBUG_VALUE: emulate_AMX_VECINT:y_offset <- [DW_OP_plus_uconst 232] [$sp+0]
	;DEBUG_VALUE: emulate_AMX_VECINT:x_offset <- [DW_OP_plus_uconst 240] [$sp+0]
	;DEBUG_VALUE: emulate_AMX_VECINT:ybytes <- [DW_OP_constu 3, DW_OP_shr, DW_OP_stack_value] 0
	;DEBUG_VALUE: emulate_AMX_VECINT:xbytes <- [DW_OP_constu 3, DW_OP_shr, DW_OP_stack_value] 0
	;DEBUG_VALUE: emulate_AMX_VECINT:alumode <- [DW_OP_plus_uconst 316] [$sp+0]
	;DEBUG_VALUE: emulate_AMX_VECINT:xbits <- 0
	;DEBUG_VALUE: emulate_AMX_VECINT:ybits <- 0
	;DEBUG_VALUE: emulate_AMX_VECINT:z_row <- [DW_OP_plus_uconst 248] [$sp+0]
	;DEBUG_VALUE: emulate_AMX_VECINT:y_step <- [DW_OP_plus_uconst 208] [$sp+0]
	;DEBUG_VALUE: emulate_AMX_VECINT:x_step <- [DW_OP_plus_uconst 200] [$sp+0]
	;DEBUG_VALUE: emulate_AMX_VECINT:state <- [DW_OP_plus_uconst 336] [$sp+0]
	.loc	3 44 42                         ; vecint.c:44:42
	eon	x9, x26, x22
Ltmp289:
	.loc	3 0 42 is_stmt 0                ; vecint.c:0:42
	ldr	x10, [sp, #288]                 ; 8-byte Folded Reload
	.loc	3 44 52                         ; vecint.c:44:52
	lsl	x9, x9, x10
	.loc	3 44 20                         ; vecint.c:44:20
	fmov	d0, x9
	cnt.8b	v0, v0
	uaddlv.8b	h0, v0
	fmov	w9, s0
	.loc	3 44 18                         ; vecint.c:44:18
	add	x8, x8, x9
Ltmp290:
	.loc	3 0 18                          ; vecint.c:0:18
	b	LBB2_93
Ltmp291:
LBB2_104:                               ;   in Loop: Header=BB2_95 Depth=2
	;DEBUG_VALUE: vecint_alu:val <- $x9
	;DEBUG_VALUE: zv <- $x8
	;DEBUG_VALUE: vecint_alu:x <- $x26
	;DEBUG_VALUE: vecint_alu:y <- $x22
	;DEBUG_VALUE: vecint_alu:z <- $x8
	;DEBUG_VALUE: z <- $x28
	;DEBUG_VALUE: yv <- $x22
	;DEBUG_VALUE: xv <- $x26
	;DEBUG_VALUE: i <- $w19
	;DEBUG_VALUE: zmask <- [DW_OP_plus_uconst 320] [$sp+0]
	;DEBUG_VALUE: step <- $w23
	;DEBUG_VALUE: y_enable <- $x27
	;DEBUG_VALUE: x_enable <- $x21
	;DEBUG_VALUE: emulate_AMX_VECINT:y_offset <- [DW_OP_plus_uconst 232] [$sp+0]
	;DEBUG_VALUE: emulate_AMX_VECINT:x_offset <- [DW_OP_plus_uconst 240] [$sp+0]
	;DEBUG_VALUE: emulate_AMX_VECINT:ybytes <- [DW_OP_constu 3, DW_OP_shr, DW_OP_stack_value] 0
	;DEBUG_VALUE: emulate_AMX_VECINT:xbytes <- [DW_OP_constu 3, DW_OP_shr, DW_OP_stack_value] 0
	;DEBUG_VALUE: emulate_AMX_VECINT:alumode <- [DW_OP_plus_uconst 316] [$sp+0]
	;DEBUG_VALUE: emulate_AMX_VECINT:xbits <- 0
	;DEBUG_VALUE: emulate_AMX_VECINT:ybits <- 0
	;DEBUG_VALUE: emulate_AMX_VECINT:z_row <- [DW_OP_plus_uconst 248] [$sp+0]
	;DEBUG_VALUE: emulate_AMX_VECINT:y_step <- [DW_OP_plus_uconst 208] [$sp+0]
	;DEBUG_VALUE: emulate_AMX_VECINT:x_step <- [DW_OP_plus_uconst 200] [$sp+0]
	;DEBUG_VALUE: emulate_AMX_VECINT:state <- [DW_OP_plus_uconst 336] [$sp+0]
	;DEBUG_VALUE: vecint_alu:val <- $x22
	mov	x26, x22
Ltmp292:
	;DEBUG_VALUE: yv <- $x26
	;DEBUG_VALUE: vecint_alu:val <- $x26
LBB2_105:                               ;   in Loop: Header=BB2_95 Depth=2
	;DEBUG_VALUE: zv <- $x8
	;DEBUG_VALUE: vecint_alu:y <- $x22
	;DEBUG_VALUE: vecint_alu:z <- $x8
	;DEBUG_VALUE: z <- $x28
	;DEBUG_VALUE: i <- $w19
	;DEBUG_VALUE: zmask <- [DW_OP_plus_uconst 320] [$sp+0]
	;DEBUG_VALUE: step <- $w23
	;DEBUG_VALUE: y_enable <- $x27
	;DEBUG_VALUE: x_enable <- $x21
	;DEBUG_VALUE: emulate_AMX_VECINT:y_offset <- [DW_OP_plus_uconst 232] [$sp+0]
	;DEBUG_VALUE: emulate_AMX_VECINT:x_offset <- [DW_OP_plus_uconst 240] [$sp+0]
	;DEBUG_VALUE: emulate_AMX_VECINT:ybytes <- [DW_OP_constu 3, DW_OP_shr, DW_OP_stack_value] 0
	;DEBUG_VALUE: emulate_AMX_VECINT:xbytes <- [DW_OP_constu 3, DW_OP_shr, DW_OP_stack_value] 0
	;DEBUG_VALUE: emulate_AMX_VECINT:alumode <- [DW_OP_plus_uconst 316] [$sp+0]
	;DEBUG_VALUE: emulate_AMX_VECINT:xbits <- 0
	;DEBUG_VALUE: emulate_AMX_VECINT:ybits <- 0
	;DEBUG_VALUE: emulate_AMX_VECINT:z_row <- [DW_OP_plus_uconst 248] [$sp+0]
	;DEBUG_VALUE: emulate_AMX_VECINT:y_step <- [DW_OP_plus_uconst 208] [$sp+0]
	;DEBUG_VALUE: emulate_AMX_VECINT:x_step <- [DW_OP_plus_uconst 200] [$sp+0]
	;DEBUG_VALUE: emulate_AMX_VECINT:state <- [DW_OP_plus_uconst 336] [$sp+0]
	ldr	x9, [sp, #288]                  ; 8-byte Folded Reload
	.loc	3 50 9 is_stmt 1                ; vecint.c:50:9
	asr	x9, x26, x9
	b	LBB2_92
Ltmp293:
LBB2_106:
	;DEBUG_VALUE: parse_writemask:all <- -1
	;DEBUG_VALUE: parse_writemask:mode <- $w13
	;DEBUG_VALUE: parse_writemask:g <- $w21
	;DEBUG_VALUE: parse_writemask:maskbits <- 9
	;DEBUG_VALUE: store_int:nbytes <- $w21
	;DEBUG_VALUE: load_int:nbytes <- $w21
	;DEBUG_VALUE: emulate_AMX_VECINT:zbytes <- $w21
	;DEBUG_VALUE: emulate_AMX_VECINT:zbits <- $w12
	;DEBUG_VALUE: emulate_AMX_VECINT:ybytes <- [DW_OP_constu 3, DW_OP_shr, DW_OP_stack_value] 0
	;DEBUG_VALUE: emulate_AMX_VECINT:xbytes <- [DW_OP_constu 3, DW_OP_shr, DW_OP_stack_value] 0
	;DEBUG_VALUE: emulate_AMX_VECINT:shift <- $w8
	;DEBUG_VALUE: emulate_AMX_VECINT:xbits <- 0
	;DEBUG_VALUE: emulate_AMX_VECINT:ybits <- 0
	;DEBUG_VALUE: emulate_AMX_VECINT:z_row <- [DW_OP_plus_uconst 248] [$sp+0]
	;DEBUG_VALUE: emulate_AMX_VECINT:z_step <- $x0
	;DEBUG_VALUE: emulate_AMX_VECINT:y_step <- [DW_OP_plus_uconst 208] [$sp+0]
	;DEBUG_VALUE: emulate_AMX_VECINT:x_step <- [DW_OP_plus_uconst 200] [$sp+0]
	;DEBUG_VALUE: emulate_AMX_VECINT:operand <- $x15
	;DEBUG_VALUE: emulate_AMX_VECINT:state <- [DW_OP_plus_uconst 336] [$sp+0]
	.loc	3 0 9 is_stmt 0                 ; vecint.c:0:9
	mov	x10, #0
	b	LBB2_113
Ltmp294:
LBB2_107:
	;DEBUG_VALUE: parse_writemask:val <- $w10
	;DEBUG_VALUE: parse_writemask:all <- -1
	;DEBUG_VALUE: parse_writemask:mode <- $w13
	;DEBUG_VALUE: parse_writemask:g <- $w21
	;DEBUG_VALUE: parse_writemask:maskbits <- 9
	;DEBUG_VALUE: emulate_AMX_VECINT:zbytes <- $w21
	;DEBUG_VALUE: emulate_AMX_VECINT:zbits <- $w12
	;DEBUG_VALUE: emulate_AMX_VECINT:ybytes <- [DW_OP_constu 3, DW_OP_shr, DW_OP_stack_value] 0
	;DEBUG_VALUE: emulate_AMX_VECINT:xbytes <- [DW_OP_constu 3, DW_OP_shr, DW_OP_stack_value] 0
	;DEBUG_VALUE: emulate_AMX_VECINT:shift <- $w8
	;DEBUG_VALUE: emulate_AMX_VECINT:xbits <- 0
	;DEBUG_VALUE: emulate_AMX_VECINT:ybits <- 0
	;DEBUG_VALUE: emulate_AMX_VECINT:z_row <- [DW_OP_plus_uconst 248] [$sp+0]
	;DEBUG_VALUE: emulate_AMX_VECINT:z_step <- $x0
	;DEBUG_VALUE: emulate_AMX_VECINT:y_step <- [DW_OP_plus_uconst 208] [$sp+0]
	;DEBUG_VALUE: emulate_AMX_VECINT:x_step <- [DW_OP_plus_uconst 200] [$sp+0]
	;DEBUG_VALUE: emulate_AMX_VECINT:state <- [DW_OP_plus_uconst 336] [$sp+0]
	mov	x12, #-1
Ltmp295:
	.loc	4 86 23 is_stmt 1               ; ./emulate.h:86:23
	lsl	x12, x12, x21
	.loc	4 86 17 is_stmt 0               ; ./emulate.h:86:17
	mvn	x12, x12
	.loc	4 86 30                         ; ./emulate.h:86:30
	lsl	x10, x12, x10
Ltmp296:
	.loc	4 0 30                          ; ./emulate.h:0:30
	b	LBB2_113
Ltmp297:
LBB2_108:
	;DEBUG_VALUE: parse_writemask:val <- $w10
	;DEBUG_VALUE: parse_writemask:all <- -1
	;DEBUG_VALUE: parse_writemask:mode <- $w13
	;DEBUG_VALUE: parse_writemask:g <- $w21
	;DEBUG_VALUE: parse_writemask:maskbits <- 9
	;DEBUG_VALUE: emulate_AMX_VECINT:zbytes <- $w21
	;DEBUG_VALUE: emulate_AMX_VECINT:zbits <- $w12
	;DEBUG_VALUE: emulate_AMX_VECINT:ybytes <- [DW_OP_constu 3, DW_OP_shr, DW_OP_stack_value] 0
	;DEBUG_VALUE: emulate_AMX_VECINT:xbytes <- [DW_OP_constu 3, DW_OP_shr, DW_OP_stack_value] 0
	;DEBUG_VALUE: emulate_AMX_VECINT:shift <- $w8
	;DEBUG_VALUE: emulate_AMX_VECINT:xbits <- 0
	;DEBUG_VALUE: emulate_AMX_VECINT:ybits <- 0
	;DEBUG_VALUE: emulate_AMX_VECINT:z_row <- [DW_OP_plus_uconst 248] [$sp+0]
	;DEBUG_VALUE: emulate_AMX_VECINT:z_step <- $x0
	;DEBUG_VALUE: emulate_AMX_VECINT:y_step <- [DW_OP_plus_uconst 208] [$sp+0]
	;DEBUG_VALUE: emulate_AMX_VECINT:x_step <- [DW_OP_plus_uconst 200] [$sp+0]
	;DEBUG_VALUE: emulate_AMX_VECINT:state <- [DW_OP_plus_uconst 336] [$sp+0]
	.loc	4 88 13 is_stmt 1               ; ./emulate.h:88:13
	cbz	w10, LBB2_123
Ltmp298:
LBB2_109:
	;DEBUG_VALUE: parse_writemask:val <- $w10
	;DEBUG_VALUE: parse_writemask:all <- -1
	;DEBUG_VALUE: parse_writemask:mode <- $w13
	;DEBUG_VALUE: parse_writemask:g <- $w21
	;DEBUG_VALUE: parse_writemask:maskbits <- 9
	;DEBUG_VALUE: emulate_AMX_VECINT:zbytes <- $w21
	;DEBUG_VALUE: emulate_AMX_VECINT:zbits <- $w12
	;DEBUG_VALUE: emulate_AMX_VECINT:ybytes <- [DW_OP_constu 3, DW_OP_shr, DW_OP_stack_value] 0
	;DEBUG_VALUE: emulate_AMX_VECINT:xbytes <- [DW_OP_constu 3, DW_OP_shr, DW_OP_stack_value] 0
	;DEBUG_VALUE: emulate_AMX_VECINT:shift <- $w8
	;DEBUG_VALUE: emulate_AMX_VECINT:xbits <- 0
	;DEBUG_VALUE: emulate_AMX_VECINT:ybits <- 0
	;DEBUG_VALUE: emulate_AMX_VECINT:z_row <- [DW_OP_plus_uconst 248] [$sp+0]
	;DEBUG_VALUE: emulate_AMX_VECINT:z_step <- $x0
	;DEBUG_VALUE: emulate_AMX_VECINT:y_step <- [DW_OP_plus_uconst 208] [$sp+0]
	;DEBUG_VALUE: emulate_AMX_VECINT:x_step <- [DW_OP_plus_uconst 200] [$sp+0]
	;DEBUG_VALUE: emulate_AMX_VECINT:state <- [DW_OP_plus_uconst 336] [$sp+0]
	.loc	4 0 13 is_stmt 0                ; ./emulate.h:0:13
	mov	x12, #-1
Ltmp299:
	.loc	4 91 22 is_stmt 1               ; ./emulate.h:91:22
	lsl	x10, x12, x10
Ltmp300:
	.loc	4 0 22 is_stmt 0                ; ./emulate.h:0:22
	b	LBB2_112
Ltmp301:
LBB2_110:
	;DEBUG_VALUE: parse_writemask:val <- $w10
	;DEBUG_VALUE: parse_writemask:all <- -1
	;DEBUG_VALUE: parse_writemask:mode <- $w13
	;DEBUG_VALUE: parse_writemask:g <- $w21
	;DEBUG_VALUE: parse_writemask:maskbits <- 9
	;DEBUG_VALUE: emulate_AMX_VECINT:zbytes <- $w21
	;DEBUG_VALUE: emulate_AMX_VECINT:zbits <- $w12
	;DEBUG_VALUE: emulate_AMX_VECINT:ybytes <- [DW_OP_constu 3, DW_OP_shr, DW_OP_stack_value] 0
	;DEBUG_VALUE: emulate_AMX_VECINT:xbytes <- [DW_OP_constu 3, DW_OP_shr, DW_OP_stack_value] 0
	;DEBUG_VALUE: emulate_AMX_VECINT:shift <- $w8
	;DEBUG_VALUE: emulate_AMX_VECINT:xbits <- 0
	;DEBUG_VALUE: emulate_AMX_VECINT:ybits <- 0
	;DEBUG_VALUE: emulate_AMX_VECINT:z_row <- [DW_OP_plus_uconst 248] [$sp+0]
	;DEBUG_VALUE: emulate_AMX_VECINT:z_step <- $x0
	;DEBUG_VALUE: emulate_AMX_VECINT:y_step <- [DW_OP_plus_uconst 208] [$sp+0]
	;DEBUG_VALUE: emulate_AMX_VECINT:x_step <- [DW_OP_plus_uconst 200] [$sp+0]
	;DEBUG_VALUE: emulate_AMX_VECINT:state <- [DW_OP_plus_uconst 336] [$sp+0]
	.loc	4 93 13 is_stmt 1               ; ./emulate.h:93:13
	cbz	w10, LBB2_123
Ltmp302:
LBB2_111:
	;DEBUG_VALUE: parse_writemask:val <- $w10
	;DEBUG_VALUE: parse_writemask:all <- -1
	;DEBUG_VALUE: parse_writemask:mode <- $w13
	;DEBUG_VALUE: parse_writemask:g <- $w21
	;DEBUG_VALUE: parse_writemask:maskbits <- 9
	;DEBUG_VALUE: emulate_AMX_VECINT:zbytes <- $w21
	;DEBUG_VALUE: emulate_AMX_VECINT:zbits <- $w12
	;DEBUG_VALUE: emulate_AMX_VECINT:ybytes <- [DW_OP_constu 3, DW_OP_shr, DW_OP_stack_value] 0
	;DEBUG_VALUE: emulate_AMX_VECINT:xbytes <- [DW_OP_constu 3, DW_OP_shr, DW_OP_stack_value] 0
	;DEBUG_VALUE: emulate_AMX_VECINT:shift <- $w8
	;DEBUG_VALUE: emulate_AMX_VECINT:xbits <- 0
	;DEBUG_VALUE: emulate_AMX_VECINT:ybits <- 0
	;DEBUG_VALUE: emulate_AMX_VECINT:z_row <- [DW_OP_plus_uconst 248] [$sp+0]
	;DEBUG_VALUE: emulate_AMX_VECINT:z_step <- $x0
	;DEBUG_VALUE: emulate_AMX_VECINT:y_step <- [DW_OP_plus_uconst 208] [$sp+0]
	;DEBUG_VALUE: emulate_AMX_VECINT:x_step <- [DW_OP_plus_uconst 200] [$sp+0]
	;DEBUG_VALUE: emulate_AMX_VECINT:state <- [DW_OP_plus_uconst 336] [$sp+0]
	.loc	4 0 13 is_stmt 0                ; ./emulate.h:0:13
	mov	x12, #-1
Ltmp303:
	.loc	4 96 22 is_stmt 1               ; ./emulate.h:96:22
	lsr	x10, x12, x10
Ltmp304:
LBB2_112:
	;DEBUG_VALUE: parse_writemask:all <- -1
	;DEBUG_VALUE: parse_writemask:mode <- $w13
	;DEBUG_VALUE: parse_writemask:g <- $w21
	;DEBUG_VALUE: parse_writemask:maskbits <- 9
	;DEBUG_VALUE: emulate_AMX_VECINT:zbytes <- $w21
	;DEBUG_VALUE: emulate_AMX_VECINT:ybytes <- [DW_OP_constu 3, DW_OP_shr, DW_OP_stack_value] 0
	;DEBUG_VALUE: emulate_AMX_VECINT:xbytes <- [DW_OP_constu 3, DW_OP_shr, DW_OP_stack_value] 0
	;DEBUG_VALUE: emulate_AMX_VECINT:shift <- $w8
	;DEBUG_VALUE: emulate_AMX_VECINT:xbits <- 0
	;DEBUG_VALUE: emulate_AMX_VECINT:ybits <- 0
	;DEBUG_VALUE: emulate_AMX_VECINT:z_row <- [DW_OP_plus_uconst 248] [$sp+0]
	;DEBUG_VALUE: emulate_AMX_VECINT:z_step <- $x0
	;DEBUG_VALUE: emulate_AMX_VECINT:y_step <- [DW_OP_plus_uconst 208] [$sp+0]
	;DEBUG_VALUE: emulate_AMX_VECINT:x_step <- [DW_OP_plus_uconst 200] [$sp+0]
	;DEBUG_VALUE: emulate_AMX_VECINT:state <- [DW_OP_plus_uconst 336] [$sp+0]
	.loc	4 0 0 is_stmt 0                 ; ./emulate.h:0:0
	mvn	x10, x10
Ltmp305:
LBB2_113:
	;DEBUG_VALUE: emulate_AMX_VECINT:zbytes <- $w21
	;DEBUG_VALUE: emulate_AMX_VECINT:ybytes <- [DW_OP_constu 3, DW_OP_shr, DW_OP_stack_value] 0
	;DEBUG_VALUE: emulate_AMX_VECINT:xbytes <- [DW_OP_constu 3, DW_OP_shr, DW_OP_stack_value] 0
	;DEBUG_VALUE: emulate_AMX_VECINT:shift <- $w8
	;DEBUG_VALUE: emulate_AMX_VECINT:xbits <- 0
	;DEBUG_VALUE: emulate_AMX_VECINT:ybits <- 0
	;DEBUG_VALUE: emulate_AMX_VECINT:z_row <- [DW_OP_plus_uconst 248] [$sp+0]
	;DEBUG_VALUE: emulate_AMX_VECINT:z_step <- $x0
	;DEBUG_VALUE: emulate_AMX_VECINT:y_step <- [DW_OP_plus_uconst 208] [$sp+0]
	;DEBUG_VALUE: emulate_AMX_VECINT:x_step <- [DW_OP_plus_uconst 200] [$sp+0]
	;DEBUG_VALUE: emulate_AMX_VECINT:state <- [DW_OP_plus_uconst 336] [$sp+0]
	;DEBUG_VALUE: col_enable <- $x10
	ldr	x12, [sp, #360]                 ; 8-byte Folded Reload
	.loc	3 126 13 is_stmt 1              ; vecint.c:126:13
	cmp	x12, #1
	csinv	x19, x10, xzr, ne
Ltmp306:
	;DEBUG_VALUE: col_enable <- $x19
	;DEBUG_VALUE: emulate_AMX_VECINT:z_row <- [DW_OP_plus_uconst 248] [$sp+0]
	.loc	3 0 13 is_stmt 0                ; vecint.c:0:13
	ldr	x14, [sp, #384]                 ; 8-byte Folded Reload
	cmp	x14, #0
	csel	x22, xzr, x11, ge
	sub	w10, w8, #1
	cmp	w8, #0
	mov	w11, #1
	lsl	x10, x11, x10
	lsl	x12, x14, #37
	ubfx	x13, x14, #26, #1
	sub	w9, w9, w13
	lsl	x11, x11, x9
Ltmp307:
	.loc	3 130 9 is_stmt 1               ; vecint.c:130:9
	lsl	x9, x0, #6
	str	x9, [sp, #360]                  ; 8-byte Folded Spill
	and	x9, x14, #0x20000000
	ccmp	x9, #0, #4, ne
	csel	x25, xzr, x10, eq
	ldr	x9, [sp, #336]                  ; 8-byte Folded Reload
	ldr	x10, [sp, #248]                 ; 8-byte Folded Reload
Ltmp308:
	;DEBUG_VALUE: emulate_AMX_VECINT:z_row <- $x10
	add	x9, x9, x10, lsl #6
Ltmp309:
	;DEBUG_VALUE: emulate_AMX_VECINT:z_row <- [DW_OP_plus_uconst 248] [$sp+0]
	.loc	3 0 9 is_stmt 0                 ; vecint.c:0:9
	neg	x10, x11
	mov	x26, x11
	sub	x11, x11, #1
	.loc	3 130 9                         ; vecint.c:130:9
	add	x27, x9, #1024
	and	x9, x10, x12, asr #63
	stp	x9, x11, [sp, #368]             ; 16-byte Folded Spill
	mov	x24, #12884901888
	mov	w28, w8
	b	LBB2_115
Ltmp310:
LBB2_114:                               ;   in Loop: Header=BB2_115 Depth=1
	;DEBUG_VALUE: col_enable <- $x19
	;DEBUG_VALUE: emulate_AMX_VECINT:zbytes <- $w21
	;DEBUG_VALUE: emulate_AMX_VECINT:ybytes <- [DW_OP_constu 3, DW_OP_shr, DW_OP_stack_value] 0
	;DEBUG_VALUE: emulate_AMX_VECINT:xbytes <- [DW_OP_constu 3, DW_OP_shr, DW_OP_stack_value] 0
	;DEBUG_VALUE: emulate_AMX_VECINT:xbits <- 0
	;DEBUG_VALUE: emulate_AMX_VECINT:ybits <- 0
	;DEBUG_VALUE: emulate_AMX_VECINT:z_row <- [DW_OP_plus_uconst 248] [$sp+0]
	;DEBUG_VALUE: emulate_AMX_VECINT:y_step <- [DW_OP_plus_uconst 208] [$sp+0]
	;DEBUG_VALUE: emulate_AMX_VECINT:x_step <- [DW_OP_plus_uconst 200] [$sp+0]
	;DEBUG_VALUE: emulate_AMX_VECINT:state <- [DW_OP_plus_uconst 336] [$sp+0]
	.loc	3 0 9                           ; vecint.c:0:9
	ldr	x8, [sp, #224]                  ; 8-byte Folded Reload
	ldr	x9, [sp, #248]                  ; 8-byte Folded Reload
Ltmp311:
	.loc	3 130 35                        ; vecint.c:130:35
	add	x9, x9, x8
Ltmp312:
	;DEBUG_VALUE: emulate_AMX_VECINT:z_row <- $x9
	.loc	3 0 35                          ; vecint.c:0:35
	ldr	x8, [sp, #360]                  ; 8-byte Folded Reload
Ltmp313:
	.loc	3 130 9                         ; vecint.c:130:9
	add	x27, x27, x8
	str	x9, [sp, #248]                  ; 8-byte Folded Spill
Ltmp314:
	;DEBUG_VALUE: emulate_AMX_VECINT:z_row <- [DW_OP_plus_uconst 248] [$sp+0]
	cmp	x9, #64
	b.hs	LBB2_1
Ltmp315:
LBB2_115:                               ; =>This Loop Header: Depth=1
                                        ;     Child Loop BB2_119 Depth 2
	;DEBUG_VALUE: col_enable <- $x19
	;DEBUG_VALUE: emulate_AMX_VECINT:zbytes <- $w21
	;DEBUG_VALUE: emulate_AMX_VECINT:ybytes <- [DW_OP_constu 3, DW_OP_shr, DW_OP_stack_value] 0
	;DEBUG_VALUE: emulate_AMX_VECINT:xbytes <- [DW_OP_constu 3, DW_OP_shr, DW_OP_stack_value] 0
	;DEBUG_VALUE: emulate_AMX_VECINT:xbits <- 0
	;DEBUG_VALUE: emulate_AMX_VECINT:ybits <- 0
	;DEBUG_VALUE: emulate_AMX_VECINT:z_row <- [DW_OP_plus_uconst 248] [$sp+0]
	;DEBUG_VALUE: emulate_AMX_VECINT:y_step <- [DW_OP_plus_uconst 208] [$sp+0]
	;DEBUG_VALUE: emulate_AMX_VECINT:x_step <- [DW_OP_plus_uconst 200] [$sp+0]
	;DEBUG_VALUE: emulate_AMX_VECINT:state <- [DW_OP_plus_uconst 336] [$sp+0]
	;DEBUG_VALUE: emulate_AMX_VECINT:z_row <- [DW_OP_plus_uconst 248] [$sp+0]
	;DEBUG_VALUE: i <- 0
	.loc	3 0 9                           ; vecint.c:0:9
	mov	x23, #0
	b	LBB2_119
Ltmp316:
LBB2_116:                               ;   in Loop: Header=BB2_119 Depth=2
	;DEBUG_VALUE: hi <- $x26
	;DEBUG_VALUE: vecint_alu_mode4:operand <- $x9
	;DEBUG_VALUE: vecint_alu_mode4:val <- $x8
	;DEBUG_VALUE: i <- $x23
	;DEBUG_VALUE: col_enable <- $x19
	;DEBUG_VALUE: emulate_AMX_VECINT:zbytes <- $w21
	;DEBUG_VALUE: emulate_AMX_VECINT:ybytes <- [DW_OP_constu 3, DW_OP_shr, DW_OP_stack_value] 0
	;DEBUG_VALUE: emulate_AMX_VECINT:xbytes <- [DW_OP_constu 3, DW_OP_shr, DW_OP_stack_value] 0
	;DEBUG_VALUE: emulate_AMX_VECINT:xbits <- 0
	;DEBUG_VALUE: emulate_AMX_VECINT:ybits <- 0
	;DEBUG_VALUE: emulate_AMX_VECINT:z_row <- [DW_OP_plus_uconst 248] [$sp+0]
	;DEBUG_VALUE: emulate_AMX_VECINT:y_step <- [DW_OP_plus_uconst 208] [$sp+0]
	;DEBUG_VALUE: emulate_AMX_VECINT:x_step <- [DW_OP_plus_uconst 200] [$sp+0]
	;DEBUG_VALUE: emulate_AMX_VECINT:state <- [DW_OP_plus_uconst 336] [$sp+0]
	.loc	3 31 17 is_stmt 1               ; vecint.c:31:17
	cmp	x8, x26
	ldr	x9, [sp, #376]                  ; 8-byte Folded Reload
Ltmp317:
	csel	x8, x8, x9, lo
Ltmp318:
LBB2_117:                               ;   in Loop: Header=BB2_119 Depth=2
	;DEBUG_VALUE: i <- $x23
	;DEBUG_VALUE: col_enable <- $x19
	;DEBUG_VALUE: emulate_AMX_VECINT:zbytes <- $w21
	;DEBUG_VALUE: emulate_AMX_VECINT:ybytes <- [DW_OP_constu 3, DW_OP_shr, DW_OP_stack_value] 0
	;DEBUG_VALUE: emulate_AMX_VECINT:xbytes <- [DW_OP_constu 3, DW_OP_shr, DW_OP_stack_value] 0
	;DEBUG_VALUE: emulate_AMX_VECINT:xbits <- 0
	;DEBUG_VALUE: emulate_AMX_VECINT:ybits <- 0
	;DEBUG_VALUE: emulate_AMX_VECINT:z_row <- [DW_OP_plus_uconst 248] [$sp+0]
	;DEBUG_VALUE: emulate_AMX_VECINT:y_step <- [DW_OP_plus_uconst 208] [$sp+0]
	;DEBUG_VALUE: emulate_AMX_VECINT:x_step <- [DW_OP_plus_uconst 200] [$sp+0]
	;DEBUG_VALUE: emulate_AMX_VECINT:state <- [DW_OP_plus_uconst 336] [$sp+0]
	;DEBUG_VALUE: val <- $x8
	;DEBUG_VALUE: vecint_alu_mode4:val <- $x8
	.loc	3 0 17 is_stmt 0                ; vecint.c:0:17
	ldr	x9, [sp, #392]                  ; 8-byte Folded Reload
	.loc	3 135 63 is_stmt 1              ; vecint.c:135:63
	cmp	x9, x24
	csel	x8, xzr, x8, eq
Ltmp319:
	;DEBUG_VALUE: store_int:nbytes <- undef
	;DEBUG_VALUE: store_int:dst <- [DW_OP_LLVM_arg 0, DW_OP_LLVM_arg 0, DW_OP_constu 64, DW_OP_mul, DW_OP_plus, DW_OP_plus_uconst 1024, DW_OP_LLVM_arg 0, DW_OP_constu 1, DW_OP_mul, DW_OP_plus, DW_OP_stack_value] undef
	;DEBUG_VALUE: store_int:val <- $x8
	.loc	3 0 63 is_stmt 0                ; vecint.c:0:63
	stur	x8, [x29, #-160]
Ltmp320:
	;DEBUG_VALUE: store_int:val <- [DW_OP_constu 160, DW_OP_minus, DW_OP_deref] $fp
	.loc	4 38 5 is_stmt 1                ; ./emulate.h:38:5
	sub	x1, x29, #160
	mov	x0, x20
	mov	x2, x21
	bl	_memcpy
Ltmp321:
LBB2_118:                               ;   in Loop: Header=BB2_119 Depth=2
	;DEBUG_VALUE: i <- $x23
	;DEBUG_VALUE: col_enable <- $x19
	;DEBUG_VALUE: emulate_AMX_VECINT:zbytes <- $w21
	;DEBUG_VALUE: emulate_AMX_VECINT:ybytes <- [DW_OP_constu 3, DW_OP_shr, DW_OP_stack_value] 0
	;DEBUG_VALUE: emulate_AMX_VECINT:xbytes <- [DW_OP_constu 3, DW_OP_shr, DW_OP_stack_value] 0
	;DEBUG_VALUE: emulate_AMX_VECINT:xbits <- 0
	;DEBUG_VALUE: emulate_AMX_VECINT:ybits <- 0
	;DEBUG_VALUE: emulate_AMX_VECINT:z_row <- [DW_OP_plus_uconst 248] [$sp+0]
	;DEBUG_VALUE: emulate_AMX_VECINT:y_step <- [DW_OP_plus_uconst 208] [$sp+0]
	;DEBUG_VALUE: emulate_AMX_VECINT:x_step <- [DW_OP_plus_uconst 200] [$sp+0]
	;DEBUG_VALUE: emulate_AMX_VECINT:state <- [DW_OP_plus_uconst 336] [$sp+0]
	.loc	3 131 44                        ; vecint.c:131:44
	add	x23, x23, x21
Ltmp322:
	;DEBUG_VALUE: i <- $x23
	.loc	3 131 13 is_stmt 0              ; vecint.c:131:13
	cmp	x23, #64
	b.hs	LBB2_114
Ltmp323:
LBB2_119:                               ;   Parent Loop BB2_115 Depth=1
                                        ; =>  This Inner Loop Header: Depth=2
	;DEBUG_VALUE: col_enable <- $x19
	;DEBUG_VALUE: emulate_AMX_VECINT:zbytes <- $w21
	;DEBUG_VALUE: emulate_AMX_VECINT:ybytes <- [DW_OP_constu 3, DW_OP_shr, DW_OP_stack_value] 0
	;DEBUG_VALUE: emulate_AMX_VECINT:xbytes <- [DW_OP_constu 3, DW_OP_shr, DW_OP_stack_value] 0
	;DEBUG_VALUE: emulate_AMX_VECINT:xbits <- 0
	;DEBUG_VALUE: emulate_AMX_VECINT:ybits <- 0
	;DEBUG_VALUE: emulate_AMX_VECINT:z_row <- [DW_OP_plus_uconst 248] [$sp+0]
	;DEBUG_VALUE: emulate_AMX_VECINT:y_step <- [DW_OP_plus_uconst 208] [$sp+0]
	;DEBUG_VALUE: emulate_AMX_VECINT:x_step <- [DW_OP_plus_uconst 200] [$sp+0]
	;DEBUG_VALUE: emulate_AMX_VECINT:state <- [DW_OP_plus_uconst 336] [$sp+0]
	;DEBUG_VALUE: i <- $x23
	.loc	3 132 21 is_stmt 1              ; vecint.c:132:21
	lsr	x8, x19, x23
	tbz	w8, #0, LBB2_118
Ltmp324:
; %bb.120:                              ;   in Loop: Header=BB2_119 Depth=2
	;DEBUG_VALUE: i <- $x23
	;DEBUG_VALUE: col_enable <- $x19
	;DEBUG_VALUE: emulate_AMX_VECINT:zbytes <- $w21
	;DEBUG_VALUE: emulate_AMX_VECINT:ybytes <- [DW_OP_constu 3, DW_OP_shr, DW_OP_stack_value] 0
	;DEBUG_VALUE: emulate_AMX_VECINT:xbytes <- [DW_OP_constu 3, DW_OP_shr, DW_OP_stack_value] 0
	;DEBUG_VALUE: emulate_AMX_VECINT:xbits <- 0
	;DEBUG_VALUE: emulate_AMX_VECINT:ybits <- 0
	;DEBUG_VALUE: emulate_AMX_VECINT:z_row <- [DW_OP_plus_uconst 248] [$sp+0]
	;DEBUG_VALUE: emulate_AMX_VECINT:y_step <- [DW_OP_plus_uconst 208] [$sp+0]
	;DEBUG_VALUE: emulate_AMX_VECINT:x_step <- [DW_OP_plus_uconst 200] [$sp+0]
	;DEBUG_VALUE: emulate_AMX_VECINT:state <- [DW_OP_plus_uconst 336] [$sp+0]
	;DEBUG_VALUE: load_int:src <- [DW_OP_LLVM_arg 0, DW_OP_LLVM_arg 0, DW_OP_constu 64, DW_OP_mul, DW_OP_plus, DW_OP_plus_uconst 1024, DW_OP_LLVM_arg 0, DW_OP_constu 1, DW_OP_mul, DW_OP_plus, DW_OP_stack_value] undef
	;DEBUG_VALUE: load_int:nbytes <- undef
	;DEBUG_VALUE: load_int:signext <- undef
	.loc	4 32 5                          ; ./emulate.h:32:5
	add	x20, x27, x23
Ltmp325:
	;DEBUG_VALUE: load_int:val <- 0
	.loc	4 32 13 is_stmt 0               ; ./emulate.h:32:13
	stur	xzr, [x29, #-160]
Ltmp326:
	;DEBUG_VALUE: load_int:val <- [DW_OP_constu 160, DW_OP_minus, DW_OP_deref] $fp
	.loc	4 33 5 is_stmt 1                ; ./emulate.h:33:5
	sub	x0, x29, #160
	mov	x1, x20
	mov	x2, x21
	mov	w3, #8
	bl	___memcpy_chk
Ltmp327:
	.loc	4 34 13                         ; ./emulate.h:34:13
	ldur	x8, [x29, #-160]
Ltmp328:
	;DEBUG_VALUE: load_int:val <- $x8
	.loc	4 34 17 is_stmt 0               ; ./emulate.h:34:17
	lsl	x8, x8, x22
Ltmp329:
	.loc	4 34 29                         ; ./emulate.h:34:29
	asr	x8, x8, x22
Ltmp330:
	;DEBUG_VALUE: vecint_alu_mode4:shift <- undef
	;DEBUG_VALUE: vecint_alu_mode4:operand <- [DW_OP_constu 304, DW_OP_minus] [$fp+0]
	;DEBUG_VALUE: vecint_alu_mode4:satbits <- undef
	;DEBUG_VALUE: vecint_alu_mode4:val <- $x8
	;DEBUG_VALUE: val <- $x8
	.loc	3 17 15 is_stmt 1               ; vecint.c:17:15
	add	x8, x8, x25
Ltmp331:
	;DEBUG_VALUE: vecint_alu_mode4:val <- $x8
	.loc	3 20 9                          ; vecint.c:20:9
	asr	x8, x8, x28
Ltmp332:
	;DEBUG_VALUE: vecint_alu_mode4:val <- $x8
	.loc	3 0 9 is_stmt 0                 ; vecint.c:0:9
	ldr	x9, [sp, #384]                  ; 8-byte Folded Reload
Ltmp333:
	;DEBUG_VALUE: vecint_alu_mode4:operand <- $x9
	.loc	3 21 9 is_stmt 1                ; vecint.c:21:9
	tbz	w9, #30, LBB2_117
Ltmp334:
; %bb.121:                              ;   in Loop: Header=BB2_119 Depth=2
	;DEBUG_VALUE: vecint_alu_mode4:operand <- $x9
	;DEBUG_VALUE: vecint_alu_mode4:val <- $x8
	;DEBUG_VALUE: i <- $x23
	;DEBUG_VALUE: col_enable <- $x19
	;DEBUG_VALUE: emulate_AMX_VECINT:zbytes <- $w21
	;DEBUG_VALUE: emulate_AMX_VECINT:ybytes <- [DW_OP_constu 3, DW_OP_shr, DW_OP_stack_value] 0
	;DEBUG_VALUE: emulate_AMX_VECINT:xbytes <- [DW_OP_constu 3, DW_OP_shr, DW_OP_stack_value] 0
	;DEBUG_VALUE: emulate_AMX_VECINT:xbits <- 0
	;DEBUG_VALUE: emulate_AMX_VECINT:ybits <- 0
	;DEBUG_VALUE: emulate_AMX_VECINT:z_row <- [DW_OP_plus_uconst 248] [$sp+0]
	;DEBUG_VALUE: emulate_AMX_VECINT:y_step <- [DW_OP_plus_uconst 208] [$sp+0]
	;DEBUG_VALUE: emulate_AMX_VECINT:x_step <- [DW_OP_plus_uconst 200] [$sp+0]
	;DEBUG_VALUE: emulate_AMX_VECINT:state <- [DW_OP_plus_uconst 336] [$sp+0]
	;DEBUG_VALUE: vecint_alu_mode4:satbits <- undef
	;DEBUG_VALUE: hi <- $x26
	.loc	3 26 13                         ; vecint.c:26:13
	tbz	x9, #63, LBB2_116
Ltmp335:
; %bb.122:                              ;   in Loop: Header=BB2_119 Depth=2
	;DEBUG_VALUE: hi <- $x26
	;DEBUG_VALUE: vecint_alu_mode4:operand <- $x9
	;DEBUG_VALUE: vecint_alu_mode4:val <- $x8
	;DEBUG_VALUE: i <- $x23
	;DEBUG_VALUE: col_enable <- $x19
	;DEBUG_VALUE: emulate_AMX_VECINT:zbytes <- $w21
	;DEBUG_VALUE: emulate_AMX_VECINT:ybytes <- [DW_OP_constu 3, DW_OP_shr, DW_OP_stack_value] 0
	;DEBUG_VALUE: emulate_AMX_VECINT:xbytes <- [DW_OP_constu 3, DW_OP_shr, DW_OP_stack_value] 0
	;DEBUG_VALUE: emulate_AMX_VECINT:xbits <- 0
	;DEBUG_VALUE: emulate_AMX_VECINT:ybits <- 0
	;DEBUG_VALUE: emulate_AMX_VECINT:z_row <- [DW_OP_plus_uconst 248] [$sp+0]
	;DEBUG_VALUE: emulate_AMX_VECINT:y_step <- [DW_OP_plus_uconst 208] [$sp+0]
	;DEBUG_VALUE: emulate_AMX_VECINT:x_step <- [DW_OP_plus_uconst 200] [$sp+0]
	;DEBUG_VALUE: emulate_AMX_VECINT:state <- [DW_OP_plus_uconst 336] [$sp+0]
	;DEBUG_VALUE: lo <- [DW_OP_constu 320, DW_OP_minus] [$fp+0]
	.loc	3 0 13 is_stmt 0                ; vecint.c:0:13
	ldr	x9, [sp, #368]                  ; 8-byte Folded Reload
Ltmp336:
	.loc	3 28 17 is_stmt 1               ; vecint.c:28:17
	cmp	x8, x9
	csel	x8, x8, x9, gt
Ltmp337:
	;DEBUG_VALUE: vecint_alu_mode4:val <- $x8
	.loc	3 29 17                         ; vecint.c:29:17
	cmp	x8, x26
	ldr	x9, [sp, #376]                  ; 8-byte Folded Reload
	csel	x8, x8, x9, lt
Ltmp338:
	;DEBUG_VALUE: vecint_alu_mode4:val <- $x8
	.loc	3 0 17 is_stmt 0                ; vecint.c:0:17
	b	LBB2_117
Ltmp339:
LBB2_123:
	;DEBUG_VALUE: parse_writemask:val <- $w10
	;DEBUG_VALUE: parse_writemask:all <- -1
	;DEBUG_VALUE: parse_writemask:mode <- $w13
	;DEBUG_VALUE: parse_writemask:g <- $w21
	;DEBUG_VALUE: parse_writemask:maskbits <- 9
	;DEBUG_VALUE: emulate_AMX_VECINT:zbytes <- $w21
	;DEBUG_VALUE: emulate_AMX_VECINT:zbits <- $w12
	;DEBUG_VALUE: emulate_AMX_VECINT:ybytes <- [DW_OP_constu 3, DW_OP_shr, DW_OP_stack_value] 0
	;DEBUG_VALUE: emulate_AMX_VECINT:xbytes <- [DW_OP_constu 3, DW_OP_shr, DW_OP_stack_value] 0
	;DEBUG_VALUE: emulate_AMX_VECINT:shift <- $w8
	;DEBUG_VALUE: emulate_AMX_VECINT:xbits <- 0
	;DEBUG_VALUE: emulate_AMX_VECINT:ybits <- 0
	;DEBUG_VALUE: emulate_AMX_VECINT:z_row <- [DW_OP_plus_uconst 248] [$sp+0]
	;DEBUG_VALUE: emulate_AMX_VECINT:z_step <- $x0
	;DEBUG_VALUE: emulate_AMX_VECINT:y_step <- [DW_OP_plus_uconst 208] [$sp+0]
	;DEBUG_VALUE: emulate_AMX_VECINT:x_step <- [DW_OP_plus_uconst 200] [$sp+0]
	;DEBUG_VALUE: emulate_AMX_VECINT:state <- [DW_OP_plus_uconst 336] [$sp+0]
	mov	x10, #-1
	b	LBB2_113
Ltmp340:
LBB2_124:
	;DEBUG_VALUE: emulate_AMX_VECINT:alumode <- [DW_OP_plus_uconst 316] [$sp+0]
	;DEBUG_VALUE: emulate_AMX_VECINT:shift <- $w8
	;DEBUG_VALUE: emulate_AMX_VECINT:xbits <- 0
	;DEBUG_VALUE: emulate_AMX_VECINT:ybits <- 0
	;DEBUG_VALUE: emulate_AMX_VECINT:z_row <- [DW_OP_plus_uconst 248] [$sp+0]
	;DEBUG_VALUE: emulate_AMX_VECINT:z_step <- $x0
	;DEBUG_VALUE: emulate_AMX_VECINT:ximask <- $w9
	;DEBUG_VALUE: emulate_AMX_VECINT:y_step <- [DW_OP_plus_uconst 208] [$sp+0]
	;DEBUG_VALUE: emulate_AMX_VECINT:x_step <- [DW_OP_plus_uconst 200] [$sp+0]
	;DEBUG_VALUE: emulate_AMX_VECINT:state <- [DW_OP_plus_uconst 336] [$sp+0]
	mov	w12, #8
	str	w12, [sp, #116]                 ; 4-byte Folded Spill
	mov	w12, #16
Ltmp341:
	;DEBUG_VALUE: emulate_AMX_VECINT:zbits <- 16
	;DEBUG_VALUE: emulate_AMX_VECINT:ybits <- 8
	;DEBUG_VALUE: emulate_AMX_VECINT:xbits <- 8
	mov	w13, #8
	b	LBB2_26
Ltmp342:
LBB2_125:
	;DEBUG_VALUE: emulate_AMX_VECINT:alumode <- [DW_OP_plus_uconst 316] [$sp+0]
	;DEBUG_VALUE: emulate_AMX_VECINT:shift <- $w8
	;DEBUG_VALUE: emulate_AMX_VECINT:xbits <- 0
	;DEBUG_VALUE: emulate_AMX_VECINT:ybits <- 0
	;DEBUG_VALUE: emulate_AMX_VECINT:z_row <- [DW_OP_plus_uconst 248] [$sp+0]
	;DEBUG_VALUE: emulate_AMX_VECINT:z_step <- $x0
	;DEBUG_VALUE: emulate_AMX_VECINT:ximask <- $w9
	;DEBUG_VALUE: emulate_AMX_VECINT:y_step <- [DW_OP_plus_uconst 208] [$sp+0]
	;DEBUG_VALUE: emulate_AMX_VECINT:x_step <- [DW_OP_plus_uconst 200] [$sp+0]
	;DEBUG_VALUE: emulate_AMX_VECINT:state <- [DW_OP_plus_uconst 336] [$sp+0]
	mov	w12, #8
	str	w12, [sp, #112]                 ; 4-byte Folded Spill
	mov	w12, #16
	b	LBB2_127
Ltmp343:
LBB2_126:
	;DEBUG_VALUE: emulate_AMX_VECINT:alumode <- [DW_OP_plus_uconst 316] [$sp+0]
	;DEBUG_VALUE: emulate_AMX_VECINT:shift <- $w8
	;DEBUG_VALUE: emulate_AMX_VECINT:xbits <- 0
	;DEBUG_VALUE: emulate_AMX_VECINT:ybits <- 0
	;DEBUG_VALUE: emulate_AMX_VECINT:z_row <- [DW_OP_plus_uconst 248] [$sp+0]
	;DEBUG_VALUE: emulate_AMX_VECINT:z_step <- $x0
	;DEBUG_VALUE: emulate_AMX_VECINT:ximask <- $w9
	;DEBUG_VALUE: emulate_AMX_VECINT:y_step <- [DW_OP_plus_uconst 208] [$sp+0]
	;DEBUG_VALUE: emulate_AMX_VECINT:x_step <- [DW_OP_plus_uconst 200] [$sp+0]
	;DEBUG_VALUE: emulate_AMX_VECINT:state <- [DW_OP_plus_uconst 336] [$sp+0]
	mov	w12, #16
	str	w12, [sp, #112]                 ; 4-byte Folded Spill
	mov	w12, #8
Ltmp344:
LBB2_127:
	;DEBUG_VALUE: emulate_AMX_VECINT:alumode <- [DW_OP_plus_uconst 316] [$sp+0]
	;DEBUG_VALUE: emulate_AMX_VECINT:shift <- $w8
	;DEBUG_VALUE: emulate_AMX_VECINT:xbits <- 0
	;DEBUG_VALUE: emulate_AMX_VECINT:ybits <- 0
	;DEBUG_VALUE: emulate_AMX_VECINT:z_row <- [DW_OP_plus_uconst 248] [$sp+0]
	;DEBUG_VALUE: emulate_AMX_VECINT:z_step <- $x0
	;DEBUG_VALUE: emulate_AMX_VECINT:ximask <- $w9
	;DEBUG_VALUE: emulate_AMX_VECINT:y_step <- [DW_OP_plus_uconst 208] [$sp+0]
	;DEBUG_VALUE: emulate_AMX_VECINT:x_step <- [DW_OP_plus_uconst 200] [$sp+0]
	;DEBUG_VALUE: emulate_AMX_VECINT:state <- [DW_OP_plus_uconst 336] [$sp+0]
	str	w12, [sp, #116]                 ; 4-byte Folded Spill
	mov	w12, #32
Ltmp345:
	;DEBUG_VALUE: emulate_AMX_VECINT:zbits <- 32
	;DEBUG_VALUE: emulate_AMX_VECINT:ybits <- 16
	;DEBUG_VALUE: emulate_AMX_VECINT:xbits <- 8
	b	LBB2_27
Ltmp346:
LBB2_128:
	;DEBUG_VALUE: emulate_AMX_VECINT:state <- [DW_OP_plus_uconst 336] [$sp+0]
	bl	___stack_chk_fail
Ltmp347:
	.loh AdrpLdrGotLdr	Lloh0, Lloh1, Lloh2
	.loh AdrpLdrGotLdr	Lloh3, Lloh4, Lloh5
	.loh AdrpLdrGotLdr	Lloh6, Lloh7, Lloh8
	.loh AdrpAdd	Lloh9, Lloh10
	.loh AdrpAdd	Lloh13, Lloh14
	.loh AdrpAdd	Lloh11, Lloh12
	.loh AdrpAdd	Lloh15, Lloh16
	.loh AdrpAdd	Lloh17, Lloh18
	.loh AdrpAdd	Lloh19, Lloh20
	.loh AdrpAdd	Lloh21, Lloh22
Lfunc_end2:
	.cfi_endproc
	.section	__TEXT,__const
lJTI2_0:
	.byte	(LBB2_7-LBB2_7)>>2
	.byte	(LBB2_11-LBB2_7)>>2
	.byte	(LBB2_9-LBB2_7)>>2
	.byte	(LBB2_12-LBB2_7)>>2
	.byte	(LBB2_10-LBB2_7)>>2
	.byte	(LBB2_14-LBB2_7)>>2
	.byte	(LBB2_16-LBB2_7)>>2
	.p2align	1, 0x0
lJTI2_1:
	.short	(LBB2_27-LBB2_25)>>2
	.short	(LBB2_25-LBB2_25)>>2
	.short	(LBB2_25-LBB2_25)>>2
	.short	(LBB2_25-LBB2_25)>>2
	.short	(LBB2_25-LBB2_25)>>2
	.short	(LBB2_25-LBB2_25)>>2
	.short	(LBB2_25-LBB2_25)>>2
	.short	(LBB2_40-LBB2_25)>>2
	.short	(LBB2_124-LBB2_25)>>2
	.short	(LBB2_125-LBB2_25)>>2
	.short	(LBB2_126-LBB2_25)>>2
lJTI2_2:
	.byte	(LBB2_56-LBB2_56)>>2
	.byte	(LBB2_71-LBB2_56)>>2
	.byte	(LBB2_60-LBB2_56)>>2
	.byte	(LBB2_62-LBB2_56)>>2
	.byte	(LBB2_65-LBB2_56)>>2
	.byte	(LBB2_63-LBB2_56)>>2
lJTI2_3:
	.byte	(LBB2_68-LBB2_68)>>2
	.byte	(LBB2_71-LBB2_68)>>2
	.byte	(LBB2_72-LBB2_68)>>2
	.byte	(LBB2_77-LBB2_68)>>2
	.byte	(LBB2_73-LBB2_68)>>2
	.byte	(LBB2_78-LBB2_68)>>2
	.p2align	1, 0x0
lJTI2_4:
	.short	(LBB2_34-LBB2_34)>>2
	.short	(LBB2_107-LBB2_34)>>2
	.short	(LBB2_108-LBB2_34)>>2
	.short	(LBB2_110-LBB2_34)>>2
	.short	(LBB2_109-LBB2_34)>>2
	.short	(LBB2_111-LBB2_34)>>2
	.file	5 "/Library/Developer/CommandLineTools/SDKs/MacOSX.sdk/usr/include/_types" "_uint32_t.h"
	.file	6 "/Library/Developer/CommandLineTools/SDKs/MacOSX.sdk/usr/include/sys/_types" "_int64_t.h"
                                        ; -- End function
	.p2align	3, 0x0                          ; @switch.table.emulate_AMX_VECINT
l_switch.table.emulate_AMX_VECINT:
	.quad	16                              ; 0x10
	.quad	32                              ; 0x20
	.quad	16                              ; 0x10
	.quad	16                              ; 0x10
	.quad	16                              ; 0x10
	.quad	16                              ; 0x10
	.quad	8                               ; 0x8
	.quad	8                               ; 0x8
	.quad	8                               ; 0x8

	.p2align	2, 0x0                          ; @switch.table.emulate_AMX_VECINT.1
l_switch.table.emulate_AMX_VECINT.1:
	.long	32                              ; 0x20
	.long	32                              ; 0x20
	.long	16                              ; 0x10
	.long	16                              ; 0x10
	.long	16                              ; 0x10
	.long	16                              ; 0x10
	.long	8                               ; 0x8
	.long	32                              ; 0x20
	.long	16                              ; 0x10

	.file	7 "/Library/Developer/CommandLineTools/SDKs/MacOSX.sdk/usr/include/_types" "_uint16_t.h"
	.file	8 "/Library/Developer/CommandLineTools/SDKs/MacOSX.sdk/usr/include/sys/_types" "_int8_t.h"
	.file	9 "/Library/Developer/CommandLineTools/SDKs/MacOSX.sdk/usr/include/sys/_types" "_int16_t.h"
	.file	10 "/Library/Developer/CommandLineTools/SDKs/MacOSX.sdk/usr/include/sys/_types" "_int32_t.h"